
Project STM32.elf:     file format elf32-littlearm

Sections:
Idx Name          Size      VMA       LMA       File off  Algn
  0 .isr_vector   0000010c  08000000  08000000  00001000  2**0
                  CONTENTS, ALLOC, LOAD, READONLY, DATA
  1 .text         00006e14  0800010c  0800010c  0000110c  2**2
                  CONTENTS, ALLOC, LOAD, READONLY, CODE
  2 .rodata       0000012c  08006f20  08006f20  00007f20  2**2
                  CONTENTS, ALLOC, LOAD, READONLY, DATA
  3 .ARM.extab    00000000  0800704c  0800704c  00009060  2**0
                  CONTENTS
  4 .ARM          00000008  0800704c  0800704c  0000804c  2**2
                  CONTENTS, ALLOC, LOAD, READONLY, DATA
  5 .preinit_array 00000000  08007054  08007054  00009060  2**0
                  CONTENTS, ALLOC, LOAD, DATA
  6 .init_array   00000004  08007054  08007054  00008054  2**2
                  CONTENTS, ALLOC, LOAD, DATA
  7 .fini_array   00000004  08007058  08007058  00008058  2**2
                  CONTENTS, ALLOC, LOAD, DATA
  8 .data         00000060  20000000  0800705c  00009000  2**2
                  CONTENTS, ALLOC, LOAD, DATA
  9 .bss          000003c8  20000060  080070bc  00009060  2**2
                  ALLOC
 10 ._user_heap_stack 00000600  20000428  080070bc  00009428  2**0
                  ALLOC
 11 .ARM.attributes 00000029  00000000  00000000  00009060  2**0
                  CONTENTS, READONLY
 12 .debug_info   00012abb  00000000  00000000  00009089  2**0
                  CONTENTS, READONLY, DEBUGGING, OCTETS
 13 .debug_abbrev 00003148  00000000  00000000  0001bb44  2**0
                  CONTENTS, READONLY, DEBUGGING, OCTETS
 14 .debug_aranges 00001230  00000000  00000000  0001ec90  2**3
                  CONTENTS, READONLY, DEBUGGING, OCTETS
 15 .debug_rnglists 00000e33  00000000  00000000  0001fec0  2**0
                  CONTENTS, READONLY, DEBUGGING, OCTETS
 16 .debug_macro  0001a940  00000000  00000000  00020cf3  2**0
                  CONTENTS, READONLY, DEBUGGING, OCTETS
 17 .debug_line   0001896d  00000000  00000000  0003b633  2**0
                  CONTENTS, READONLY, DEBUGGING, OCTETS
 18 .debug_str    000924b3  00000000  00000000  00053fa0  2**0
                  CONTENTS, READONLY, DEBUGGING, OCTETS
 19 .comment      00000043  00000000  00000000  000e6453  2**0
                  CONTENTS, READONLY
 20 .debug_frame  000050cc  00000000  00000000  000e6498  2**2
                  CONTENTS, READONLY, DEBUGGING, OCTETS
 21 .debug_line_str 00000095  00000000  00000000  000eb564  2**0
                  CONTENTS, READONLY, DEBUGGING, OCTETS

Disassembly of section .text:

0800010c <__do_global_dtors_aux>:
 800010c:	b510      	push	{r4, lr}
 800010e:	4c05      	ldr	r4, [pc, #20]	@ (8000124 <__do_global_dtors_aux+0x18>)
 8000110:	7823      	ldrb	r3, [r4, #0]
 8000112:	b933      	cbnz	r3, 8000122 <__do_global_dtors_aux+0x16>
 8000114:	4b04      	ldr	r3, [pc, #16]	@ (8000128 <__do_global_dtors_aux+0x1c>)
 8000116:	b113      	cbz	r3, 800011e <__do_global_dtors_aux+0x12>
 8000118:	4804      	ldr	r0, [pc, #16]	@ (800012c <__do_global_dtors_aux+0x20>)
 800011a:	f3af 8000 	nop.w
 800011e:	2301      	movs	r3, #1
 8000120:	7023      	strb	r3, [r4, #0]
 8000122:	bd10      	pop	{r4, pc}
 8000124:	20000060 	.word	0x20000060
 8000128:	00000000 	.word	0x00000000
 800012c:	08006f08 	.word	0x08006f08

08000130 <frame_dummy>:
 8000130:	b508      	push	{r3, lr}
 8000132:	4b03      	ldr	r3, [pc, #12]	@ (8000140 <frame_dummy+0x10>)
 8000134:	b11b      	cbz	r3, 800013e <frame_dummy+0xe>
 8000136:	4903      	ldr	r1, [pc, #12]	@ (8000144 <frame_dummy+0x14>)
 8000138:	4803      	ldr	r0, [pc, #12]	@ (8000148 <frame_dummy+0x18>)
 800013a:	f3af 8000 	nop.w
 800013e:	bd08      	pop	{r3, pc}
 8000140:	00000000 	.word	0x00000000
 8000144:	20000064 	.word	0x20000064
 8000148:	08006f08 	.word	0x08006f08

0800014c <strlen>:
 800014c:	4603      	mov	r3, r0
 800014e:	f813 2b01 	ldrb.w	r2, [r3], #1
 8000152:	2a00      	cmp	r2, #0
 8000154:	d1fb      	bne.n	800014e <strlen+0x2>
 8000156:	1a18      	subs	r0, r3, r0
 8000158:	3801      	subs	r0, #1
 800015a:	4770      	bx	lr

0800015c <__aeabi_frsub>:
 800015c:	f080 4000 	eor.w	r0, r0, #2147483648	@ 0x80000000
 8000160:	e002      	b.n	8000168 <__addsf3>
 8000162:	bf00      	nop

08000164 <__aeabi_fsub>:
 8000164:	f081 4100 	eor.w	r1, r1, #2147483648	@ 0x80000000

08000168 <__addsf3>:
 8000168:	0042      	lsls	r2, r0, #1
 800016a:	bf1f      	itttt	ne
 800016c:	ea5f 0341 	movsne.w	r3, r1, lsl #1
 8000170:	ea92 0f03 	teqne	r2, r3
 8000174:	ea7f 6c22 	mvnsne.w	ip, r2, asr #24
 8000178:	ea7f 6c23 	mvnsne.w	ip, r3, asr #24
 800017c:	d06a      	beq.n	8000254 <__addsf3+0xec>
 800017e:	ea4f 6212 	mov.w	r2, r2, lsr #24
 8000182:	ebd2 6313 	rsbs	r3, r2, r3, lsr #24
 8000186:	bfc1      	itttt	gt
 8000188:	18d2      	addgt	r2, r2, r3
 800018a:	4041      	eorgt	r1, r0
 800018c:	4048      	eorgt	r0, r1
 800018e:	4041      	eorgt	r1, r0
 8000190:	bfb8      	it	lt
 8000192:	425b      	neglt	r3, r3
 8000194:	2b19      	cmp	r3, #25
 8000196:	bf88      	it	hi
 8000198:	4770      	bxhi	lr
 800019a:	f010 4f00 	tst.w	r0, #2147483648	@ 0x80000000
 800019e:	f440 0000 	orr.w	r0, r0, #8388608	@ 0x800000
 80001a2:	f020 407f 	bic.w	r0, r0, #4278190080	@ 0xff000000
 80001a6:	bf18      	it	ne
 80001a8:	4240      	negne	r0, r0
 80001aa:	f011 4f00 	tst.w	r1, #2147483648	@ 0x80000000
 80001ae:	f441 0100 	orr.w	r1, r1, #8388608	@ 0x800000
 80001b2:	f021 417f 	bic.w	r1, r1, #4278190080	@ 0xff000000
 80001b6:	bf18      	it	ne
 80001b8:	4249      	negne	r1, r1
 80001ba:	ea92 0f03 	teq	r2, r3
 80001be:	d03f      	beq.n	8000240 <__addsf3+0xd8>
 80001c0:	f1a2 0201 	sub.w	r2, r2, #1
 80001c4:	fa41 fc03 	asr.w	ip, r1, r3
 80001c8:	eb10 000c 	adds.w	r0, r0, ip
 80001cc:	f1c3 0320 	rsb	r3, r3, #32
 80001d0:	fa01 f103 	lsl.w	r1, r1, r3
 80001d4:	f000 4300 	and.w	r3, r0, #2147483648	@ 0x80000000
 80001d8:	d502      	bpl.n	80001e0 <__addsf3+0x78>
 80001da:	4249      	negs	r1, r1
 80001dc:	eb60 0040 	sbc.w	r0, r0, r0, lsl #1
 80001e0:	f5b0 0f00 	cmp.w	r0, #8388608	@ 0x800000
 80001e4:	d313      	bcc.n	800020e <__addsf3+0xa6>
 80001e6:	f1b0 7f80 	cmp.w	r0, #16777216	@ 0x1000000
 80001ea:	d306      	bcc.n	80001fa <__addsf3+0x92>
 80001ec:	0840      	lsrs	r0, r0, #1
 80001ee:	ea4f 0131 	mov.w	r1, r1, rrx
 80001f2:	f102 0201 	add.w	r2, r2, #1
 80001f6:	2afe      	cmp	r2, #254	@ 0xfe
 80001f8:	d251      	bcs.n	800029e <__addsf3+0x136>
 80001fa:	f1b1 4f00 	cmp.w	r1, #2147483648	@ 0x80000000
 80001fe:	eb40 50c2 	adc.w	r0, r0, r2, lsl #23
 8000202:	bf08      	it	eq
 8000204:	f020 0001 	biceq.w	r0, r0, #1
 8000208:	ea40 0003 	orr.w	r0, r0, r3
 800020c:	4770      	bx	lr
 800020e:	0049      	lsls	r1, r1, #1
 8000210:	eb40 0000 	adc.w	r0, r0, r0
 8000214:	3a01      	subs	r2, #1
 8000216:	bf28      	it	cs
 8000218:	f5b0 0f00 	cmpcs.w	r0, #8388608	@ 0x800000
 800021c:	d2ed      	bcs.n	80001fa <__addsf3+0x92>
 800021e:	fab0 fc80 	clz	ip, r0
 8000222:	f1ac 0c08 	sub.w	ip, ip, #8
 8000226:	ebb2 020c 	subs.w	r2, r2, ip
 800022a:	fa00 f00c 	lsl.w	r0, r0, ip
 800022e:	bfaa      	itet	ge
 8000230:	eb00 50c2 	addge.w	r0, r0, r2, lsl #23
 8000234:	4252      	neglt	r2, r2
 8000236:	4318      	orrge	r0, r3
 8000238:	bfbc      	itt	lt
 800023a:	40d0      	lsrlt	r0, r2
 800023c:	4318      	orrlt	r0, r3
 800023e:	4770      	bx	lr
 8000240:	f092 0f00 	teq	r2, #0
 8000244:	f481 0100 	eor.w	r1, r1, #8388608	@ 0x800000
 8000248:	bf06      	itte	eq
 800024a:	f480 0000 	eoreq.w	r0, r0, #8388608	@ 0x800000
 800024e:	3201      	addeq	r2, #1
 8000250:	3b01      	subne	r3, #1
 8000252:	e7b5      	b.n	80001c0 <__addsf3+0x58>
 8000254:	ea4f 0341 	mov.w	r3, r1, lsl #1
 8000258:	ea7f 6c22 	mvns.w	ip, r2, asr #24
 800025c:	bf18      	it	ne
 800025e:	ea7f 6c23 	mvnsne.w	ip, r3, asr #24
 8000262:	d021      	beq.n	80002a8 <__addsf3+0x140>
 8000264:	ea92 0f03 	teq	r2, r3
 8000268:	d004      	beq.n	8000274 <__addsf3+0x10c>
 800026a:	f092 0f00 	teq	r2, #0
 800026e:	bf08      	it	eq
 8000270:	4608      	moveq	r0, r1
 8000272:	4770      	bx	lr
 8000274:	ea90 0f01 	teq	r0, r1
 8000278:	bf1c      	itt	ne
 800027a:	2000      	movne	r0, #0
 800027c:	4770      	bxne	lr
 800027e:	f012 4f7f 	tst.w	r2, #4278190080	@ 0xff000000
 8000282:	d104      	bne.n	800028e <__addsf3+0x126>
 8000284:	0040      	lsls	r0, r0, #1
 8000286:	bf28      	it	cs
 8000288:	f040 4000 	orrcs.w	r0, r0, #2147483648	@ 0x80000000
 800028c:	4770      	bx	lr
 800028e:	f112 7200 	adds.w	r2, r2, #33554432	@ 0x2000000
 8000292:	bf3c      	itt	cc
 8000294:	f500 0000 	addcc.w	r0, r0, #8388608	@ 0x800000
 8000298:	4770      	bxcc	lr
 800029a:	f000 4300 	and.w	r3, r0, #2147483648	@ 0x80000000
 800029e:	f043 40fe 	orr.w	r0, r3, #2130706432	@ 0x7f000000
 80002a2:	f440 0000 	orr.w	r0, r0, #8388608	@ 0x800000
 80002a6:	4770      	bx	lr
 80002a8:	ea7f 6222 	mvns.w	r2, r2, asr #24
 80002ac:	bf16      	itet	ne
 80002ae:	4608      	movne	r0, r1
 80002b0:	ea7f 6323 	mvnseq.w	r3, r3, asr #24
 80002b4:	4601      	movne	r1, r0
 80002b6:	0242      	lsls	r2, r0, #9
 80002b8:	bf06      	itte	eq
 80002ba:	ea5f 2341 	movseq.w	r3, r1, lsl #9
 80002be:	ea90 0f01 	teqeq	r0, r1
 80002c2:	f440 0080 	orrne.w	r0, r0, #4194304	@ 0x400000
 80002c6:	4770      	bx	lr

080002c8 <__aeabi_ui2f>:
 80002c8:	f04f 0300 	mov.w	r3, #0
 80002cc:	e004      	b.n	80002d8 <__aeabi_i2f+0x8>
 80002ce:	bf00      	nop

080002d0 <__aeabi_i2f>:
 80002d0:	f010 4300 	ands.w	r3, r0, #2147483648	@ 0x80000000
 80002d4:	bf48      	it	mi
 80002d6:	4240      	negmi	r0, r0
 80002d8:	ea5f 0c00 	movs.w	ip, r0
 80002dc:	bf08      	it	eq
 80002de:	4770      	bxeq	lr
 80002e0:	f043 4396 	orr.w	r3, r3, #1258291200	@ 0x4b000000
 80002e4:	4601      	mov	r1, r0
 80002e6:	f04f 0000 	mov.w	r0, #0
 80002ea:	e01c      	b.n	8000326 <__aeabi_l2f+0x2a>

080002ec <__aeabi_ul2f>:
 80002ec:	ea50 0201 	orrs.w	r2, r0, r1
 80002f0:	bf08      	it	eq
 80002f2:	4770      	bxeq	lr
 80002f4:	f04f 0300 	mov.w	r3, #0
 80002f8:	e00a      	b.n	8000310 <__aeabi_l2f+0x14>
 80002fa:	bf00      	nop

080002fc <__aeabi_l2f>:
 80002fc:	ea50 0201 	orrs.w	r2, r0, r1
 8000300:	bf08      	it	eq
 8000302:	4770      	bxeq	lr
 8000304:	f011 4300 	ands.w	r3, r1, #2147483648	@ 0x80000000
 8000308:	d502      	bpl.n	8000310 <__aeabi_l2f+0x14>
 800030a:	4240      	negs	r0, r0
 800030c:	eb61 0141 	sbc.w	r1, r1, r1, lsl #1
 8000310:	ea5f 0c01 	movs.w	ip, r1
 8000314:	bf02      	ittt	eq
 8000316:	4684      	moveq	ip, r0
 8000318:	4601      	moveq	r1, r0
 800031a:	2000      	moveq	r0, #0
 800031c:	f043 43b6 	orr.w	r3, r3, #1526726656	@ 0x5b000000
 8000320:	bf08      	it	eq
 8000322:	f1a3 5380 	subeq.w	r3, r3, #268435456	@ 0x10000000
 8000326:	f5a3 0300 	sub.w	r3, r3, #8388608	@ 0x800000
 800032a:	fabc f28c 	clz	r2, ip
 800032e:	3a08      	subs	r2, #8
 8000330:	eba3 53c2 	sub.w	r3, r3, r2, lsl #23
 8000334:	db10      	blt.n	8000358 <__aeabi_l2f+0x5c>
 8000336:	fa01 fc02 	lsl.w	ip, r1, r2
 800033a:	4463      	add	r3, ip
 800033c:	fa00 fc02 	lsl.w	ip, r0, r2
 8000340:	f1c2 0220 	rsb	r2, r2, #32
 8000344:	f1bc 4f00 	cmp.w	ip, #2147483648	@ 0x80000000
 8000348:	fa20 f202 	lsr.w	r2, r0, r2
 800034c:	eb43 0002 	adc.w	r0, r3, r2
 8000350:	bf08      	it	eq
 8000352:	f020 0001 	biceq.w	r0, r0, #1
 8000356:	4770      	bx	lr
 8000358:	f102 0220 	add.w	r2, r2, #32
 800035c:	fa01 fc02 	lsl.w	ip, r1, r2
 8000360:	f1c2 0220 	rsb	r2, r2, #32
 8000364:	ea50 004c 	orrs.w	r0, r0, ip, lsl #1
 8000368:	fa21 f202 	lsr.w	r2, r1, r2
 800036c:	eb43 0002 	adc.w	r0, r3, r2
 8000370:	bf08      	it	eq
 8000372:	ea20 70dc 	biceq.w	r0, r0, ip, lsr #31
 8000376:	4770      	bx	lr

08000378 <__aeabi_fmul>:
 8000378:	f04f 0cff 	mov.w	ip, #255	@ 0xff
 800037c:	ea1c 52d0 	ands.w	r2, ip, r0, lsr #23
 8000380:	bf1e      	ittt	ne
 8000382:	ea1c 53d1 	andsne.w	r3, ip, r1, lsr #23
 8000386:	ea92 0f0c 	teqne	r2, ip
 800038a:	ea93 0f0c 	teqne	r3, ip
 800038e:	d06f      	beq.n	8000470 <__aeabi_fmul+0xf8>
 8000390:	441a      	add	r2, r3
 8000392:	ea80 0c01 	eor.w	ip, r0, r1
 8000396:	0240      	lsls	r0, r0, #9
 8000398:	bf18      	it	ne
 800039a:	ea5f 2141 	movsne.w	r1, r1, lsl #9
 800039e:	d01e      	beq.n	80003de <__aeabi_fmul+0x66>
 80003a0:	f04f 6300 	mov.w	r3, #134217728	@ 0x8000000
 80003a4:	ea43 1050 	orr.w	r0, r3, r0, lsr #5
 80003a8:	ea43 1151 	orr.w	r1, r3, r1, lsr #5
 80003ac:	fba0 3101 	umull	r3, r1, r0, r1
 80003b0:	f00c 4000 	and.w	r0, ip, #2147483648	@ 0x80000000
 80003b4:	f5b1 0f00 	cmp.w	r1, #8388608	@ 0x800000
 80003b8:	bf3e      	ittt	cc
 80003ba:	0049      	lslcc	r1, r1, #1
 80003bc:	ea41 71d3 	orrcc.w	r1, r1, r3, lsr #31
 80003c0:	005b      	lslcc	r3, r3, #1
 80003c2:	ea40 0001 	orr.w	r0, r0, r1
 80003c6:	f162 027f 	sbc.w	r2, r2, #127	@ 0x7f
 80003ca:	2afd      	cmp	r2, #253	@ 0xfd
 80003cc:	d81d      	bhi.n	800040a <__aeabi_fmul+0x92>
 80003ce:	f1b3 4f00 	cmp.w	r3, #2147483648	@ 0x80000000
 80003d2:	eb40 50c2 	adc.w	r0, r0, r2, lsl #23
 80003d6:	bf08      	it	eq
 80003d8:	f020 0001 	biceq.w	r0, r0, #1
 80003dc:	4770      	bx	lr
 80003de:	f090 0f00 	teq	r0, #0
 80003e2:	f00c 4c00 	and.w	ip, ip, #2147483648	@ 0x80000000
 80003e6:	bf08      	it	eq
 80003e8:	0249      	lsleq	r1, r1, #9
 80003ea:	ea4c 2050 	orr.w	r0, ip, r0, lsr #9
 80003ee:	ea40 2051 	orr.w	r0, r0, r1, lsr #9
 80003f2:	3a7f      	subs	r2, #127	@ 0x7f
 80003f4:	bfc2      	ittt	gt
 80003f6:	f1d2 03ff 	rsbsgt	r3, r2, #255	@ 0xff
 80003fa:	ea40 50c2 	orrgt.w	r0, r0, r2, lsl #23
 80003fe:	4770      	bxgt	lr
 8000400:	f440 0000 	orr.w	r0, r0, #8388608	@ 0x800000
 8000404:	f04f 0300 	mov.w	r3, #0
 8000408:	3a01      	subs	r2, #1
 800040a:	dc5d      	bgt.n	80004c8 <__aeabi_fmul+0x150>
 800040c:	f112 0f19 	cmn.w	r2, #25
 8000410:	bfdc      	itt	le
 8000412:	f000 4000 	andle.w	r0, r0, #2147483648	@ 0x80000000
 8000416:	4770      	bxle	lr
 8000418:	f1c2 0200 	rsb	r2, r2, #0
 800041c:	0041      	lsls	r1, r0, #1
 800041e:	fa21 f102 	lsr.w	r1, r1, r2
 8000422:	f1c2 0220 	rsb	r2, r2, #32
 8000426:	fa00 fc02 	lsl.w	ip, r0, r2
 800042a:	ea5f 0031 	movs.w	r0, r1, rrx
 800042e:	f140 0000 	adc.w	r0, r0, #0
 8000432:	ea53 034c 	orrs.w	r3, r3, ip, lsl #1
 8000436:	bf08      	it	eq
 8000438:	ea20 70dc 	biceq.w	r0, r0, ip, lsr #31
 800043c:	4770      	bx	lr
 800043e:	f092 0f00 	teq	r2, #0
 8000442:	f000 4c00 	and.w	ip, r0, #2147483648	@ 0x80000000
 8000446:	bf02      	ittt	eq
 8000448:	0040      	lsleq	r0, r0, #1
 800044a:	f410 0f00 	tsteq.w	r0, #8388608	@ 0x800000
 800044e:	3a01      	subeq	r2, #1
 8000450:	d0f9      	beq.n	8000446 <__aeabi_fmul+0xce>
 8000452:	ea40 000c 	orr.w	r0, r0, ip
 8000456:	f093 0f00 	teq	r3, #0
 800045a:	f001 4c00 	and.w	ip, r1, #2147483648	@ 0x80000000
 800045e:	bf02      	ittt	eq
 8000460:	0049      	lsleq	r1, r1, #1
 8000462:	f411 0f00 	tsteq.w	r1, #8388608	@ 0x800000
 8000466:	3b01      	subeq	r3, #1
 8000468:	d0f9      	beq.n	800045e <__aeabi_fmul+0xe6>
 800046a:	ea41 010c 	orr.w	r1, r1, ip
 800046e:	e78f      	b.n	8000390 <__aeabi_fmul+0x18>
 8000470:	ea0c 53d1 	and.w	r3, ip, r1, lsr #23
 8000474:	ea92 0f0c 	teq	r2, ip
 8000478:	bf18      	it	ne
 800047a:	ea93 0f0c 	teqne	r3, ip
 800047e:	d00a      	beq.n	8000496 <__aeabi_fmul+0x11e>
 8000480:	f030 4c00 	bics.w	ip, r0, #2147483648	@ 0x80000000
 8000484:	bf18      	it	ne
 8000486:	f031 4c00 	bicsne.w	ip, r1, #2147483648	@ 0x80000000
 800048a:	d1d8      	bne.n	800043e <__aeabi_fmul+0xc6>
 800048c:	ea80 0001 	eor.w	r0, r0, r1
 8000490:	f000 4000 	and.w	r0, r0, #2147483648	@ 0x80000000
 8000494:	4770      	bx	lr
 8000496:	f090 0f00 	teq	r0, #0
 800049a:	bf17      	itett	ne
 800049c:	f090 4f00 	teqne	r0, #2147483648	@ 0x80000000
 80004a0:	4608      	moveq	r0, r1
 80004a2:	f091 0f00 	teqne	r1, #0
 80004a6:	f091 4f00 	teqne	r1, #2147483648	@ 0x80000000
 80004aa:	d014      	beq.n	80004d6 <__aeabi_fmul+0x15e>
 80004ac:	ea92 0f0c 	teq	r2, ip
 80004b0:	d101      	bne.n	80004b6 <__aeabi_fmul+0x13e>
 80004b2:	0242      	lsls	r2, r0, #9
 80004b4:	d10f      	bne.n	80004d6 <__aeabi_fmul+0x15e>
 80004b6:	ea93 0f0c 	teq	r3, ip
 80004ba:	d103      	bne.n	80004c4 <__aeabi_fmul+0x14c>
 80004bc:	024b      	lsls	r3, r1, #9
 80004be:	bf18      	it	ne
 80004c0:	4608      	movne	r0, r1
 80004c2:	d108      	bne.n	80004d6 <__aeabi_fmul+0x15e>
 80004c4:	ea80 0001 	eor.w	r0, r0, r1
 80004c8:	f000 4000 	and.w	r0, r0, #2147483648	@ 0x80000000
 80004cc:	f040 40fe 	orr.w	r0, r0, #2130706432	@ 0x7f000000
 80004d0:	f440 0000 	orr.w	r0, r0, #8388608	@ 0x800000
 80004d4:	4770      	bx	lr
 80004d6:	f040 40fe 	orr.w	r0, r0, #2130706432	@ 0x7f000000
 80004da:	f440 0040 	orr.w	r0, r0, #12582912	@ 0xc00000
 80004de:	4770      	bx	lr

080004e0 <__aeabi_fdiv>:
 80004e0:	f04f 0cff 	mov.w	ip, #255	@ 0xff
 80004e4:	ea1c 52d0 	ands.w	r2, ip, r0, lsr #23
 80004e8:	bf1e      	ittt	ne
 80004ea:	ea1c 53d1 	andsne.w	r3, ip, r1, lsr #23
 80004ee:	ea92 0f0c 	teqne	r2, ip
 80004f2:	ea93 0f0c 	teqne	r3, ip
 80004f6:	d069      	beq.n	80005cc <__aeabi_fdiv+0xec>
 80004f8:	eba2 0203 	sub.w	r2, r2, r3
 80004fc:	ea80 0c01 	eor.w	ip, r0, r1
 8000500:	0249      	lsls	r1, r1, #9
 8000502:	ea4f 2040 	mov.w	r0, r0, lsl #9
 8000506:	d037      	beq.n	8000578 <__aeabi_fdiv+0x98>
 8000508:	f04f 5380 	mov.w	r3, #268435456	@ 0x10000000
 800050c:	ea43 1111 	orr.w	r1, r3, r1, lsr #4
 8000510:	ea43 1310 	orr.w	r3, r3, r0, lsr #4
 8000514:	f00c 4000 	and.w	r0, ip, #2147483648	@ 0x80000000
 8000518:	428b      	cmp	r3, r1
 800051a:	bf38      	it	cc
 800051c:	005b      	lslcc	r3, r3, #1
 800051e:	f142 027d 	adc.w	r2, r2, #125	@ 0x7d
 8000522:	f44f 0c00 	mov.w	ip, #8388608	@ 0x800000
 8000526:	428b      	cmp	r3, r1
 8000528:	bf24      	itt	cs
 800052a:	1a5b      	subcs	r3, r3, r1
 800052c:	ea40 000c 	orrcs.w	r0, r0, ip
 8000530:	ebb3 0f51 	cmp.w	r3, r1, lsr #1
 8000534:	bf24      	itt	cs
 8000536:	eba3 0351 	subcs.w	r3, r3, r1, lsr #1
 800053a:	ea40 005c 	orrcs.w	r0, r0, ip, lsr #1
 800053e:	ebb3 0f91 	cmp.w	r3, r1, lsr #2
 8000542:	bf24      	itt	cs
 8000544:	eba3 0391 	subcs.w	r3, r3, r1, lsr #2
 8000548:	ea40 009c 	orrcs.w	r0, r0, ip, lsr #2
 800054c:	ebb3 0fd1 	cmp.w	r3, r1, lsr #3
 8000550:	bf24      	itt	cs
 8000552:	eba3 03d1 	subcs.w	r3, r3, r1, lsr #3
 8000556:	ea40 00dc 	orrcs.w	r0, r0, ip, lsr #3
 800055a:	011b      	lsls	r3, r3, #4
 800055c:	bf18      	it	ne
 800055e:	ea5f 1c1c 	movsne.w	ip, ip, lsr #4
 8000562:	d1e0      	bne.n	8000526 <__aeabi_fdiv+0x46>
 8000564:	2afd      	cmp	r2, #253	@ 0xfd
 8000566:	f63f af50 	bhi.w	800040a <__aeabi_fmul+0x92>
 800056a:	428b      	cmp	r3, r1
 800056c:	eb40 50c2 	adc.w	r0, r0, r2, lsl #23
 8000570:	bf08      	it	eq
 8000572:	f020 0001 	biceq.w	r0, r0, #1
 8000576:	4770      	bx	lr
 8000578:	f00c 4c00 	and.w	ip, ip, #2147483648	@ 0x80000000
 800057c:	ea4c 2050 	orr.w	r0, ip, r0, lsr #9
 8000580:	327f      	adds	r2, #127	@ 0x7f
 8000582:	bfc2      	ittt	gt
 8000584:	f1d2 03ff 	rsbsgt	r3, r2, #255	@ 0xff
 8000588:	ea40 50c2 	orrgt.w	r0, r0, r2, lsl #23
 800058c:	4770      	bxgt	lr
 800058e:	f440 0000 	orr.w	r0, r0, #8388608	@ 0x800000
 8000592:	f04f 0300 	mov.w	r3, #0
 8000596:	3a01      	subs	r2, #1
 8000598:	e737      	b.n	800040a <__aeabi_fmul+0x92>
 800059a:	f092 0f00 	teq	r2, #0
 800059e:	f000 4c00 	and.w	ip, r0, #2147483648	@ 0x80000000
 80005a2:	bf02      	ittt	eq
 80005a4:	0040      	lsleq	r0, r0, #1
 80005a6:	f410 0f00 	tsteq.w	r0, #8388608	@ 0x800000
 80005aa:	3a01      	subeq	r2, #1
 80005ac:	d0f9      	beq.n	80005a2 <__aeabi_fdiv+0xc2>
 80005ae:	ea40 000c 	orr.w	r0, r0, ip
 80005b2:	f093 0f00 	teq	r3, #0
 80005b6:	f001 4c00 	and.w	ip, r1, #2147483648	@ 0x80000000
 80005ba:	bf02      	ittt	eq
 80005bc:	0049      	lsleq	r1, r1, #1
 80005be:	f411 0f00 	tsteq.w	r1, #8388608	@ 0x800000
 80005c2:	3b01      	subeq	r3, #1
 80005c4:	d0f9      	beq.n	80005ba <__aeabi_fdiv+0xda>
 80005c6:	ea41 010c 	orr.w	r1, r1, ip
 80005ca:	e795      	b.n	80004f8 <__aeabi_fdiv+0x18>
 80005cc:	ea0c 53d1 	and.w	r3, ip, r1, lsr #23
 80005d0:	ea92 0f0c 	teq	r2, ip
 80005d4:	d108      	bne.n	80005e8 <__aeabi_fdiv+0x108>
 80005d6:	0242      	lsls	r2, r0, #9
 80005d8:	f47f af7d 	bne.w	80004d6 <__aeabi_fmul+0x15e>
 80005dc:	ea93 0f0c 	teq	r3, ip
 80005e0:	f47f af70 	bne.w	80004c4 <__aeabi_fmul+0x14c>
 80005e4:	4608      	mov	r0, r1
 80005e6:	e776      	b.n	80004d6 <__aeabi_fmul+0x15e>
 80005e8:	ea93 0f0c 	teq	r3, ip
 80005ec:	d104      	bne.n	80005f8 <__aeabi_fdiv+0x118>
 80005ee:	024b      	lsls	r3, r1, #9
 80005f0:	f43f af4c 	beq.w	800048c <__aeabi_fmul+0x114>
 80005f4:	4608      	mov	r0, r1
 80005f6:	e76e      	b.n	80004d6 <__aeabi_fmul+0x15e>
 80005f8:	f030 4c00 	bics.w	ip, r0, #2147483648	@ 0x80000000
 80005fc:	bf18      	it	ne
 80005fe:	f031 4c00 	bicsne.w	ip, r1, #2147483648	@ 0x80000000
 8000602:	d1ca      	bne.n	800059a <__aeabi_fdiv+0xba>
 8000604:	f030 4200 	bics.w	r2, r0, #2147483648	@ 0x80000000
 8000608:	f47f af5c 	bne.w	80004c4 <__aeabi_fmul+0x14c>
 800060c:	f031 4300 	bics.w	r3, r1, #2147483648	@ 0x80000000
 8000610:	f47f af3c 	bne.w	800048c <__aeabi_fmul+0x114>
 8000614:	e75f      	b.n	80004d6 <__aeabi_fmul+0x15e>
 8000616:	bf00      	nop

08000618 <__aeabi_f2uiz>:
 8000618:	0042      	lsls	r2, r0, #1
 800061a:	d20e      	bcs.n	800063a <__aeabi_f2uiz+0x22>
 800061c:	f1b2 4ffe 	cmp.w	r2, #2130706432	@ 0x7f000000
 8000620:	d30b      	bcc.n	800063a <__aeabi_f2uiz+0x22>
 8000622:	f04f 039e 	mov.w	r3, #158	@ 0x9e
 8000626:	ebb3 6212 	subs.w	r2, r3, r2, lsr #24
 800062a:	d409      	bmi.n	8000640 <__aeabi_f2uiz+0x28>
 800062c:	ea4f 2300 	mov.w	r3, r0, lsl #8
 8000630:	f043 4300 	orr.w	r3, r3, #2147483648	@ 0x80000000
 8000634:	fa23 f002 	lsr.w	r0, r3, r2
 8000638:	4770      	bx	lr
 800063a:	f04f 0000 	mov.w	r0, #0
 800063e:	4770      	bx	lr
 8000640:	f112 0f61 	cmn.w	r2, #97	@ 0x61
 8000644:	d101      	bne.n	800064a <__aeabi_f2uiz+0x32>
 8000646:	0242      	lsls	r2, r0, #9
 8000648:	d102      	bne.n	8000650 <__aeabi_f2uiz+0x38>
 800064a:	f04f 30ff 	mov.w	r0, #4294967295
 800064e:	4770      	bx	lr
 8000650:	f04f 0000 	mov.w	r0, #0
 8000654:	4770      	bx	lr
 8000656:	bf00      	nop

08000658 <dht20_reset>:
 8000658:	b580      	push	{r7, lr}
 800065a:	b086      	sub	sp, #24
 800065c:	af02      	add	r7, sp, #8
 800065e:	4603      	mov	r3, r0
 8000660:	71fb      	strb	r3, [r7, #7]
 8000662:	79fb      	ldrb	r3, [r7, #7]
 8000664:	733b      	strb	r3, [r7, #12]
 8000666:	2300      	movs	r3, #0
 8000668:	737b      	strb	r3, [r7, #13]
 800066a:	2300      	movs	r3, #0
 800066c:	73bb      	strb	r3, [r7, #14]
 800066e:	f107 020c 	add.w	r2, r7, #12
 8000672:	23ff      	movs	r3, #255	@ 0xff
 8000674:	9300      	str	r3, [sp, #0]
 8000676:	2303      	movs	r3, #3
 8000678:	2170      	movs	r1, #112	@ 0x70
 800067a:	4814      	ldr	r0, [pc, #80]	@ (80006cc <dht20_reset+0x74>)
 800067c:	f002 ff6a 	bl	8003554 <HAL_I2C_Master_Transmit>
 8000680:	200a      	movs	r0, #10
 8000682:	f001 fe5f 	bl	8002344 <HAL_Delay>
 8000686:	f107 0208 	add.w	r2, r7, #8
 800068a:	23ff      	movs	r3, #255	@ 0xff
 800068c:	9300      	str	r3, [sp, #0]
 800068e:	2303      	movs	r3, #3
 8000690:	2171      	movs	r1, #113	@ 0x71
 8000692:	480e      	ldr	r0, [pc, #56]	@ (80006cc <dht20_reset+0x74>)
 8000694:	f003 f85c 	bl	8003750 <HAL_I2C_Master_Receive>
 8000698:	79fb      	ldrb	r3, [r7, #7]
 800069a:	f063 034f 	orn	r3, r3, #79	@ 0x4f
 800069e:	b2db      	uxtb	r3, r3
 80006a0:	733b      	strb	r3, [r7, #12]
 80006a2:	7a7b      	ldrb	r3, [r7, #9]
 80006a4:	737b      	strb	r3, [r7, #13]
 80006a6:	7abb      	ldrb	r3, [r7, #10]
 80006a8:	73bb      	strb	r3, [r7, #14]
 80006aa:	200a      	movs	r0, #10
 80006ac:	f001 fe4a 	bl	8002344 <HAL_Delay>
 80006b0:	f107 020c 	add.w	r2, r7, #12
 80006b4:	23ff      	movs	r3, #255	@ 0xff
 80006b6:	9300      	str	r3, [sp, #0]
 80006b8:	2303      	movs	r3, #3
 80006ba:	2170      	movs	r1, #112	@ 0x70
 80006bc:	4803      	ldr	r0, [pc, #12]	@ (80006cc <dht20_reset+0x74>)
 80006be:	f002 ff49 	bl	8003554 <HAL_I2C_Master_Transmit>
 80006c2:	bf00      	nop
 80006c4:	3710      	adds	r7, #16
 80006c6:	46bd      	mov	sp, r7
 80006c8:	bd80      	pop	{r7, pc}
 80006ca:	bf00      	nop
 80006cc:	200000e4 	.word	0x200000e4

080006d0 <dht20_start>:
 80006d0:	b580      	push	{r7, lr}
 80006d2:	b084      	sub	sp, #16
 80006d4:	af02      	add	r7, sp, #8
 80006d6:	1d3a      	adds	r2, r7, #4
 80006d8:	23ff      	movs	r3, #255	@ 0xff
 80006da:	9300      	str	r3, [sp, #0]
 80006dc:	2301      	movs	r3, #1
 80006de:	2171      	movs	r1, #113	@ 0x71
 80006e0:	481b      	ldr	r0, [pc, #108]	@ (8000750 <dht20_start+0x80>)
 80006e2:	f003 f835 	bl	8003750 <HAL_I2C_Master_Receive>
 80006e6:	793b      	ldrb	r3, [r7, #4]
 80006e8:	f003 0318 	and.w	r3, r3, #24
 80006ec:	2b18      	cmp	r3, #24
 80006ee:	d00d      	beq.n	800070c <dht20_start+0x3c>
 80006f0:	201b      	movs	r0, #27
 80006f2:	f7ff ffb1 	bl	8000658 <dht20_reset>
 80006f6:	201c      	movs	r0, #28
 80006f8:	f7ff ffae 	bl	8000658 <dht20_reset>
 80006fc:	201e      	movs	r0, #30
 80006fe:	f7ff ffab 	bl	8000658 <dht20_reset>
 8000702:	2200      	movs	r2, #0
 8000704:	2102      	movs	r1, #2
 8000706:	4813      	ldr	r0, [pc, #76]	@ (8000754 <dht20_start+0x84>)
 8000708:	f002 fdc7 	bl	800329a <HAL_GPIO_WritePin>
 800070c:	793b      	ldrb	r3, [r7, #4]
 800070e:	f003 0318 	and.w	r3, r3, #24
 8000712:	2b18      	cmp	r3, #24
 8000714:	d104      	bne.n	8000720 <dht20_start+0x50>
 8000716:	2201      	movs	r2, #1
 8000718:	2102      	movs	r1, #2
 800071a:	480e      	ldr	r0, [pc, #56]	@ (8000754 <dht20_start+0x84>)
 800071c:	f002 fdbd 	bl	800329a <HAL_GPIO_WritePin>
 8000720:	4a0d      	ldr	r2, [pc, #52]	@ (8000758 <dht20_start+0x88>)
 8000722:	463b      	mov	r3, r7
 8000724:	6812      	ldr	r2, [r2, #0]
 8000726:	4611      	mov	r1, r2
 8000728:	8019      	strh	r1, [r3, #0]
 800072a:	3302      	adds	r3, #2
 800072c:	0c12      	lsrs	r2, r2, #16
 800072e:	701a      	strb	r2, [r3, #0]
 8000730:	463a      	mov	r2, r7
 8000732:	23ff      	movs	r3, #255	@ 0xff
 8000734:	9300      	str	r3, [sp, #0]
 8000736:	2303      	movs	r3, #3
 8000738:	2170      	movs	r1, #112	@ 0x70
 800073a:	4805      	ldr	r0, [pc, #20]	@ (8000750 <dht20_start+0x80>)
 800073c:	f002 ff0a 	bl	8003554 <HAL_I2C_Master_Transmit>
 8000740:	2050      	movs	r0, #80	@ 0x50
 8000742:	f001 fdff 	bl	8002344 <HAL_Delay>
 8000746:	bf00      	nop
 8000748:	3708      	adds	r7, #8
 800074a:	46bd      	mov	sp, r7
 800074c:	bd80      	pop	{r7, pc}
 800074e:	bf00      	nop
 8000750:	200000e4 	.word	0x200000e4
 8000754:	40010800 	.word	0x40010800
 8000758:	08006f20 	.word	0x08006f20

0800075c <dht20_read>:
 800075c:	b580      	push	{r7, lr}
 800075e:	b088      	sub	sp, #32
 8000760:	af02      	add	r7, sp, #8
 8000762:	6078      	str	r0, [r7, #4]
 8000764:	f7ff ffb4 	bl	80006d0 <dht20_start>
 8000768:	2300      	movs	r3, #0
 800076a:	617b      	str	r3, [r7, #20]
 800076c:	2300      	movs	r3, #0
 800076e:	613b      	str	r3, [r7, #16]
 8000770:	f107 0208 	add.w	r2, r7, #8
 8000774:	23ff      	movs	r3, #255	@ 0xff
 8000776:	9300      	str	r3, [sp, #0]
 8000778:	2307      	movs	r3, #7
 800077a:	2171      	movs	r1, #113	@ 0x71
 800077c:	4824      	ldr	r0, [pc, #144]	@ (8000810 <dht20_read+0xb4>)
 800077e:	f002 ffe7 	bl	8003750 <HAL_I2C_Master_Receive>
 8000782:	7a7b      	ldrb	r3, [r7, #9]
 8000784:	461a      	mov	r2, r3
 8000786:	693b      	ldr	r3, [r7, #16]
 8000788:	4313      	orrs	r3, r2
 800078a:	021b      	lsls	r3, r3, #8
 800078c:	613b      	str	r3, [r7, #16]
 800078e:	7abb      	ldrb	r3, [r7, #10]
 8000790:	461a      	mov	r2, r3
 8000792:	693b      	ldr	r3, [r7, #16]
 8000794:	4313      	orrs	r3, r2
 8000796:	021b      	lsls	r3, r3, #8
 8000798:	613b      	str	r3, [r7, #16]
 800079a:	7afb      	ldrb	r3, [r7, #11]
 800079c:	461a      	mov	r2, r3
 800079e:	693b      	ldr	r3, [r7, #16]
 80007a0:	4313      	orrs	r3, r2
 80007a2:	613b      	str	r3, [r7, #16]
 80007a4:	693b      	ldr	r3, [r7, #16]
 80007a6:	091b      	lsrs	r3, r3, #4
 80007a8:	613b      	str	r3, [r7, #16]
 80007aa:	693b      	ldr	r3, [r7, #16]
 80007ac:	f44f 727a 	mov.w	r2, #1000	@ 0x3e8
 80007b0:	fb02 f303 	mul.w	r3, r2, r3
 80007b4:	0d1b      	lsrs	r3, r3, #20
 80007b6:	613b      	str	r3, [r7, #16]
 80007b8:	693b      	ldr	r3, [r7, #16]
 80007ba:	b29a      	uxth	r2, r3
 80007bc:	687b      	ldr	r3, [r7, #4]
 80007be:	801a      	strh	r2, [r3, #0]
 80007c0:	7afb      	ldrb	r3, [r7, #11]
 80007c2:	461a      	mov	r2, r3
 80007c4:	697b      	ldr	r3, [r7, #20]
 80007c6:	4313      	orrs	r3, r2
 80007c8:	021b      	lsls	r3, r3, #8
 80007ca:	617b      	str	r3, [r7, #20]
 80007cc:	7b3b      	ldrb	r3, [r7, #12]
 80007ce:	461a      	mov	r2, r3
 80007d0:	697b      	ldr	r3, [r7, #20]
 80007d2:	4313      	orrs	r3, r2
 80007d4:	021b      	lsls	r3, r3, #8
 80007d6:	617b      	str	r3, [r7, #20]
 80007d8:	7b7b      	ldrb	r3, [r7, #13]
 80007da:	461a      	mov	r2, r3
 80007dc:	697b      	ldr	r3, [r7, #20]
 80007de:	4313      	orrs	r3, r2
 80007e0:	617b      	str	r3, [r7, #20]
 80007e2:	697b      	ldr	r3, [r7, #20]
 80007e4:	f3c3 0313 	ubfx	r3, r3, #0, #20
 80007e8:	617b      	str	r3, [r7, #20]
 80007ea:	697b      	ldr	r3, [r7, #20]
 80007ec:	f44f 62fa 	mov.w	r2, #2000	@ 0x7d0
 80007f0:	fb02 f303 	mul.w	r3, r2, r3
 80007f4:	0d1b      	lsrs	r3, r3, #20
 80007f6:	f5a3 73fa 	sub.w	r3, r3, #500	@ 0x1f4
 80007fa:	617b      	str	r3, [r7, #20]
 80007fc:	687b      	ldr	r3, [r7, #4]
 80007fe:	3302      	adds	r3, #2
 8000800:	697a      	ldr	r2, [r7, #20]
 8000802:	b292      	uxth	r2, r2
 8000804:	801a      	strh	r2, [r3, #0]
 8000806:	bf00      	nop
 8000808:	3718      	adds	r7, #24
 800080a:	46bd      	mov	sp, r7
 800080c:	bd80      	pop	{r7, pc}
 800080e:	bf00      	nop
 8000810:	200000e4 	.word	0x200000e4

08000814 <get_dht20_values>:
 8000814:	b590      	push	{r4, r7, lr}
 8000816:	b083      	sub	sp, #12
 8000818:	af00      	add	r7, sp, #0
 800081a:	6078      	str	r0, [r7, #4]
 800081c:	6039      	str	r1, [r7, #0]
 800081e:	4b2e      	ldr	r3, [pc, #184]	@ (80008d8 <get_dht20_values+0xc4>)
 8000820:	885b      	ldrh	r3, [r3, #2]
 8000822:	4a2e      	ldr	r2, [pc, #184]	@ (80008dc <get_dht20_values+0xc8>)
 8000824:	fba2 2303 	umull	r2, r3, r2, r3
 8000828:	08db      	lsrs	r3, r3, #3
 800082a:	b29b      	uxth	r3, r3
 800082c:	4618      	mov	r0, r3
 800082e:	f7ff fd4f 	bl	80002d0 <__aeabi_i2f>
 8000832:	4604      	mov	r4, r0
 8000834:	4b28      	ldr	r3, [pc, #160]	@ (80008d8 <get_dht20_values+0xc4>)
 8000836:	885a      	ldrh	r2, [r3, #2]
 8000838:	4b28      	ldr	r3, [pc, #160]	@ (80008dc <get_dht20_values+0xc8>)
 800083a:	fba3 1302 	umull	r1, r3, r3, r2
 800083e:	08d9      	lsrs	r1, r3, #3
 8000840:	460b      	mov	r3, r1
 8000842:	009b      	lsls	r3, r3, #2
 8000844:	440b      	add	r3, r1
 8000846:	005b      	lsls	r3, r3, #1
 8000848:	1ad3      	subs	r3, r2, r3
 800084a:	b29b      	uxth	r3, r3
 800084c:	4618      	mov	r0, r3
 800084e:	f7ff fd3f 	bl	80002d0 <__aeabi_i2f>
 8000852:	4603      	mov	r3, r0
 8000854:	4922      	ldr	r1, [pc, #136]	@ (80008e0 <get_dht20_values+0xcc>)
 8000856:	4618      	mov	r0, r3
 8000858:	f7ff fe42 	bl	80004e0 <__aeabi_fdiv>
 800085c:	4603      	mov	r3, r0
 800085e:	4619      	mov	r1, r3
 8000860:	4620      	mov	r0, r4
 8000862:	f7ff fc81 	bl	8000168 <__addsf3>
 8000866:	4603      	mov	r3, r0
 8000868:	4618      	mov	r0, r3
 800086a:	f7ff fed5 	bl	8000618 <__aeabi_f2uiz>
 800086e:	4603      	mov	r3, r0
 8000870:	b29a      	uxth	r2, r3
 8000872:	687b      	ldr	r3, [r7, #4]
 8000874:	801a      	strh	r2, [r3, #0]
 8000876:	4b18      	ldr	r3, [pc, #96]	@ (80008d8 <get_dht20_values+0xc4>)
 8000878:	885b      	ldrh	r3, [r3, #2]
 800087a:	4a18      	ldr	r2, [pc, #96]	@ (80008dc <get_dht20_values+0xc8>)
 800087c:	fba2 2303 	umull	r2, r3, r2, r3
 8000880:	08db      	lsrs	r3, r3, #3
 8000882:	b29b      	uxth	r3, r3
 8000884:	4618      	mov	r0, r3
 8000886:	f7ff fd23 	bl	80002d0 <__aeabi_i2f>
 800088a:	4604      	mov	r4, r0
 800088c:	4b12      	ldr	r3, [pc, #72]	@ (80008d8 <get_dht20_values+0xc4>)
 800088e:	885a      	ldrh	r2, [r3, #2]
 8000890:	4b12      	ldr	r3, [pc, #72]	@ (80008dc <get_dht20_values+0xc8>)
 8000892:	fba3 1302 	umull	r1, r3, r3, r2
 8000896:	08d9      	lsrs	r1, r3, #3
 8000898:	460b      	mov	r3, r1
 800089a:	009b      	lsls	r3, r3, #2
 800089c:	440b      	add	r3, r1
 800089e:	005b      	lsls	r3, r3, #1
 80008a0:	1ad3      	subs	r3, r2, r3
 80008a2:	b29b      	uxth	r3, r3
 80008a4:	4618      	mov	r0, r3
 80008a6:	f7ff fd13 	bl	80002d0 <__aeabi_i2f>
 80008aa:	4603      	mov	r3, r0
 80008ac:	490c      	ldr	r1, [pc, #48]	@ (80008e0 <get_dht20_values+0xcc>)
 80008ae:	4618      	mov	r0, r3
 80008b0:	f7ff fe16 	bl	80004e0 <__aeabi_fdiv>
 80008b4:	4603      	mov	r3, r0
 80008b6:	4619      	mov	r1, r3
 80008b8:	4620      	mov	r0, r4
 80008ba:	f7ff fc55 	bl	8000168 <__addsf3>
 80008be:	4603      	mov	r3, r0
 80008c0:	4618      	mov	r0, r3
 80008c2:	f7ff fea9 	bl	8000618 <__aeabi_f2uiz>
 80008c6:	4603      	mov	r3, r0
 80008c8:	b29a      	uxth	r2, r3
 80008ca:	683b      	ldr	r3, [r7, #0]
 80008cc:	801a      	strh	r2, [r3, #0]
 80008ce:	bf00      	nop
 80008d0:	370c      	adds	r7, #12
 80008d2:	46bd      	mov	sp, r7
 80008d4:	bd90      	pop	{r4, r7, pc}
 80008d6:	bf00      	nop
 80008d8:	2000007c 	.word	0x2000007c
 80008dc:	cccccccd 	.word	0xcccccccd
 80008e0:	41200000 	.word	0x41200000

080008e4 <reading_fsm_run>:
 80008e4:	b580      	push	{r7, lr}
 80008e6:	b082      	sub	sp, #8
 80008e8:	af02      	add	r7, sp, #8
 80008ea:	492b      	ldr	r1, [pc, #172]	@ (8000998 <reading_fsm_run+0xb4>)
 80008ec:	482b      	ldr	r0, [pc, #172]	@ (800099c <reading_fsm_run+0xb8>)
 80008ee:	f7ff ff91 	bl	8000814 <get_dht20_values>
 80008f2:	4b2b      	ldr	r3, [pc, #172]	@ (80009a0 <reading_fsm_run+0xbc>)
 80008f4:	681b      	ldr	r3, [r3, #0]
 80008f6:	2b00      	cmp	r3, #0
 80008f8:	d002      	beq.n	8000900 <reading_fsm_run+0x1c>
 80008fa:	2b01      	cmp	r3, #1
 80008fc:	d008      	beq.n	8000910 <reading_fsm_run+0x2c>
 80008fe:	e045      	b.n	800098c <reading_fsm_run+0xa8>
 8000900:	2101      	movs	r1, #1
 8000902:	2001      	movs	r0, #1
 8000904:	f001 f886 	bl	8001a14 <timerSet>
 8000908:	4b25      	ldr	r3, [pc, #148]	@ (80009a0 <reading_fsm_run+0xbc>)
 800090a:	2201      	movs	r2, #1
 800090c:	601a      	str	r2, [r3, #0]
 800090e:	e03d      	b.n	800098c <reading_fsm_run+0xa8>
 8000910:	4b24      	ldr	r3, [pc, #144]	@ (80009a4 <reading_fsm_run+0xc0>)
 8000912:	785b      	ldrb	r3, [r3, #1]
 8000914:	2b01      	cmp	r3, #1
 8000916:	d138      	bne.n	800098a <reading_fsm_run+0xa6>
 8000918:	4823      	ldr	r0, [pc, #140]	@ (80009a8 <reading_fsm_run+0xc4>)
 800091a:	f7ff ff1f 	bl	800075c <dht20_read>
 800091e:	4b22      	ldr	r3, [pc, #136]	@ (80009a8 <reading_fsm_run+0xc4>)
 8000920:	885b      	ldrh	r3, [r3, #2]
 8000922:	4a22      	ldr	r2, [pc, #136]	@ (80009ac <reading_fsm_run+0xc8>)
 8000924:	fba2 2303 	umull	r2, r3, r2, r3
 8000928:	08db      	lsrs	r3, r3, #3
 800092a:	b29b      	uxth	r3, r3
 800092c:	4618      	mov	r0, r3
 800092e:	4b1e      	ldr	r3, [pc, #120]	@ (80009a8 <reading_fsm_run+0xc4>)
 8000930:	885a      	ldrh	r2, [r3, #2]
 8000932:	4b1e      	ldr	r3, [pc, #120]	@ (80009ac <reading_fsm_run+0xc8>)
 8000934:	fba3 1302 	umull	r1, r3, r3, r2
 8000938:	08d9      	lsrs	r1, r3, #3
 800093a:	460b      	mov	r3, r1
 800093c:	009b      	lsls	r3, r3, #2
 800093e:	440b      	add	r3, r1
 8000940:	005b      	lsls	r3, r3, #1
 8000942:	1ad3      	subs	r3, r2, r3
 8000944:	b29b      	uxth	r3, r3
 8000946:	461a      	mov	r2, r3
 8000948:	23df      	movs	r3, #223	@ 0xdf
 800094a:	9300      	str	r3, [sp, #0]
 800094c:	4613      	mov	r3, r2
 800094e:	4602      	mov	r2, r0
 8000950:	4917      	ldr	r1, [pc, #92]	@ (80009b0 <reading_fsm_run+0xcc>)
 8000952:	4818      	ldr	r0, [pc, #96]	@ (80009b4 <reading_fsm_run+0xd0>)
 8000954:	f005 fe28 	bl	80065a8 <siprintf>
 8000958:	4b13      	ldr	r3, [pc, #76]	@ (80009a8 <reading_fsm_run+0xc4>)
 800095a:	881b      	ldrh	r3, [r3, #0]
 800095c:	4a13      	ldr	r2, [pc, #76]	@ (80009ac <reading_fsm_run+0xc8>)
 800095e:	fba2 2303 	umull	r2, r3, r2, r3
 8000962:	08db      	lsrs	r3, r3, #3
 8000964:	b29b      	uxth	r3, r3
 8000966:	4618      	mov	r0, r3
 8000968:	4b0f      	ldr	r3, [pc, #60]	@ (80009a8 <reading_fsm_run+0xc4>)
 800096a:	881a      	ldrh	r2, [r3, #0]
 800096c:	4b0f      	ldr	r3, [pc, #60]	@ (80009ac <reading_fsm_run+0xc8>)
 800096e:	fba3 1302 	umull	r1, r3, r3, r2
 8000972:	08d9      	lsrs	r1, r3, #3
 8000974:	460b      	mov	r3, r1
 8000976:	009b      	lsls	r3, r3, #2
 8000978:	440b      	add	r3, r1
 800097a:	005b      	lsls	r3, r3, #1
 800097c:	1ad3      	subs	r3, r2, r3
 800097e:	b29b      	uxth	r3, r3
 8000980:	4602      	mov	r2, r0
 8000982:	490d      	ldr	r1, [pc, #52]	@ (80009b8 <reading_fsm_run+0xd4>)
 8000984:	480d      	ldr	r0, [pc, #52]	@ (80009bc <reading_fsm_run+0xd8>)
 8000986:	f005 fe0f 	bl	80065a8 <siprintf>
 800098a:	bf00      	nop
 800098c:	f000 f926 	bl	8000bdc <lcd_show_value>
 8000990:	bf00      	nop
 8000992:	46bd      	mov	sp, r7
 8000994:	bd80      	pop	{r7, pc}
 8000996:	bf00      	nop
 8000998:	200000ae 	.word	0x200000ae
 800099c:	200000ac 	.word	0x200000ac
 80009a0:	200000a8 	.word	0x200000a8
 80009a4:	20000274 	.word	0x20000274
 80009a8:	2000007c 	.word	0x2000007c
 80009ac:	cccccccd 	.word	0xcccccccd
 80009b0:	08006f24 	.word	0x08006f24
 80009b4:	20000080 	.word	0x20000080
 80009b8:	08006f38 	.word	0x08006f38
 80009bc:	20000094 	.word	0x20000094

080009c0 <notification_lights>:
 80009c0:	b580      	push	{r7, lr}
 80009c2:	af00      	add	r7, sp, #0
 80009c4:	4912      	ldr	r1, [pc, #72]	@ (8000a10 <notification_lights+0x50>)
 80009c6:	4813      	ldr	r0, [pc, #76]	@ (8000a14 <notification_lights+0x54>)
 80009c8:	f7ff ff24 	bl	8000814 <get_dht20_values>
 80009cc:	4b11      	ldr	r3, [pc, #68]	@ (8000a14 <notification_lights+0x54>)
 80009ce:	881b      	ldrh	r3, [r3, #0]
 80009d0:	2b1d      	cmp	r3, #29
 80009d2:	d911      	bls.n	80009f8 <notification_lights+0x38>
 80009d4:	f000 fc0a 	bl	80011ec <turnOn_RGB>
 80009d8:	4b0e      	ldr	r3, [pc, #56]	@ (8000a14 <notification_lights+0x54>)
 80009da:	881b      	ldrh	r3, [r3, #0]
 80009dc:	2b20      	cmp	r3, #32
 80009de:	d914      	bls.n	8000a0a <notification_lights+0x4a>
 80009e0:	2200      	movs	r2, #0
 80009e2:	f44f 6180 	mov.w	r1, #1024	@ 0x400
 80009e6:	480c      	ldr	r0, [pc, #48]	@ (8000a18 <notification_lights+0x58>)
 80009e8:	f002 fc57 	bl	800329a <HAL_GPIO_WritePin>
 80009ec:	2200      	movs	r2, #0
 80009ee:	2108      	movs	r1, #8
 80009f0:	480a      	ldr	r0, [pc, #40]	@ (8000a1c <notification_lights+0x5c>)
 80009f2:	f002 fc52 	bl	800329a <HAL_GPIO_WritePin>
 80009f6:	e008      	b.n	8000a0a <notification_lights+0x4a>
 80009f8:	4b06      	ldr	r3, [pc, #24]	@ (8000a14 <notification_lights+0x54>)
 80009fa:	881b      	ldrh	r3, [r3, #0]
 80009fc:	2b13      	cmp	r3, #19
 80009fe:	d802      	bhi.n	8000a06 <notification_lights+0x46>
 8000a00:	f000 fc06 	bl	8001210 <turnOn_RGB1>
 8000a04:	e001      	b.n	8000a0a <notification_lights+0x4a>
 8000a06:	f000 fc15 	bl	8001234 <turnOn_RGB2>
 8000a0a:	bf00      	nop
 8000a0c:	bd80      	pop	{r7, pc}
 8000a0e:	bf00      	nop
 8000a10:	200000ae 	.word	0x200000ae
 8000a14:	200000ac 	.word	0x200000ac
 8000a18:	40010800 	.word	0x40010800
 8000a1c:	40010c00 	.word	0x40010c00

08000a20 <lcd_send_cmd>:
 8000a20:	b580      	push	{r7, lr}
 8000a22:	b086      	sub	sp, #24
 8000a24:	af02      	add	r7, sp, #8
 8000a26:	4603      	mov	r3, r0
 8000a28:	71fb      	strb	r3, [r7, #7]
 8000a2a:	79fb      	ldrb	r3, [r7, #7]
 8000a2c:	f023 030f 	bic.w	r3, r3, #15
 8000a30:	73fb      	strb	r3, [r7, #15]
 8000a32:	79fb      	ldrb	r3, [r7, #7]
 8000a34:	011b      	lsls	r3, r3, #4
 8000a36:	73bb      	strb	r3, [r7, #14]
 8000a38:	7bfb      	ldrb	r3, [r7, #15]
 8000a3a:	f043 030c 	orr.w	r3, r3, #12
 8000a3e:	b2db      	uxtb	r3, r3
 8000a40:	723b      	strb	r3, [r7, #8]
 8000a42:	7bfb      	ldrb	r3, [r7, #15]
 8000a44:	f043 0308 	orr.w	r3, r3, #8
 8000a48:	b2db      	uxtb	r3, r3
 8000a4a:	727b      	strb	r3, [r7, #9]
 8000a4c:	7bbb      	ldrb	r3, [r7, #14]
 8000a4e:	f043 030c 	orr.w	r3, r3, #12
 8000a52:	b2db      	uxtb	r3, r3
 8000a54:	72bb      	strb	r3, [r7, #10]
 8000a56:	7bbb      	ldrb	r3, [r7, #14]
 8000a58:	f043 0308 	orr.w	r3, r3, #8
 8000a5c:	b2db      	uxtb	r3, r3
 8000a5e:	72fb      	strb	r3, [r7, #11]
 8000a60:	f107 0208 	add.w	r2, r7, #8
 8000a64:	2364      	movs	r3, #100	@ 0x64
 8000a66:	9300      	str	r3, [sp, #0]
 8000a68:	2304      	movs	r3, #4
 8000a6a:	2142      	movs	r1, #66	@ 0x42
 8000a6c:	4803      	ldr	r0, [pc, #12]	@ (8000a7c <lcd_send_cmd+0x5c>)
 8000a6e:	f002 fd71 	bl	8003554 <HAL_I2C_Master_Transmit>
 8000a72:	bf00      	nop
 8000a74:	3710      	adds	r7, #16
 8000a76:	46bd      	mov	sp, r7
 8000a78:	bd80      	pop	{r7, pc}
 8000a7a:	bf00      	nop
 8000a7c:	200000e4 	.word	0x200000e4

08000a80 <lcd_send_data>:
 8000a80:	b580      	push	{r7, lr}
 8000a82:	b086      	sub	sp, #24
 8000a84:	af02      	add	r7, sp, #8
 8000a86:	4603      	mov	r3, r0
 8000a88:	71fb      	strb	r3, [r7, #7]
 8000a8a:	79fb      	ldrb	r3, [r7, #7]
 8000a8c:	f023 030f 	bic.w	r3, r3, #15
 8000a90:	73fb      	strb	r3, [r7, #15]
 8000a92:	79fb      	ldrb	r3, [r7, #7]
 8000a94:	011b      	lsls	r3, r3, #4
 8000a96:	73bb      	strb	r3, [r7, #14]
 8000a98:	7bfb      	ldrb	r3, [r7, #15]
 8000a9a:	f043 030d 	orr.w	r3, r3, #13
 8000a9e:	b2db      	uxtb	r3, r3
 8000aa0:	723b      	strb	r3, [r7, #8]
 8000aa2:	7bfb      	ldrb	r3, [r7, #15]
 8000aa4:	f043 0309 	orr.w	r3, r3, #9
 8000aa8:	b2db      	uxtb	r3, r3
 8000aaa:	727b      	strb	r3, [r7, #9]
 8000aac:	7bbb      	ldrb	r3, [r7, #14]
 8000aae:	f043 030d 	orr.w	r3, r3, #13
 8000ab2:	b2db      	uxtb	r3, r3
 8000ab4:	72bb      	strb	r3, [r7, #10]
 8000ab6:	7bbb      	ldrb	r3, [r7, #14]
 8000ab8:	f043 0309 	orr.w	r3, r3, #9
 8000abc:	b2db      	uxtb	r3, r3
 8000abe:	72fb      	strb	r3, [r7, #11]
 8000ac0:	f107 0208 	add.w	r2, r7, #8
 8000ac4:	2364      	movs	r3, #100	@ 0x64
 8000ac6:	9300      	str	r3, [sp, #0]
 8000ac8:	2304      	movs	r3, #4
 8000aca:	2142      	movs	r1, #66	@ 0x42
 8000acc:	4803      	ldr	r0, [pc, #12]	@ (8000adc <lcd_send_data+0x5c>)
 8000ace:	f002 fd41 	bl	8003554 <HAL_I2C_Master_Transmit>
 8000ad2:	bf00      	nop
 8000ad4:	3710      	adds	r7, #16
 8000ad6:	46bd      	mov	sp, r7
 8000ad8:	bd80      	pop	{r7, pc}
 8000ada:	bf00      	nop
 8000adc:	200000e4 	.word	0x200000e4

08000ae0 <lcd_init>:
 8000ae0:	b580      	push	{r7, lr}
 8000ae2:	af00      	add	r7, sp, #0
 8000ae4:	2033      	movs	r0, #51	@ 0x33
 8000ae6:	f7ff ff9b 	bl	8000a20 <lcd_send_cmd>
 8000aea:	2032      	movs	r0, #50	@ 0x32
 8000aec:	f7ff ff98 	bl	8000a20 <lcd_send_cmd>
 8000af0:	2032      	movs	r0, #50	@ 0x32
 8000af2:	f001 fc27 	bl	8002344 <HAL_Delay>
 8000af6:	2028      	movs	r0, #40	@ 0x28
 8000af8:	f7ff ff92 	bl	8000a20 <lcd_send_cmd>
 8000afc:	2032      	movs	r0, #50	@ 0x32
 8000afe:	f001 fc21 	bl	8002344 <HAL_Delay>
 8000b02:	2001      	movs	r0, #1
 8000b04:	f7ff ff8c 	bl	8000a20 <lcd_send_cmd>
 8000b08:	2032      	movs	r0, #50	@ 0x32
 8000b0a:	f001 fc1b 	bl	8002344 <HAL_Delay>
 8000b0e:	2006      	movs	r0, #6
 8000b10:	f7ff ff86 	bl	8000a20 <lcd_send_cmd>
 8000b14:	2032      	movs	r0, #50	@ 0x32
 8000b16:	f001 fc15 	bl	8002344 <HAL_Delay>
 8000b1a:	200c      	movs	r0, #12
 8000b1c:	f7ff ff80 	bl	8000a20 <lcd_send_cmd>
 8000b20:	2032      	movs	r0, #50	@ 0x32
 8000b22:	f001 fc0f 	bl	8002344 <HAL_Delay>
 8000b26:	2002      	movs	r0, #2
 8000b28:	f7ff ff7a 	bl	8000a20 <lcd_send_cmd>
 8000b2c:	2032      	movs	r0, #50	@ 0x32
 8000b2e:	f001 fc09 	bl	8002344 <HAL_Delay>
 8000b32:	2080      	movs	r0, #128	@ 0x80
 8000b34:	f7ff ff74 	bl	8000a20 <lcd_send_cmd>
 8000b38:	bf00      	nop
 8000b3a:	bd80      	pop	{r7, pc}

08000b3c <lcd_send_string>:
 8000b3c:	b580      	push	{r7, lr}
 8000b3e:	b082      	sub	sp, #8
 8000b40:	af00      	add	r7, sp, #0
 8000b42:	6078      	str	r0, [r7, #4]
 8000b44:	e006      	b.n	8000b54 <lcd_send_string+0x18>
 8000b46:	687b      	ldr	r3, [r7, #4]
 8000b48:	1c5a      	adds	r2, r3, #1
 8000b4a:	607a      	str	r2, [r7, #4]
 8000b4c:	781b      	ldrb	r3, [r3, #0]
 8000b4e:	4618      	mov	r0, r3
 8000b50:	f7ff ff96 	bl	8000a80 <lcd_send_data>
 8000b54:	687b      	ldr	r3, [r7, #4]
 8000b56:	781b      	ldrb	r3, [r3, #0]
 8000b58:	2b00      	cmp	r3, #0
 8000b5a:	d1f4      	bne.n	8000b46 <lcd_send_string+0xa>
 8000b5c:	bf00      	nop
 8000b5e:	bf00      	nop
 8000b60:	3708      	adds	r7, #8
 8000b62:	46bd      	mov	sp, r7
 8000b64:	bd80      	pop	{r7, pc}

08000b66 <lcd_clear_display>:
 8000b66:	b580      	push	{r7, lr}
 8000b68:	af00      	add	r7, sp, #0
 8000b6a:	2001      	movs	r0, #1
 8000b6c:	f7ff ff58 	bl	8000a20 <lcd_send_cmd>
 8000b70:	bf00      	nop
 8000b72:	bd80      	pop	{r7, pc}

08000b74 <lcd_goto_XY>:
 8000b74:	b580      	push	{r7, lr}
 8000b76:	b084      	sub	sp, #16
 8000b78:	af00      	add	r7, sp, #0
 8000b7a:	6078      	str	r0, [r7, #4]
 8000b7c:	6039      	str	r1, [r7, #0]
 8000b7e:	687b      	ldr	r3, [r7, #4]
 8000b80:	2b00      	cmp	r3, #0
 8000b82:	d104      	bne.n	8000b8e <lcd_goto_XY+0x1a>
 8000b84:	683b      	ldr	r3, [r7, #0]
 8000b86:	b2db      	uxtb	r3, r3
 8000b88:	3b80      	subs	r3, #128	@ 0x80
 8000b8a:	73fb      	strb	r3, [r7, #15]
 8000b8c:	e003      	b.n	8000b96 <lcd_goto_XY+0x22>
 8000b8e:	683b      	ldr	r3, [r7, #0]
 8000b90:	b2db      	uxtb	r3, r3
 8000b92:	3b40      	subs	r3, #64	@ 0x40
 8000b94:	73fb      	strb	r3, [r7, #15]
 8000b96:	7bfb      	ldrb	r3, [r7, #15]
 8000b98:	4618      	mov	r0, r3
 8000b9a:	f7ff ff41 	bl	8000a20 <lcd_send_cmd>
 8000b9e:	bf00      	nop
 8000ba0:	3710      	adds	r7, #16
 8000ba2:	46bd      	mov	sp, r7
 8000ba4:	bd80      	pop	{r7, pc}
	...

08000ba8 <lcd_greeting>:
 8000ba8:	b580      	push	{r7, lr}
 8000baa:	af00      	add	r7, sp, #0
 8000bac:	f7ff ffdb 	bl	8000b66 <lcd_clear_display>
 8000bb0:	f7ff ff96 	bl	8000ae0 <lcd_init>
 8000bb4:	2100      	movs	r1, #0
 8000bb6:	2000      	movs	r0, #0
 8000bb8:	f7ff ffdc 	bl	8000b74 <lcd_goto_XY>
 8000bbc:	4805      	ldr	r0, [pc, #20]	@ (8000bd4 <lcd_greeting+0x2c>)
 8000bbe:	f7ff ffbd 	bl	8000b3c <lcd_send_string>
 8000bc2:	2100      	movs	r1, #0
 8000bc4:	2001      	movs	r0, #1
 8000bc6:	f7ff ffd5 	bl	8000b74 <lcd_goto_XY>
 8000bca:	4803      	ldr	r0, [pc, #12]	@ (8000bd8 <lcd_greeting+0x30>)
 8000bcc:	f7ff ffb6 	bl	8000b3c <lcd_send_string>
 8000bd0:	bf00      	nop
 8000bd2:	bd80      	pop	{r7, pc}
 8000bd4:	08006f4c 	.word	0x08006f4c
 8000bd8:	08006f60 	.word	0x08006f60

08000bdc <lcd_show_value>:
 8000bdc:	b580      	push	{r7, lr}
 8000bde:	af00      	add	r7, sp, #0
 8000be0:	2100      	movs	r1, #0
 8000be2:	2001      	movs	r0, #1
 8000be4:	f7ff ffc6 	bl	8000b74 <lcd_goto_XY>
 8000be8:	4805      	ldr	r0, [pc, #20]	@ (8000c00 <lcd_show_value+0x24>)
 8000bea:	f7ff ffa7 	bl	8000b3c <lcd_send_string>
 8000bee:	2100      	movs	r1, #0
 8000bf0:	2000      	movs	r0, #0
 8000bf2:	f7ff ffbf 	bl	8000b74 <lcd_goto_XY>
 8000bf6:	4803      	ldr	r0, [pc, #12]	@ (8000c04 <lcd_show_value+0x28>)
 8000bf8:	f7ff ffa0 	bl	8000b3c <lcd_send_string>
 8000bfc:	bf00      	nop
 8000bfe:	bd80      	pop	{r7, pc}
 8000c00:	20000094 	.word	0x20000094
 8000c04:	20000080 	.word	0x20000080

08000c08 <buttonPressed>:
 8000c08:	b580      	push	{r7, lr}
 8000c0a:	b084      	sub	sp, #16
 8000c0c:	af00      	add	r7, sp, #0
 8000c0e:	4603      	mov	r3, r0
 8000c10:	71fb      	strb	r3, [r7, #7]
 8000c12:	79fb      	ldrb	r3, [r7, #7]
 8000c14:	2b00      	cmp	r3, #0
 8000c16:	d11a      	bne.n	8000c4e <buttonPressed+0x46>
 8000c18:	2102      	movs	r1, #2
 8000c1a:	480f      	ldr	r0, [pc, #60]	@ (8000c58 <buttonPressed+0x50>)
 8000c1c:	f002 fb26 	bl	800326c <HAL_GPIO_ReadPin>
 8000c20:	4603      	mov	r3, r0
 8000c22:	73fb      	strb	r3, [r7, #15]
 8000c24:	79fb      	ldrb	r3, [r7, #7]
 8000c26:	4a0d      	ldr	r2, [pc, #52]	@ (8000c5c <buttonPressed+0x54>)
 8000c28:	5cd3      	ldrb	r3, [r2, r3]
 8000c2a:	7bfa      	ldrb	r2, [r7, #15]
 8000c2c:	429a      	cmp	r2, r3
 8000c2e:	d008      	beq.n	8000c42 <buttonPressed+0x3a>
 8000c30:	2032      	movs	r0, #50	@ 0x32
 8000c32:	f001 fb87 	bl	8002344 <HAL_Delay>
 8000c36:	2102      	movs	r1, #2
 8000c38:	4807      	ldr	r0, [pc, #28]	@ (8000c58 <buttonPressed+0x50>)
 8000c3a:	f002 fb17 	bl	800326c <HAL_GPIO_ReadPin>
 8000c3e:	4603      	mov	r3, r0
 8000c40:	73fb      	strb	r3, [r7, #15]
 8000c42:	79fb      	ldrb	r3, [r7, #7]
 8000c44:	4905      	ldr	r1, [pc, #20]	@ (8000c5c <buttonPressed+0x54>)
 8000c46:	7bfa      	ldrb	r2, [r7, #15]
 8000c48:	54ca      	strb	r2, [r1, r3]
 8000c4a:	7bfb      	ldrb	r3, [r7, #15]
 8000c4c:	e000      	b.n	8000c50 <buttonPressed+0x48>
 8000c4e:	2301      	movs	r3, #1
 8000c50:	4618      	mov	r0, r3
 8000c52:	3710      	adds	r7, #16
 8000c54:	46bd      	mov	sp, r7
 8000c56:	bd80      	pop	{r7, pc}
 8000c58:	40010800 	.word	0x40010800
 8000c5c:	20000000 	.word	0x20000000

08000c60 <HAL_UART_RxCpltCallback>:

/* USER CODE END PFP */

/* Private user code ---------------------------------------------------------*/
/* USER CODE BEGIN 0 */
void HAL_UART_RxCpltCallback(UART_HandleTypeDef *huart){
 8000c60:	b580      	push	{r7, lr}
 8000c62:	b082      	sub	sp, #8
 8000c64:	af00      	add	r7, sp, #0
 8000c66:	6078      	str	r0, [r7, #4]
	if (huart->Instance == USART2){
 8000c68:	687b      	ldr	r3, [r7, #4]
 8000c6a:	681b      	ldr	r3, [r3, #0]
 8000c6c:	4a14      	ldr	r2, [pc, #80]	@ (8000cc0 <HAL_UART_RxCpltCallback+0x60>)
 8000c6e:	4293      	cmp	r3, r2
 8000c70:	d122      	bne.n	8000cb8 <HAL_UART_RxCpltCallback+0x58>
		HAL_UART_Transmit(&huart2, &buffer_byte, 1, 500);
 8000c72:	f44f 73fa 	mov.w	r3, #500	@ 0x1f4
 8000c76:	2201      	movs	r2, #1
 8000c78:	4912      	ldr	r1, [pc, #72]	@ (8000cc4 <HAL_UART_RxCpltCallback+0x64>)
 8000c7a:	4813      	ldr	r0, [pc, #76]	@ (8000cc8 <HAL_UART_RxCpltCallback+0x68>)
 8000c7c:	f004 fe46 	bl	800590c <HAL_UART_Transmit>
		buffer[index_buffer] = buffer_byte;
 8000c80:	4b12      	ldr	r3, [pc, #72]	@ (8000ccc <HAL_UART_RxCpltCallback+0x6c>)
 8000c82:	781b      	ldrb	r3, [r3, #0]
 8000c84:	461a      	mov	r2, r3
 8000c86:	4b0f      	ldr	r3, [pc, #60]	@ (8000cc4 <HAL_UART_RxCpltCallback+0x64>)
 8000c88:	7819      	ldrb	r1, [r3, #0]
 8000c8a:	4b11      	ldr	r3, [pc, #68]	@ (8000cd0 <HAL_UART_RxCpltCallback+0x70>)
 8000c8c:	5499      	strb	r1, [r3, r2]
		index_buffer++;
 8000c8e:	4b0f      	ldr	r3, [pc, #60]	@ (8000ccc <HAL_UART_RxCpltCallback+0x6c>)
 8000c90:	781b      	ldrb	r3, [r3, #0]
 8000c92:	3301      	adds	r3, #1
 8000c94:	b2da      	uxtb	r2, r3
 8000c96:	4b0d      	ldr	r3, [pc, #52]	@ (8000ccc <HAL_UART_RxCpltCallback+0x6c>)
 8000c98:	701a      	strb	r2, [r3, #0]
		if (index_buffer == MAX_BUFFER_SIZE) index_buffer = 0;
 8000c9a:	4b0c      	ldr	r3, [pc, #48]	@ (8000ccc <HAL_UART_RxCpltCallback+0x6c>)
 8000c9c:	781b      	ldrb	r3, [r3, #0]
 8000c9e:	2b32      	cmp	r3, #50	@ 0x32
 8000ca0:	d102      	bne.n	8000ca8 <HAL_UART_RxCpltCallback+0x48>
 8000ca2:	4b0a      	ldr	r3, [pc, #40]	@ (8000ccc <HAL_UART_RxCpltCallback+0x6c>)
 8000ca4:	2200      	movs	r2, #0
 8000ca6:	701a      	strb	r2, [r3, #0]
		buffer_flag = 1;
 8000ca8:	4b0a      	ldr	r3, [pc, #40]	@ (8000cd4 <HAL_UART_RxCpltCallback+0x74>)
 8000caa:	2201      	movs	r2, #1
 8000cac:	701a      	strb	r2, [r3, #0]
		HAL_UART_Receive_IT(&huart2, &buffer_byte, 1);
 8000cae:	2201      	movs	r2, #1
 8000cb0:	4904      	ldr	r1, [pc, #16]	@ (8000cc4 <HAL_UART_RxCpltCallback+0x64>)
 8000cb2:	4805      	ldr	r0, [pc, #20]	@ (8000cc8 <HAL_UART_RxCpltCallback+0x68>)
 8000cb4:	f004 feb5 	bl	8005a22 <HAL_UART_Receive_IT>
	}
}
 8000cb8:	bf00      	nop
 8000cba:	3708      	adds	r7, #8
 8000cbc:	46bd      	mov	sp, r7
 8000cbe:	bd80      	pop	{r7, pc}
 8000cc0:	40004400 	.word	0x40004400
 8000cc4:	20000298 	.word	0x20000298
 8000cc8:	20000180 	.word	0x20000180
 8000ccc:	200002ce 	.word	0x200002ce
 8000cd0:	2000029c 	.word	0x2000029c
 8000cd4:	200002cf 	.word	0x200002cf

08000cd8 <main>:
/**
  * @brief  The application entry point.
  * @retval int
  */
int main(void)
{
 8000cd8:	b580      	push	{r7, lr}
 8000cda:	af00      	add	r7, sp, #0
  /* USER CODE END 1 */

  /* MCU Configuration--------------------------------------------------------*/

  /* Reset of all peripherals, Initializes the Flash interface and the Systick. */
  HAL_Init();
 8000cdc:	f001 fad0 	bl	8002280 <HAL_Init>
  /* USER CODE BEGIN Init */

  /* USER CODE END Init */

  /* Configure the system clock */
  SystemClock_Config();
 8000ce0:	f000 f84a 	bl	8000d78 <SystemClock_Config>
  /* USER CODE BEGIN SysInit */

  /* USER CODE END SysInit */

  /* Initialize all configured peripherals */
  MX_GPIO_Init();
 8000ce4:	f000 f984 	bl	8000ff0 <MX_GPIO_Init>
  MX_I2C1_Init();
 8000ce8:	f000 f8de 	bl	8000ea8 <MX_I2C1_Init>
  MX_USART2_UART_Init();
 8000cec:	f000 f956 	bl	8000f9c <MX_USART2_UART_Init>
  MX_TIM2_Init();
 8000cf0:	f000 f908 	bl	8000f04 <MX_TIM2_Init>
  MX_ADC1_Init();
 8000cf4:	f000 f89a 	bl	8000e2c <MX_ADC1_Init>
  /* USER CODE BEGIN 2 */
  HAL_TIM_Base_Start_IT(&htim2);
 8000cf8:	4817      	ldr	r0, [pc, #92]	@ (8000d58 <main+0x80>)
 8000cfa:	f004 fa15 	bl	8005128 <HAL_TIM_Base_Start_IT>

  HAL_UART_Receive_IT(&huart2, &buttonState, 1);
 8000cfe:	2201      	movs	r2, #1
 8000d00:	4916      	ldr	r1, [pc, #88]	@ (8000d5c <main+0x84>)
 8000d02:	4817      	ldr	r0, [pc, #92]	@ (8000d60 <main+0x88>)
 8000d04:	f004 fe8d 	bl	8005a22 <HAL_UART_Receive_IT>
  HAL_ADC_Start(&hadc1);
 8000d08:	4816      	ldr	r0, [pc, #88]	@ (8000d64 <main+0x8c>)
 8000d0a:	f001 fc17 	bl	800253c <HAL_ADC_Start>
  Scan_Addr(); //Scan the address of I2C device
 8000d0e:	f001 f97f 	bl	8002010 <Scan_Addr>
  /* USER CODE END 2 */

  /* Infinite loop */
  /* USER CODE BEGIN WHILE */

  lcd_greeting();
 8000d12:	f7ff ff49 	bl	8000ba8 <lcd_greeting>
  init_read();
 8000d16:	f000 fadd 	bl	80012d4 <init_read>
  fsmInit();
 8000d1a:	f000 fa19 	bl	8001150 <fsmInit>
  timerSet(300,3);
 8000d1e:	2103      	movs	r1, #3
 8000d20:	f44f 7096 	mov.w	r0, #300	@ 0x12c
 8000d24:	f000 fe76 	bl	8001a14 <timerSet>
  SCH_AddTask(notification_lights,0,100);
 8000d28:	2264      	movs	r2, #100	@ 0x64
 8000d2a:	2100      	movs	r1, #0
 8000d2c:	480e      	ldr	r0, [pc, #56]	@ (8000d68 <main+0x90>)
 8000d2e:	f000 fb9b 	bl	8001468 <SCH_AddTask>
  SCH_AddTask(commandParser,0,100);
 8000d32:	2264      	movs	r2, #100	@ 0x64
 8000d34:	2100      	movs	r1, #0
 8000d36:	480d      	ldr	r0, [pc, #52]	@ (8000d6c <main+0x94>)
 8000d38:	f000 fb96 	bl	8001468 <SCH_AddTask>
  SCH_AddTask(send_data,0,500);
 8000d3c:	f44f 72fa 	mov.w	r2, #500	@ 0x1f4
 8000d40:	2100      	movs	r1, #0
 8000d42:	480b      	ldr	r0, [pc, #44]	@ (8000d70 <main+0x98>)
 8000d44:	f000 fb90 	bl	8001468 <SCH_AddTask>
  SCH_AddTask(fsmRun,0,10);
 8000d48:	220a      	movs	r2, #10
 8000d4a:	2100      	movs	r1, #0
 8000d4c:	4809      	ldr	r0, [pc, #36]	@ (8000d74 <main+0x9c>)
 8000d4e:	f000 fb8b 	bl	8001468 <SCH_AddTask>

  while (1)
  {
	  /* USER CODE END WHILE */
	  SCH_Dispatch();
 8000d52:	f000 fb6f 	bl	8001434 <SCH_Dispatch>
 8000d56:	e7fc      	b.n	8000d52 <main+0x7a>
 8000d58:	20000138 	.word	0x20000138
 8000d5c:	200000b0 	.word	0x200000b0
 8000d60:	20000180 	.word	0x20000180
 8000d64:	200000b4 	.word	0x200000b4
 8000d68:	080009c1 	.word	0x080009c1
 8000d6c:	08002205 	.word	0x08002205
 8000d70:	080020d5 	.word	0x080020d5
 8000d74:	080011a5 	.word	0x080011a5

08000d78 <SystemClock_Config>:
/**
  * @brief System Clock Configuration
  * @retval None
  */
void SystemClock_Config(void)
{
 8000d78:	b580      	push	{r7, lr}
 8000d7a:	b094      	sub	sp, #80	@ 0x50
 8000d7c:	af00      	add	r7, sp, #0
  RCC_OscInitTypeDef RCC_OscInitStruct = {0};
 8000d7e:	f107 0328 	add.w	r3, r7, #40	@ 0x28
 8000d82:	2228      	movs	r2, #40	@ 0x28
 8000d84:	2100      	movs	r1, #0
 8000d86:	4618      	mov	r0, r3
 8000d88:	f005 fc2e 	bl	80065e8 <memset>
  RCC_ClkInitTypeDef RCC_ClkInitStruct = {0};
 8000d8c:	f107 0314 	add.w	r3, r7, #20
 8000d90:	2200      	movs	r2, #0
 8000d92:	601a      	str	r2, [r3, #0]
 8000d94:	605a      	str	r2, [r3, #4]
 8000d96:	609a      	str	r2, [r3, #8]
 8000d98:	60da      	str	r2, [r3, #12]
 8000d9a:	611a      	str	r2, [r3, #16]
  RCC_PeriphCLKInitTypeDef PeriphClkInit = {0};
 8000d9c:	1d3b      	adds	r3, r7, #4
 8000d9e:	2200      	movs	r2, #0
 8000da0:	601a      	str	r2, [r3, #0]
 8000da2:	605a      	str	r2, [r3, #4]
 8000da4:	609a      	str	r2, [r3, #8]
 8000da6:	60da      	str	r2, [r3, #12]

  /** Initializes the RCC Oscillators according to the specified parameters
  * in the RCC_OscInitTypeDef structure.
  */
  RCC_OscInitStruct.OscillatorType = RCC_OSCILLATORTYPE_HSE;
 8000da8:	2301      	movs	r3, #1
 8000daa:	62bb      	str	r3, [r7, #40]	@ 0x28
  RCC_OscInitStruct.HSEState = RCC_HSE_ON;
 8000dac:	f44f 3380 	mov.w	r3, #65536	@ 0x10000
 8000db0:	62fb      	str	r3, [r7, #44]	@ 0x2c
  RCC_OscInitStruct.HSEPredivValue = RCC_HSE_PREDIV_DIV1;
 8000db2:	2300      	movs	r3, #0
 8000db4:	633b      	str	r3, [r7, #48]	@ 0x30
  RCC_OscInitStruct.HSIState = RCC_HSI_ON;
 8000db6:	2301      	movs	r3, #1
 8000db8:	63bb      	str	r3, [r7, #56]	@ 0x38
  RCC_OscInitStruct.PLL.PLLState = RCC_PLL_ON;
 8000dba:	2302      	movs	r3, #2
 8000dbc:	647b      	str	r3, [r7, #68]	@ 0x44
  RCC_OscInitStruct.PLL.PLLSource = RCC_PLLSOURCE_HSE;
 8000dbe:	f44f 3380 	mov.w	r3, #65536	@ 0x10000
 8000dc2:	64bb      	str	r3, [r7, #72]	@ 0x48
  RCC_OscInitStruct.PLL.PLLMUL = RCC_PLL_MUL9;
 8000dc4:	f44f 13e0 	mov.w	r3, #1835008	@ 0x1c0000
 8000dc8:	64fb      	str	r3, [r7, #76]	@ 0x4c
  if (HAL_RCC_OscConfig(&RCC_OscInitStruct) != HAL_OK)
 8000dca:	f107 0328 	add.w	r3, r7, #40	@ 0x28
 8000dce:	4618      	mov	r0, r3
 8000dd0:	f003 fbde 	bl	8004590 <HAL_RCC_OscConfig>
 8000dd4:	4603      	mov	r3, r0
 8000dd6:	2b00      	cmp	r3, #0
 8000dd8:	d001      	beq.n	8000dde <SystemClock_Config+0x66>
  {
    Error_Handler();
 8000dda:	f000 f9b3 	bl	8001144 <Error_Handler>
  }

  /** Initializes the CPU, AHB and APB buses clocks
  */
  RCC_ClkInitStruct.ClockType = RCC_CLOCKTYPE_HCLK|RCC_CLOCKTYPE_SYSCLK
 8000dde:	230f      	movs	r3, #15
 8000de0:	617b      	str	r3, [r7, #20]
                              |RCC_CLOCKTYPE_PCLK1|RCC_CLOCKTYPE_PCLK2;
  RCC_ClkInitStruct.SYSCLKSource = RCC_SYSCLKSOURCE_PLLCLK;
 8000de2:	2302      	movs	r3, #2
 8000de4:	61bb      	str	r3, [r7, #24]
  RCC_ClkInitStruct.AHBCLKDivider = RCC_SYSCLK_DIV1;
 8000de6:	2300      	movs	r3, #0
 8000de8:	61fb      	str	r3, [r7, #28]
  RCC_ClkInitStruct.APB1CLKDivider = RCC_HCLK_DIV2;
 8000dea:	f44f 6380 	mov.w	r3, #1024	@ 0x400
 8000dee:	623b      	str	r3, [r7, #32]
  RCC_ClkInitStruct.APB2CLKDivider = RCC_HCLK_DIV1;
 8000df0:	2300      	movs	r3, #0
 8000df2:	627b      	str	r3, [r7, #36]	@ 0x24

  if (HAL_RCC_ClockConfig(&RCC_ClkInitStruct, FLASH_LATENCY_2) != HAL_OK)
 8000df4:	f107 0314 	add.w	r3, r7, #20
 8000df8:	2102      	movs	r1, #2
 8000dfa:	4618      	mov	r0, r3
 8000dfc:	f003 fe4a 	bl	8004a94 <HAL_RCC_ClockConfig>
 8000e00:	4603      	mov	r3, r0
 8000e02:	2b00      	cmp	r3, #0
 8000e04:	d001      	beq.n	8000e0a <SystemClock_Config+0x92>
  {
    Error_Handler();
 8000e06:	f000 f99d 	bl	8001144 <Error_Handler>
  }
  PeriphClkInit.PeriphClockSelection = RCC_PERIPHCLK_ADC;
 8000e0a:	2302      	movs	r3, #2
 8000e0c:	607b      	str	r3, [r7, #4]
  PeriphClkInit.AdcClockSelection = RCC_ADCPCLK2_DIV2;
 8000e0e:	2300      	movs	r3, #0
 8000e10:	60fb      	str	r3, [r7, #12]
  if (HAL_RCCEx_PeriphCLKConfig(&PeriphClkInit) != HAL_OK)
 8000e12:	1d3b      	adds	r3, r7, #4
 8000e14:	4618      	mov	r0, r3
 8000e16:	f003 ffcb 	bl	8004db0 <HAL_RCCEx_PeriphCLKConfig>
 8000e1a:	4603      	mov	r3, r0
 8000e1c:	2b00      	cmp	r3, #0
 8000e1e:	d001      	beq.n	8000e24 <SystemClock_Config+0xac>
  {
    Error_Handler();
 8000e20:	f000 f990 	bl	8001144 <Error_Handler>
  }
}
 8000e24:	bf00      	nop
 8000e26:	3750      	adds	r7, #80	@ 0x50
 8000e28:	46bd      	mov	sp, r7
 8000e2a:	bd80      	pop	{r7, pc}

08000e2c <MX_ADC1_Init>:
  * @brief ADC1 Initialization Function
  * @param None
  * @retval None
  */
static void MX_ADC1_Init(void)
{
 8000e2c:	b580      	push	{r7, lr}
 8000e2e:	b084      	sub	sp, #16
 8000e30:	af00      	add	r7, sp, #0

  /* USER CODE BEGIN ADC1_Init 0 */

  /* USER CODE END ADC1_Init 0 */

  ADC_ChannelConfTypeDef sConfig = {0};
 8000e32:	1d3b      	adds	r3, r7, #4
 8000e34:	2200      	movs	r2, #0
 8000e36:	601a      	str	r2, [r3, #0]
 8000e38:	605a      	str	r2, [r3, #4]
 8000e3a:	609a      	str	r2, [r3, #8]

  /* USER CODE END ADC1_Init 1 */

  /** Common config
  */
  hadc1.Instance = ADC1;
 8000e3c:	4b18      	ldr	r3, [pc, #96]	@ (8000ea0 <MX_ADC1_Init+0x74>)
 8000e3e:	4a19      	ldr	r2, [pc, #100]	@ (8000ea4 <MX_ADC1_Init+0x78>)
 8000e40:	601a      	str	r2, [r3, #0]
  hadc1.Init.ScanConvMode = ADC_SCAN_DISABLE;
 8000e42:	4b17      	ldr	r3, [pc, #92]	@ (8000ea0 <MX_ADC1_Init+0x74>)
 8000e44:	2200      	movs	r2, #0
 8000e46:	609a      	str	r2, [r3, #8]
  hadc1.Init.ContinuousConvMode = ENABLE;
 8000e48:	4b15      	ldr	r3, [pc, #84]	@ (8000ea0 <MX_ADC1_Init+0x74>)
 8000e4a:	2201      	movs	r2, #1
 8000e4c:	731a      	strb	r2, [r3, #12]
  hadc1.Init.DiscontinuousConvMode = DISABLE;
 8000e4e:	4b14      	ldr	r3, [pc, #80]	@ (8000ea0 <MX_ADC1_Init+0x74>)
 8000e50:	2200      	movs	r2, #0
 8000e52:	751a      	strb	r2, [r3, #20]
  hadc1.Init.ExternalTrigConv = ADC_SOFTWARE_START;
 8000e54:	4b12      	ldr	r3, [pc, #72]	@ (8000ea0 <MX_ADC1_Init+0x74>)
 8000e56:	f44f 2260 	mov.w	r2, #917504	@ 0xe0000
 8000e5a:	61da      	str	r2, [r3, #28]
  hadc1.Init.DataAlign = ADC_DATAALIGN_RIGHT;
 8000e5c:	4b10      	ldr	r3, [pc, #64]	@ (8000ea0 <MX_ADC1_Init+0x74>)
 8000e5e:	2200      	movs	r2, #0
 8000e60:	605a      	str	r2, [r3, #4]
  hadc1.Init.NbrOfConversion = 1;
 8000e62:	4b0f      	ldr	r3, [pc, #60]	@ (8000ea0 <MX_ADC1_Init+0x74>)
 8000e64:	2201      	movs	r2, #1
 8000e66:	611a      	str	r2, [r3, #16]
  if (HAL_ADC_Init(&hadc1) != HAL_OK)
 8000e68:	480d      	ldr	r0, [pc, #52]	@ (8000ea0 <MX_ADC1_Init+0x74>)
 8000e6a:	f001 fa8f 	bl	800238c <HAL_ADC_Init>
 8000e6e:	4603      	mov	r3, r0
 8000e70:	2b00      	cmp	r3, #0
 8000e72:	d001      	beq.n	8000e78 <MX_ADC1_Init+0x4c>
  {
    Error_Handler();
 8000e74:	f000 f966 	bl	8001144 <Error_Handler>
  }

  /** Configure Regular Channel
  */
  sConfig.Channel = ADC_CHANNEL_0;
 8000e78:	2300      	movs	r3, #0
 8000e7a:	607b      	str	r3, [r7, #4]
  sConfig.Rank = ADC_REGULAR_RANK_1;
 8000e7c:	2301      	movs	r3, #1
 8000e7e:	60bb      	str	r3, [r7, #8]
  sConfig.SamplingTime = ADC_SAMPLETIME_1CYCLE_5;
 8000e80:	2300      	movs	r3, #0
 8000e82:	60fb      	str	r3, [r7, #12]
  if (HAL_ADC_ConfigChannel(&hadc1, &sConfig) != HAL_OK)
 8000e84:	1d3b      	adds	r3, r7, #4
 8000e86:	4619      	mov	r1, r3
 8000e88:	4805      	ldr	r0, [pc, #20]	@ (8000ea0 <MX_ADC1_Init+0x74>)
 8000e8a:	f001 fd17 	bl	80028bc <HAL_ADC_ConfigChannel>
 8000e8e:	4603      	mov	r3, r0
 8000e90:	2b00      	cmp	r3, #0
 8000e92:	d001      	beq.n	8000e98 <MX_ADC1_Init+0x6c>
  {
    Error_Handler();
 8000e94:	f000 f956 	bl	8001144 <Error_Handler>
  }
  /* USER CODE BEGIN ADC1_Init 2 */

  /* USER CODE END ADC1_Init 2 */

}
 8000e98:	bf00      	nop
 8000e9a:	3710      	adds	r7, #16
 8000e9c:	46bd      	mov	sp, r7
 8000e9e:	bd80      	pop	{r7, pc}
 8000ea0:	200000b4 	.word	0x200000b4
 8000ea4:	40012400 	.word	0x40012400

08000ea8 <MX_I2C1_Init>:
  * @brief I2C1 Initialization Function
  * @param None
  * @retval None
  */
static void MX_I2C1_Init(void)
{
 8000ea8:	b580      	push	{r7, lr}
 8000eaa:	af00      	add	r7, sp, #0
  /* USER CODE END I2C1_Init 0 */

  /* USER CODE BEGIN I2C1_Init 1 */

  /* USER CODE END I2C1_Init 1 */
  hi2c1.Instance = I2C1;
 8000eac:	4b12      	ldr	r3, [pc, #72]	@ (8000ef8 <MX_I2C1_Init+0x50>)
 8000eae:	4a13      	ldr	r2, [pc, #76]	@ (8000efc <MX_I2C1_Init+0x54>)
 8000eb0:	601a      	str	r2, [r3, #0]
  hi2c1.Init.ClockSpeed = 100000;
 8000eb2:	4b11      	ldr	r3, [pc, #68]	@ (8000ef8 <MX_I2C1_Init+0x50>)
 8000eb4:	4a12      	ldr	r2, [pc, #72]	@ (8000f00 <MX_I2C1_Init+0x58>)
 8000eb6:	605a      	str	r2, [r3, #4]
  hi2c1.Init.DutyCycle = I2C_DUTYCYCLE_2;
 8000eb8:	4b0f      	ldr	r3, [pc, #60]	@ (8000ef8 <MX_I2C1_Init+0x50>)
 8000eba:	2200      	movs	r2, #0
 8000ebc:	609a      	str	r2, [r3, #8]
  hi2c1.Init.OwnAddress1 = 0;
 8000ebe:	4b0e      	ldr	r3, [pc, #56]	@ (8000ef8 <MX_I2C1_Init+0x50>)
 8000ec0:	2200      	movs	r2, #0
 8000ec2:	60da      	str	r2, [r3, #12]
  hi2c1.Init.AddressingMode = I2C_ADDRESSINGMODE_7BIT;
 8000ec4:	4b0c      	ldr	r3, [pc, #48]	@ (8000ef8 <MX_I2C1_Init+0x50>)
 8000ec6:	f44f 4280 	mov.w	r2, #16384	@ 0x4000
 8000eca:	611a      	str	r2, [r3, #16]
  hi2c1.Init.DualAddressMode = I2C_DUALADDRESS_DISABLE;
 8000ecc:	4b0a      	ldr	r3, [pc, #40]	@ (8000ef8 <MX_I2C1_Init+0x50>)
 8000ece:	2200      	movs	r2, #0
 8000ed0:	615a      	str	r2, [r3, #20]
  hi2c1.Init.OwnAddress2 = 0;
 8000ed2:	4b09      	ldr	r3, [pc, #36]	@ (8000ef8 <MX_I2C1_Init+0x50>)
 8000ed4:	2200      	movs	r2, #0
 8000ed6:	619a      	str	r2, [r3, #24]
  hi2c1.Init.GeneralCallMode = I2C_GENERALCALL_DISABLE;
 8000ed8:	4b07      	ldr	r3, [pc, #28]	@ (8000ef8 <MX_I2C1_Init+0x50>)
 8000eda:	2200      	movs	r2, #0
 8000edc:	61da      	str	r2, [r3, #28]
  hi2c1.Init.NoStretchMode = I2C_NOSTRETCH_DISABLE;
 8000ede:	4b06      	ldr	r3, [pc, #24]	@ (8000ef8 <MX_I2C1_Init+0x50>)
 8000ee0:	2200      	movs	r2, #0
 8000ee2:	621a      	str	r2, [r3, #32]
  if (HAL_I2C_Init(&hi2c1) != HAL_OK)
 8000ee4:	4804      	ldr	r0, [pc, #16]	@ (8000ef8 <MX_I2C1_Init+0x50>)
 8000ee6:	f002 f9f1 	bl	80032cc <HAL_I2C_Init>
 8000eea:	4603      	mov	r3, r0
 8000eec:	2b00      	cmp	r3, #0
 8000eee:	d001      	beq.n	8000ef4 <MX_I2C1_Init+0x4c>
  {
    Error_Handler();
 8000ef0:	f000 f928 	bl	8001144 <Error_Handler>
  }
  /* USER CODE BEGIN I2C1_Init 2 */

  /* USER CODE END I2C1_Init 2 */

}
 8000ef4:	bf00      	nop
 8000ef6:	bd80      	pop	{r7, pc}
 8000ef8:	200000e4 	.word	0x200000e4
 8000efc:	40005400 	.word	0x40005400
 8000f00:	000186a0 	.word	0x000186a0

08000f04 <MX_TIM2_Init>:
  * @brief TIM2 Initialization Function
  * @param None
  * @retval None
  */
static void MX_TIM2_Init(void)
{
 8000f04:	b580      	push	{r7, lr}
 8000f06:	b086      	sub	sp, #24
 8000f08:	af00      	add	r7, sp, #0

  /* USER CODE BEGIN TIM2_Init 0 */

  /* USER CODE END TIM2_Init 0 */

  TIM_ClockConfigTypeDef sClockSourceConfig = {0};
 8000f0a:	f107 0308 	add.w	r3, r7, #8
 8000f0e:	2200      	movs	r2, #0
 8000f10:	601a      	str	r2, [r3, #0]
 8000f12:	605a      	str	r2, [r3, #4]
 8000f14:	609a      	str	r2, [r3, #8]
 8000f16:	60da      	str	r2, [r3, #12]
  TIM_MasterConfigTypeDef sMasterConfig = {0};
 8000f18:	463b      	mov	r3, r7
 8000f1a:	2200      	movs	r2, #0
 8000f1c:	601a      	str	r2, [r3, #0]
 8000f1e:	605a      	str	r2, [r3, #4]

  /* USER CODE BEGIN TIM2_Init 1 */

  /* USER CODE END TIM2_Init 1 */
  htim2.Instance = TIM2;
 8000f20:	4b1d      	ldr	r3, [pc, #116]	@ (8000f98 <MX_TIM2_Init+0x94>)
 8000f22:	f04f 4280 	mov.w	r2, #1073741824	@ 0x40000000
 8000f26:	601a      	str	r2, [r3, #0]
  htim2.Init.Prescaler = 7199;
 8000f28:	4b1b      	ldr	r3, [pc, #108]	@ (8000f98 <MX_TIM2_Init+0x94>)
 8000f2a:	f641 421f 	movw	r2, #7199	@ 0x1c1f
 8000f2e:	605a      	str	r2, [r3, #4]
  htim2.Init.CounterMode = TIM_COUNTERMODE_UP;
 8000f30:	4b19      	ldr	r3, [pc, #100]	@ (8000f98 <MX_TIM2_Init+0x94>)
 8000f32:	2200      	movs	r2, #0
 8000f34:	609a      	str	r2, [r3, #8]
  htim2.Init.Period = 99;
 8000f36:	4b18      	ldr	r3, [pc, #96]	@ (8000f98 <MX_TIM2_Init+0x94>)
 8000f38:	2263      	movs	r2, #99	@ 0x63
 8000f3a:	60da      	str	r2, [r3, #12]
  htim2.Init.ClockDivision = TIM_CLOCKDIVISION_DIV1;
 8000f3c:	4b16      	ldr	r3, [pc, #88]	@ (8000f98 <MX_TIM2_Init+0x94>)
 8000f3e:	2200      	movs	r2, #0
 8000f40:	611a      	str	r2, [r3, #16]
  htim2.Init.AutoReloadPreload = TIM_AUTORELOAD_PRELOAD_DISABLE;
 8000f42:	4b15      	ldr	r3, [pc, #84]	@ (8000f98 <MX_TIM2_Init+0x94>)
 8000f44:	2200      	movs	r2, #0
 8000f46:	619a      	str	r2, [r3, #24]
  if (HAL_TIM_Base_Init(&htim2) != HAL_OK)
 8000f48:	4813      	ldr	r0, [pc, #76]	@ (8000f98 <MX_TIM2_Init+0x94>)
 8000f4a:	f004 f89d 	bl	8005088 <HAL_TIM_Base_Init>
 8000f4e:	4603      	mov	r3, r0
 8000f50:	2b00      	cmp	r3, #0
 8000f52:	d001      	beq.n	8000f58 <MX_TIM2_Init+0x54>
  {
    Error_Handler();
 8000f54:	f000 f8f6 	bl	8001144 <Error_Handler>
  }
  sClockSourceConfig.ClockSource = TIM_CLOCKSOURCE_INTERNAL;
 8000f58:	f44f 5380 	mov.w	r3, #4096	@ 0x1000
 8000f5c:	60bb      	str	r3, [r7, #8]
  if (HAL_TIM_ConfigClockSource(&htim2, &sClockSourceConfig) != HAL_OK)
 8000f5e:	f107 0308 	add.w	r3, r7, #8
 8000f62:	4619      	mov	r1, r3
 8000f64:	480c      	ldr	r0, [pc, #48]	@ (8000f98 <MX_TIM2_Init+0x94>)
 8000f66:	f004 fa21 	bl	80053ac <HAL_TIM_ConfigClockSource>
 8000f6a:	4603      	mov	r3, r0
 8000f6c:	2b00      	cmp	r3, #0
 8000f6e:	d001      	beq.n	8000f74 <MX_TIM2_Init+0x70>
  {
    Error_Handler();
 8000f70:	f000 f8e8 	bl	8001144 <Error_Handler>
  }
  sMasterConfig.MasterOutputTrigger = TIM_TRGO_RESET;
 8000f74:	2300      	movs	r3, #0
 8000f76:	603b      	str	r3, [r7, #0]
  sMasterConfig.MasterSlaveMode = TIM_MASTERSLAVEMODE_DISABLE;
 8000f78:	2300      	movs	r3, #0
 8000f7a:	607b      	str	r3, [r7, #4]
  if (HAL_TIMEx_MasterConfigSynchronization(&htim2, &sMasterConfig) != HAL_OK)
 8000f7c:	463b      	mov	r3, r7
 8000f7e:	4619      	mov	r1, r3
 8000f80:	4805      	ldr	r0, [pc, #20]	@ (8000f98 <MX_TIM2_Init+0x94>)
 8000f82:	f004 fc03 	bl	800578c <HAL_TIMEx_MasterConfigSynchronization>
 8000f86:	4603      	mov	r3, r0
 8000f88:	2b00      	cmp	r3, #0
 8000f8a:	d001      	beq.n	8000f90 <MX_TIM2_Init+0x8c>
  {
    Error_Handler();
 8000f8c:	f000 f8da 	bl	8001144 <Error_Handler>
  }
  /* USER CODE BEGIN TIM2_Init 2 */

  /* USER CODE END TIM2_Init 2 */

}
 8000f90:	bf00      	nop
 8000f92:	3718      	adds	r7, #24
 8000f94:	46bd      	mov	sp, r7
 8000f96:	bd80      	pop	{r7, pc}
 8000f98:	20000138 	.word	0x20000138

08000f9c <MX_USART2_UART_Init>:
  * @brief USART2 Initialization Function
  * @param None
  * @retval None
  */
static void MX_USART2_UART_Init(void)
{
 8000f9c:	b580      	push	{r7, lr}
 8000f9e:	af00      	add	r7, sp, #0
  /* USER CODE END USART2_Init 0 */

  /* USER CODE BEGIN USART2_Init 1 */

  /* USER CODE END USART2_Init 1 */
  huart2.Instance = USART2;
 8000fa0:	4b11      	ldr	r3, [pc, #68]	@ (8000fe8 <MX_USART2_UART_Init+0x4c>)
 8000fa2:	4a12      	ldr	r2, [pc, #72]	@ (8000fec <MX_USART2_UART_Init+0x50>)
 8000fa4:	601a      	str	r2, [r3, #0]
  huart2.Init.BaudRate = 9600;
 8000fa6:	4b10      	ldr	r3, [pc, #64]	@ (8000fe8 <MX_USART2_UART_Init+0x4c>)
 8000fa8:	f44f 5216 	mov.w	r2, #9600	@ 0x2580
 8000fac:	605a      	str	r2, [r3, #4]
  huart2.Init.WordLength = UART_WORDLENGTH_8B;
 8000fae:	4b0e      	ldr	r3, [pc, #56]	@ (8000fe8 <MX_USART2_UART_Init+0x4c>)
 8000fb0:	2200      	movs	r2, #0
 8000fb2:	609a      	str	r2, [r3, #8]
  huart2.Init.StopBits = UART_STOPBITS_1;
 8000fb4:	4b0c      	ldr	r3, [pc, #48]	@ (8000fe8 <MX_USART2_UART_Init+0x4c>)
 8000fb6:	2200      	movs	r2, #0
 8000fb8:	60da      	str	r2, [r3, #12]
  huart2.Init.Parity = UART_PARITY_NONE;
 8000fba:	4b0b      	ldr	r3, [pc, #44]	@ (8000fe8 <MX_USART2_UART_Init+0x4c>)
 8000fbc:	2200      	movs	r2, #0
 8000fbe:	611a      	str	r2, [r3, #16]
  huart2.Init.Mode = UART_MODE_TX_RX;
 8000fc0:	4b09      	ldr	r3, [pc, #36]	@ (8000fe8 <MX_USART2_UART_Init+0x4c>)
 8000fc2:	220c      	movs	r2, #12
 8000fc4:	615a      	str	r2, [r3, #20]
  huart2.Init.HwFlowCtl = UART_HWCONTROL_NONE;
 8000fc6:	4b08      	ldr	r3, [pc, #32]	@ (8000fe8 <MX_USART2_UART_Init+0x4c>)
 8000fc8:	2200      	movs	r2, #0
 8000fca:	619a      	str	r2, [r3, #24]
  huart2.Init.OverSampling = UART_OVERSAMPLING_16;
 8000fcc:	4b06      	ldr	r3, [pc, #24]	@ (8000fe8 <MX_USART2_UART_Init+0x4c>)
 8000fce:	2200      	movs	r2, #0
 8000fd0:	61da      	str	r2, [r3, #28]
  if (HAL_UART_Init(&huart2) != HAL_OK)
 8000fd2:	4805      	ldr	r0, [pc, #20]	@ (8000fe8 <MX_USART2_UART_Init+0x4c>)
 8000fd4:	f004 fc4a 	bl	800586c <HAL_UART_Init>
 8000fd8:	4603      	mov	r3, r0
 8000fda:	2b00      	cmp	r3, #0
 8000fdc:	d001      	beq.n	8000fe2 <MX_USART2_UART_Init+0x46>
  {
    Error_Handler();
 8000fde:	f000 f8b1 	bl	8001144 <Error_Handler>
  }
  /* USER CODE BEGIN USART2_Init 2 */

  /* USER CODE END USART2_Init 2 */

}
 8000fe2:	bf00      	nop
 8000fe4:	bd80      	pop	{r7, pc}
 8000fe6:	bf00      	nop
 8000fe8:	20000180 	.word	0x20000180
 8000fec:	40004400 	.word	0x40004400

08000ff0 <MX_GPIO_Init>:
  * @brief GPIO Initialization Function
  * @param None
  * @retval None
  */
static void MX_GPIO_Init(void)
{
 8000ff0:	b580      	push	{r7, lr}
 8000ff2:	b088      	sub	sp, #32
 8000ff4:	af00      	add	r7, sp, #0
  GPIO_InitTypeDef GPIO_InitStruct = {0};
 8000ff6:	f107 0310 	add.w	r3, r7, #16
 8000ffa:	2200      	movs	r2, #0
 8000ffc:	601a      	str	r2, [r3, #0]
 8000ffe:	605a      	str	r2, [r3, #4]
 8001000:	609a      	str	r2, [r3, #8]
 8001002:	60da      	str	r2, [r3, #12]
/* USER CODE BEGIN MX_GPIO_Init_1 */
/* USER CODE END MX_GPIO_Init_1 */

  /* GPIO Ports Clock Enable */
  __HAL_RCC_GPIOD_CLK_ENABLE();
 8001004:	4b45      	ldr	r3, [pc, #276]	@ (800111c <MX_GPIO_Init+0x12c>)
 8001006:	699b      	ldr	r3, [r3, #24]
 8001008:	4a44      	ldr	r2, [pc, #272]	@ (800111c <MX_GPIO_Init+0x12c>)
 800100a:	f043 0320 	orr.w	r3, r3, #32
 800100e:	6193      	str	r3, [r2, #24]
 8001010:	4b42      	ldr	r3, [pc, #264]	@ (800111c <MX_GPIO_Init+0x12c>)
 8001012:	699b      	ldr	r3, [r3, #24]
 8001014:	f003 0320 	and.w	r3, r3, #32
 8001018:	60fb      	str	r3, [r7, #12]
 800101a:	68fb      	ldr	r3, [r7, #12]
  __HAL_RCC_GPIOA_CLK_ENABLE();
 800101c:	4b3f      	ldr	r3, [pc, #252]	@ (800111c <MX_GPIO_Init+0x12c>)
 800101e:	699b      	ldr	r3, [r3, #24]
 8001020:	4a3e      	ldr	r2, [pc, #248]	@ (800111c <MX_GPIO_Init+0x12c>)
 8001022:	f043 0304 	orr.w	r3, r3, #4
 8001026:	6193      	str	r3, [r2, #24]
 8001028:	4b3c      	ldr	r3, [pc, #240]	@ (800111c <MX_GPIO_Init+0x12c>)
 800102a:	699b      	ldr	r3, [r3, #24]
 800102c:	f003 0304 	and.w	r3, r3, #4
 8001030:	60bb      	str	r3, [r7, #8]
 8001032:	68bb      	ldr	r3, [r7, #8]
  __HAL_RCC_GPIOB_CLK_ENABLE();
 8001034:	4b39      	ldr	r3, [pc, #228]	@ (800111c <MX_GPIO_Init+0x12c>)
 8001036:	699b      	ldr	r3, [r3, #24]
 8001038:	4a38      	ldr	r2, [pc, #224]	@ (800111c <MX_GPIO_Init+0x12c>)
 800103a:	f043 0308 	orr.w	r3, r3, #8
 800103e:	6193      	str	r3, [r2, #24]
 8001040:	4b36      	ldr	r3, [pc, #216]	@ (800111c <MX_GPIO_Init+0x12c>)
 8001042:	699b      	ldr	r3, [r3, #24]
 8001044:	f003 0308 	and.w	r3, r3, #8
 8001048:	607b      	str	r3, [r7, #4]
 800104a:	687b      	ldr	r3, [r7, #4]
  __HAL_RCC_GPIOC_CLK_ENABLE();
 800104c:	4b33      	ldr	r3, [pc, #204]	@ (800111c <MX_GPIO_Init+0x12c>)
 800104e:	699b      	ldr	r3, [r3, #24]
 8001050:	4a32      	ldr	r2, [pc, #200]	@ (800111c <MX_GPIO_Init+0x12c>)
 8001052:	f043 0310 	orr.w	r3, r3, #16
 8001056:	6193      	str	r3, [r2, #24]
 8001058:	4b30      	ldr	r3, [pc, #192]	@ (800111c <MX_GPIO_Init+0x12c>)
 800105a:	699b      	ldr	r3, [r3, #24]
 800105c:	f003 0310 	and.w	r3, r3, #16
 8001060:	603b      	str	r3, [r7, #0]
 8001062:	683b      	ldr	r3, [r7, #0]

  /*Configure GPIO pin Output Level */
  HAL_GPIO_WritePin(LED_GPIO_Port, LED_Pin, GPIO_PIN_RESET);
 8001064:	2200      	movs	r2, #0
 8001066:	2120      	movs	r1, #32
 8001068:	482d      	ldr	r0, [pc, #180]	@ (8001120 <MX_GPIO_Init+0x130>)
 800106a:	f002 f916 	bl	800329a <HAL_GPIO_WritePin>

  /*Configure GPIO pin Output Level */
  HAL_GPIO_WritePin(LED_RGB_GPIO_Port, LED_RGB_Pin, GPIO_PIN_RESET);
 800106e:	2200      	movs	r2, #0
 8001070:	2180      	movs	r1, #128	@ 0x80
 8001072:	482c      	ldr	r0, [pc, #176]	@ (8001124 <MX_GPIO_Init+0x134>)
 8001074:	f002 f911 	bl	800329a <HAL_GPIO_WritePin>

  /*Configure GPIO pin Output Level */
  HAL_GPIO_WritePin(FAN_GPIO_Port, FAN_Pin, GPIO_PIN_SET);
 8001078:	2201      	movs	r2, #1
 800107a:	f44f 6180 	mov.w	r1, #1024	@ 0x400
 800107e:	4828      	ldr	r0, [pc, #160]	@ (8001120 <MX_GPIO_Init+0x130>)
 8001080:	f002 f90b 	bl	800329a <HAL_GPIO_WritePin>

  /*Configure GPIO pin Output Level */
  HAL_GPIO_WritePin(GPIOB, BLUZZER_Pin|LED_RGB1_Pin, GPIO_PIN_RESET);
 8001084:	2200      	movs	r2, #0
 8001086:	2148      	movs	r1, #72	@ 0x48
 8001088:	4827      	ldr	r0, [pc, #156]	@ (8001128 <MX_GPIO_Init+0x138>)
 800108a:	f002 f906 	bl	800329a <HAL_GPIO_WritePin>

  /*Configure GPIO pins : BUTTON_0_Pin BUTTON_1_Pin */
  GPIO_InitStruct.Pin = BUTTON_0_Pin|BUTTON_1_Pin;
 800108e:	2312      	movs	r3, #18
 8001090:	613b      	str	r3, [r7, #16]
  GPIO_InitStruct.Mode = GPIO_MODE_INPUT;
 8001092:	2300      	movs	r3, #0
 8001094:	617b      	str	r3, [r7, #20]
  GPIO_InitStruct.Pull = GPIO_PULLUP;
 8001096:	2301      	movs	r3, #1
 8001098:	61bb      	str	r3, [r7, #24]
  HAL_GPIO_Init(GPIOA, &GPIO_InitStruct);
 800109a:	f107 0310 	add.w	r3, r7, #16
 800109e:	4619      	mov	r1, r3
 80010a0:	481f      	ldr	r0, [pc, #124]	@ (8001120 <MX_GPIO_Init+0x130>)
 80010a2:	f001 ff5f 	bl	8002f64 <HAL_GPIO_Init>

  /*Configure GPIO pins : LED_Pin FAN_Pin */
  GPIO_InitStruct.Pin = LED_Pin|FAN_Pin;
 80010a6:	f44f 6384 	mov.w	r3, #1056	@ 0x420
 80010aa:	613b      	str	r3, [r7, #16]
  GPIO_InitStruct.Mode = GPIO_MODE_OUTPUT_PP;
 80010ac:	2301      	movs	r3, #1
 80010ae:	617b      	str	r3, [r7, #20]
  GPIO_InitStruct.Pull = GPIO_PULLUP;
 80010b0:	2301      	movs	r3, #1
 80010b2:	61bb      	str	r3, [r7, #24]
  GPIO_InitStruct.Speed = GPIO_SPEED_FREQ_LOW;
 80010b4:	2302      	movs	r3, #2
 80010b6:	61fb      	str	r3, [r7, #28]
  HAL_GPIO_Init(GPIOA, &GPIO_InitStruct);
 80010b8:	f107 0310 	add.w	r3, r7, #16
 80010bc:	4619      	mov	r1, r3
 80010be:	4818      	ldr	r0, [pc, #96]	@ (8001120 <MX_GPIO_Init+0x130>)
 80010c0:	f001 ff50 	bl	8002f64 <HAL_GPIO_Init>

  /*Configure GPIO pins : BUTTON_2_Pin BUTTON_3_Pin */
  GPIO_InitStruct.Pin = BUTTON_2_Pin|BUTTON_3_Pin;
 80010c4:	2321      	movs	r3, #33	@ 0x21
 80010c6:	613b      	str	r3, [r7, #16]
  GPIO_InitStruct.Mode = GPIO_MODE_INPUT;
 80010c8:	2300      	movs	r3, #0
 80010ca:	617b      	str	r3, [r7, #20]
  GPIO_InitStruct.Pull = GPIO_PULLUP;
 80010cc:	2301      	movs	r3, #1
 80010ce:	61bb      	str	r3, [r7, #24]
  HAL_GPIO_Init(GPIOB, &GPIO_InitStruct);
 80010d0:	f107 0310 	add.w	r3, r7, #16
 80010d4:	4619      	mov	r1, r3
 80010d6:	4814      	ldr	r0, [pc, #80]	@ (8001128 <MX_GPIO_Init+0x138>)
 80010d8:	f001 ff44 	bl	8002f64 <HAL_GPIO_Init>

  /*Configure GPIO pin : LED_RGB_Pin */
  GPIO_InitStruct.Pin = LED_RGB_Pin;
 80010dc:	2380      	movs	r3, #128	@ 0x80
 80010de:	613b      	str	r3, [r7, #16]
  GPIO_InitStruct.Mode = GPIO_MODE_OUTPUT_PP;
 80010e0:	2301      	movs	r3, #1
 80010e2:	617b      	str	r3, [r7, #20]
  GPIO_InitStruct.Pull = GPIO_PULLUP;
 80010e4:	2301      	movs	r3, #1
 80010e6:	61bb      	str	r3, [r7, #24]
  GPIO_InitStruct.Speed = GPIO_SPEED_FREQ_LOW;
 80010e8:	2302      	movs	r3, #2
 80010ea:	61fb      	str	r3, [r7, #28]
  HAL_GPIO_Init(LED_RGB_GPIO_Port, &GPIO_InitStruct);
 80010ec:	f107 0310 	add.w	r3, r7, #16
 80010f0:	4619      	mov	r1, r3
 80010f2:	480c      	ldr	r0, [pc, #48]	@ (8001124 <MX_GPIO_Init+0x134>)
 80010f4:	f001 ff36 	bl	8002f64 <HAL_GPIO_Init>

  /*Configure GPIO pins : BLUZZER_Pin LED_RGB1_Pin */
  GPIO_InitStruct.Pin = BLUZZER_Pin|LED_RGB1_Pin;
 80010f8:	2348      	movs	r3, #72	@ 0x48
 80010fa:	613b      	str	r3, [r7, #16]
  GPIO_InitStruct.Mode = GPIO_MODE_OUTPUT_PP;
 80010fc:	2301      	movs	r3, #1
 80010fe:	617b      	str	r3, [r7, #20]
  GPIO_InitStruct.Pull = GPIO_PULLUP;
 8001100:	2301      	movs	r3, #1
 8001102:	61bb      	str	r3, [r7, #24]
  GPIO_InitStruct.Speed = GPIO_SPEED_FREQ_LOW;
 8001104:	2302      	movs	r3, #2
 8001106:	61fb      	str	r3, [r7, #28]
  HAL_GPIO_Init(GPIOB, &GPIO_InitStruct);
 8001108:	f107 0310 	add.w	r3, r7, #16
 800110c:	4619      	mov	r1, r3
 800110e:	4806      	ldr	r0, [pc, #24]	@ (8001128 <MX_GPIO_Init+0x138>)
 8001110:	f001 ff28 	bl	8002f64 <HAL_GPIO_Init>

/* USER CODE BEGIN MX_GPIO_Init_2 */
/* USER CODE END MX_GPIO_Init_2 */
}
 8001114:	bf00      	nop
 8001116:	3720      	adds	r7, #32
 8001118:	46bd      	mov	sp, r7
 800111a:	bd80      	pop	{r7, pc}
 800111c:	40021000 	.word	0x40021000
 8001120:	40010800 	.word	0x40010800
 8001124:	40011000 	.word	0x40011000
 8001128:	40010c00 	.word	0x40010c00

0800112c <HAL_TIM_PeriodElapsedCallback>:

/* USER CODE BEGIN 4 */


void HAL_TIM_PeriodElapsedCallback(TIM_HandleTypeDef *htim)
{
 800112c:	b580      	push	{r7, lr}
 800112e:	b082      	sub	sp, #8
 8001130:	af00      	add	r7, sp, #0
 8001132:	6078      	str	r0, [r7, #4]
	timerRun();
 8001134:	f000 fc8e 	bl	8001a54 <timerRun>
	SCH_Update();
 8001138:	f000 f956 	bl	80013e8 <SCH_Update>
}
 800113c:	bf00      	nop
 800113e:	3708      	adds	r7, #8
 8001140:	46bd      	mov	sp, r7
 8001142:	bd80      	pop	{r7, pc}

08001144 <Error_Handler>:
/**
  * @brief  This function is executed in case of error occurrence.
  * @retval None
  */
void Error_Handler(void)
{
 8001144:	b480      	push	{r7}
 8001146:	af00      	add	r7, sp, #0
  \details Disables IRQ interrupts by setting the I-bit in the CPSR.
           Can only be executed in Privileged modes.
 */
__STATIC_FORCEINLINE void __disable_irq(void)
{
  __ASM volatile ("cpsid i" : : : "memory");
 8001148:	b672      	cpsid	i
}
 800114a:	bf00      	nop
  /* USER CODE BEGIN Error_Handler_Debug */
  /* User can add his own implementation to report the HAL error return state */
  __disable_irq();
  while (1)
 800114c:	bf00      	nop
 800114e:	e7fd      	b.n	800114c <Error_Handler+0x8>

08001150 <fsmInit>:
#include "manual_fsm.h"

enum FSM_STATE fsmState = FSM_INIT;

void fsmInit(void) {
 8001150:	b580      	push	{r7, lr}
 8001152:	af00      	add	r7, sp, #0
    fsmReInit(FSM_INIT);
 8001154:	2000      	movs	r0, #0
 8001156:	f000 f803 	bl	8001160 <fsmReInit>
}
 800115a:	bf00      	nop
 800115c:	bd80      	pop	{r7, pc}
	...

08001160 <fsmReInit>:

void fsmReInit(enum FSM_STATE state) {
 8001160:	b580      	push	{r7, lr}
 8001162:	b082      	sub	sp, #8
 8001164:	af00      	add	r7, sp, #0
 8001166:	4603      	mov	r3, r0
 8001168:	71fb      	strb	r3, [r7, #7]
    switch (state) {
 800116a:	79fb      	ldrb	r3, [r7, #7]
 800116c:	2b02      	cmp	r3, #2
 800116e:	d00f      	beq.n	8001190 <fsmReInit+0x30>
 8001170:	2b02      	cmp	r3, #2
 8001172:	dc10      	bgt.n	8001196 <fsmReInit+0x36>
 8001174:	2b00      	cmp	r3, #0
 8001176:	d002      	beq.n	800117e <fsmReInit+0x1e>
 8001178:	2b01      	cmp	r3, #1
 800117a:	d006      	beq.n	800118a <fsmReInit+0x2a>
        case DISPLAY_RAIN_DATA:
            display_rain_data();
            break;

        default:
            break;
 800117c:	e00b      	b.n	8001196 <fsmReInit+0x36>
            lcd_greeting();
 800117e:	f7ff fd13 	bl	8000ba8 <lcd_greeting>
            fsmState = READING_FSM_RUN;
 8001182:	4b07      	ldr	r3, [pc, #28]	@ (80011a0 <fsmReInit+0x40>)
 8001184:	2201      	movs	r2, #1
 8001186:	701a      	strb	r2, [r3, #0]
            break;
 8001188:	e006      	b.n	8001198 <fsmReInit+0x38>
        	reading_fsm_run();
 800118a:	f7ff fbab 	bl	80008e4 <reading_fsm_run>
            break;
 800118e:	e003      	b.n	8001198 <fsmReInit+0x38>
            display_rain_data();
 8001190:	f000 f8be 	bl	8001310 <display_rain_data>
            break;
 8001194:	e000      	b.n	8001198 <fsmReInit+0x38>
            break;
 8001196:	bf00      	nop
    }
}
 8001198:	bf00      	nop
 800119a:	3708      	adds	r7, #8
 800119c:	46bd      	mov	sp, r7
 800119e:	bd80      	pop	{r7, pc}
 80011a0:	200001c8 	.word	0x200001c8

080011a4 <fsmRun>:


void fsmRun(void) {
 80011a4:	b580      	push	{r7, lr}
 80011a6:	af00      	add	r7, sp, #0
    switch (fsmState) {
 80011a8:	4b0f      	ldr	r3, [pc, #60]	@ (80011e8 <fsmRun+0x44>)
 80011aa:	781b      	ldrb	r3, [r3, #0]
 80011ac:	2b01      	cmp	r3, #1
 80011ae:	d002      	beq.n	80011b6 <fsmRun+0x12>
 80011b0:	2b02      	cmp	r3, #2
 80011b2:	d00a      	beq.n	80011ca <fsmRun+0x26>

            }
            break;

        default:
            break;
 80011b4:	e016      	b.n	80011e4 <fsmRun+0x40>
            if (buttonPressed(0)==0) {
 80011b6:	2000      	movs	r0, #0
 80011b8:	f7ff fd26 	bl	8000c08 <buttonPressed>
 80011bc:	4603      	mov	r3, r0
 80011be:	2b00      	cmp	r3, #0
 80011c0:	d10d      	bne.n	80011de <fsmRun+0x3a>
                fsmReInit(DISPLAY_RAIN_DATA);
 80011c2:	2002      	movs	r0, #2
 80011c4:	f7ff ffcc 	bl	8001160 <fsmReInit>
            break;
 80011c8:	e009      	b.n	80011de <fsmRun+0x3a>
            if (buttonPressed(0)==1) {
 80011ca:	2000      	movs	r0, #0
 80011cc:	f7ff fd1c 	bl	8000c08 <buttonPressed>
 80011d0:	4603      	mov	r3, r0
 80011d2:	2b01      	cmp	r3, #1
 80011d4:	d105      	bne.n	80011e2 <fsmRun+0x3e>
                fsmReInit(READING_FSM_RUN);
 80011d6:	2001      	movs	r0, #1
 80011d8:	f7ff ffc2 	bl	8001160 <fsmReInit>
            break;
 80011dc:	e001      	b.n	80011e2 <fsmRun+0x3e>
            break;
 80011de:	bf00      	nop
 80011e0:	e000      	b.n	80011e4 <fsmRun+0x40>
            break;
 80011e2:	bf00      	nop
    }
}
 80011e4:	bf00      	nop
 80011e6:	bd80      	pop	{r7, pc}
 80011e8:	200001c8 	.word	0x200001c8

080011ec <turnOn_RGB>:
 80011ec:	b580      	push	{r7, lr}
 80011ee:	af00      	add	r7, sp, #0
 80011f0:	2201      	movs	r2, #1
 80011f2:	2180      	movs	r1, #128	@ 0x80
 80011f4:	4804      	ldr	r0, [pc, #16]	@ (8001208 <turnOn_RGB+0x1c>)
 80011f6:	f002 f850 	bl	800329a <HAL_GPIO_WritePin>
 80011fa:	2201      	movs	r2, #1
 80011fc:	2140      	movs	r1, #64	@ 0x40
 80011fe:	4803      	ldr	r0, [pc, #12]	@ (800120c <turnOn_RGB+0x20>)
 8001200:	f002 f84b 	bl	800329a <HAL_GPIO_WritePin>
 8001204:	bf00      	nop
 8001206:	bd80      	pop	{r7, pc}
 8001208:	40011000 	.word	0x40011000
 800120c:	40010c00 	.word	0x40010c00

08001210 <turnOn_RGB1>:
 8001210:	b580      	push	{r7, lr}
 8001212:	af00      	add	r7, sp, #0
 8001214:	2200      	movs	r2, #0
 8001216:	2180      	movs	r1, #128	@ 0x80
 8001218:	4804      	ldr	r0, [pc, #16]	@ (800122c <turnOn_RGB1+0x1c>)
 800121a:	f002 f83e 	bl	800329a <HAL_GPIO_WritePin>
 800121e:	2201      	movs	r2, #1
 8001220:	2140      	movs	r1, #64	@ 0x40
 8001222:	4803      	ldr	r0, [pc, #12]	@ (8001230 <turnOn_RGB1+0x20>)
 8001224:	f002 f839 	bl	800329a <HAL_GPIO_WritePin>
 8001228:	bf00      	nop
 800122a:	bd80      	pop	{r7, pc}
 800122c:	40011000 	.word	0x40011000
 8001230:	40010c00 	.word	0x40010c00

08001234 <turnOn_RGB2>:
 8001234:	b580      	push	{r7, lr}
 8001236:	af00      	add	r7, sp, #0
 8001238:	2201      	movs	r2, #1
 800123a:	2180      	movs	r1, #128	@ 0x80
 800123c:	4804      	ldr	r0, [pc, #16]	@ (8001250 <turnOn_RGB2+0x1c>)
 800123e:	f002 f82c 	bl	800329a <HAL_GPIO_WritePin>
 8001242:	2200      	movs	r2, #0
 8001244:	2140      	movs	r1, #64	@ 0x40
 8001246:	4803      	ldr	r0, [pc, #12]	@ (8001254 <turnOn_RGB2+0x20>)
 8001248:	f002 f827 	bl	800329a <HAL_GPIO_WritePin>
 800124c:	bf00      	nop
 800124e:	bd80      	pop	{r7, pc}
 8001250:	40011000 	.word	0x40011000
 8001254:	40010c00 	.word	0x40010c00

08001258 <rain_sensor_read>:
 8001258:	b580      	push	{r7, lr}
 800125a:	b084      	sub	sp, #16
 800125c:	af00      	add	r7, sp, #0
 800125e:	6078      	str	r0, [r7, #4]
 8001260:	f04f 31ff 	mov.w	r1, #4294967295
 8001264:	4818      	ldr	r0, [pc, #96]	@ (80012c8 <rain_sensor_read+0x70>)
 8001266:	f001 fa17 	bl	8002698 <HAL_ADC_PollForConversion>
 800126a:	4817      	ldr	r0, [pc, #92]	@ (80012c8 <rain_sensor_read+0x70>)
 800126c:	f001 fb1a 	bl	80028a4 <HAL_ADC_GetValue>
 8001270:	4603      	mov	r3, r0
 8001272:	4a16      	ldr	r2, [pc, #88]	@ (80012cc <rain_sensor_read+0x74>)
 8001274:	6013      	str	r3, [r2, #0]
 8001276:	4b15      	ldr	r3, [pc, #84]	@ (80012cc <rain_sensor_read+0x74>)
 8001278:	681b      	ldr	r3, [r3, #0]
 800127a:	f64f 72ff 	movw	r2, #65535	@ 0xffff
 800127e:	4293      	cmp	r3, r2
 8001280:	d102      	bne.n	8001288 <rain_sensor_read+0x30>
 8001282:	4b12      	ldr	r3, [pc, #72]	@ (80012cc <rain_sensor_read+0x74>)
 8001284:	2200      	movs	r2, #0
 8001286:	601a      	str	r2, [r3, #0]
 8001288:	4b10      	ldr	r3, [pc, #64]	@ (80012cc <rain_sensor_read+0x74>)
 800128a:	681b      	ldr	r3, [r3, #0]
 800128c:	2264      	movs	r2, #100	@ 0x64
 800128e:	fb03 f202 	mul.w	r2, r3, r2
 8001292:	4b0f      	ldr	r3, [pc, #60]	@ (80012d0 <rain_sensor_read+0x78>)
 8001294:	fba3 1302 	umull	r1, r3, r3, r2
 8001298:	1ad2      	subs	r2, r2, r3
 800129a:	0852      	lsrs	r2, r2, #1
 800129c:	4413      	add	r3, r2
 800129e:	0adb      	lsrs	r3, r3, #11
 80012a0:	60fb      	str	r3, [r7, #12]
 80012a2:	68fb      	ldr	r3, [r7, #12]
 80012a4:	b29a      	uxth	r2, r3
 80012a6:	687b      	ldr	r3, [r7, #4]
 80012a8:	801a      	strh	r2, [r3, #0]
 80012aa:	68fb      	ldr	r3, [r7, #12]
 80012ac:	b29a      	uxth	r2, r3
 80012ae:	687b      	ldr	r3, [r7, #4]
 80012b0:	3302      	adds	r3, #2
 80012b2:	4611      	mov	r1, r2
 80012b4:	0089      	lsls	r1, r1, #2
 80012b6:	440a      	add	r2, r1
 80012b8:	0052      	lsls	r2, r2, #1
 80012ba:	b292      	uxth	r2, r2
 80012bc:	801a      	strh	r2, [r3, #0]
 80012be:	bf00      	nop
 80012c0:	3710      	adds	r7, #16
 80012c2:	46bd      	mov	sp, r7
 80012c4:	bd80      	pop	{r7, pc}
 80012c6:	bf00      	nop
 80012c8:	200000b4 	.word	0x200000b4
 80012cc:	200001cc 	.word	0x200001cc
 80012d0:	00100101 	.word	0x00100101

080012d4 <init_read>:
 80012d4:	b580      	push	{r7, lr}
 80012d6:	af00      	add	r7, sp, #0
 80012d8:	4802      	ldr	r0, [pc, #8]	@ (80012e4 <init_read+0x10>)
 80012da:	f7ff ffbd 	bl	8001258 <rain_sensor_read>
 80012de:	bf00      	nop
 80012e0:	bd80      	pop	{r7, pc}
 80012e2:	bf00      	nop
 80012e4:	200001d0 	.word	0x200001d0

080012e8 <get_rain_values>:
 80012e8:	b480      	push	{r7}
 80012ea:	b083      	sub	sp, #12
 80012ec:	af00      	add	r7, sp, #0
 80012ee:	6078      	str	r0, [r7, #4]
 80012f0:	6039      	str	r1, [r7, #0]
 80012f2:	4b06      	ldr	r3, [pc, #24]	@ (800130c <get_rain_values+0x24>)
 80012f4:	881a      	ldrh	r2, [r3, #0]
 80012f6:	687b      	ldr	r3, [r7, #4]
 80012f8:	801a      	strh	r2, [r3, #0]
 80012fa:	4b04      	ldr	r3, [pc, #16]	@ (800130c <get_rain_values+0x24>)
 80012fc:	885a      	ldrh	r2, [r3, #2]
 80012fe:	683b      	ldr	r3, [r7, #0]
 8001300:	801a      	strh	r2, [r3, #0]
 8001302:	bf00      	nop
 8001304:	370c      	adds	r7, #12
 8001306:	46bd      	mov	sp, r7
 8001308:	bc80      	pop	{r7}
 800130a:	4770      	bx	lr
 800130c:	200001d0 	.word	0x200001d0

08001310 <display_rain_data>:
 8001310:	b590      	push	{r4, r7, lr}
 8001312:	b093      	sub	sp, #76	@ 0x4c
 8001314:	af00      	add	r7, sp, #0
 8001316:	f7ff fc26 	bl	8000b66 <lcd_clear_display>
 800131a:	f7ff ffdb 	bl	80012d4 <init_read>
 800131e:	f107 0244 	add.w	r2, r7, #68	@ 0x44
 8001322:	f107 0346 	add.w	r3, r7, #70	@ 0x46
 8001326:	4611      	mov	r1, r2
 8001328:	4618      	mov	r0, r3
 800132a:	f7ff ffdd 	bl	80012e8 <get_rain_values>
 800132e:	f8b7 3046 	ldrh.w	r3, [r7, #70]	@ 0x46
 8001332:	2b13      	cmp	r3, #19
 8001334:	d80b      	bhi.n	800134e <display_rain_data+0x3e>
 8001336:	f107 0324 	add.w	r3, r7, #36	@ 0x24
 800133a:	4a26      	ldr	r2, [pc, #152]	@ (80013d4 <display_rain_data+0xc4>)
 800133c:	461c      	mov	r4, r3
 800133e:	4613      	mov	r3, r2
 8001340:	cb0f      	ldmia	r3, {r0, r1, r2, r3}
 8001342:	c407      	stmia	r4!, {r0, r1, r2}
 8001344:	8023      	strh	r3, [r4, #0]
 8001346:	3402      	adds	r4, #2
 8001348:	0c1b      	lsrs	r3, r3, #16
 800134a:	7023      	strb	r3, [r4, #0]
 800134c:	e017      	b.n	800137e <display_rain_data+0x6e>
 800134e:	f8b7 3046 	ldrh.w	r3, [r7, #70]	@ 0x46
 8001352:	2b32      	cmp	r3, #50	@ 0x32
 8001354:	d80b      	bhi.n	800136e <display_rain_data+0x5e>
 8001356:	f107 0324 	add.w	r3, r7, #36	@ 0x24
 800135a:	4a1f      	ldr	r2, [pc, #124]	@ (80013d8 <display_rain_data+0xc8>)
 800135c:	461c      	mov	r4, r3
 800135e:	4613      	mov	r3, r2
 8001360:	cb0f      	ldmia	r3, {r0, r1, r2, r3}
 8001362:	c407      	stmia	r4!, {r0, r1, r2}
 8001364:	8023      	strh	r3, [r4, #0]
 8001366:	3402      	adds	r4, #2
 8001368:	0c1b      	lsrs	r3, r3, #16
 800136a:	7023      	strb	r3, [r4, #0]
 800136c:	e007      	b.n	800137e <display_rain_data+0x6e>
 800136e:	f107 0324 	add.w	r3, r7, #36	@ 0x24
 8001372:	4a1a      	ldr	r2, [pc, #104]	@ (80013dc <display_rain_data+0xcc>)
 8001374:	461c      	mov	r4, r3
 8001376:	4613      	mov	r3, r2
 8001378:	cb0f      	ldmia	r3, {r0, r1, r2, r3}
 800137a:	c407      	stmia	r4!, {r0, r1, r2}
 800137c:	8023      	strh	r3, [r4, #0]
 800137e:	f7ff fbf2 	bl	8000b66 <lcd_clear_display>
 8001382:	2100      	movs	r1, #0
 8001384:	2000      	movs	r0, #0
 8001386:	f7ff fbf5 	bl	8000b74 <lcd_goto_XY>
 800138a:	f107 0324 	add.w	r3, r7, #36	@ 0x24
 800138e:	4618      	mov	r0, r3
 8001390:	f7ff fbd4 	bl	8000b3c <lcd_send_string>
 8001394:	f8b7 3046 	ldrh.w	r3, [r7, #70]	@ 0x46
 8001398:	4619      	mov	r1, r3
 800139a:	f8b7 3044 	ldrh.w	r3, [r7, #68]	@ 0x44
 800139e:	4a10      	ldr	r2, [pc, #64]	@ (80013e0 <display_rain_data+0xd0>)
 80013a0:	fba2 2303 	umull	r2, r3, r2, r3
 80013a4:	08db      	lsrs	r3, r3, #3
 80013a6:	b29b      	uxth	r3, r3
 80013a8:	1d38      	adds	r0, r7, #4
 80013aa:	460a      	mov	r2, r1
 80013ac:	490d      	ldr	r1, [pc, #52]	@ (80013e4 <display_rain_data+0xd4>)
 80013ae:	f005 f8fb 	bl	80065a8 <siprintf>
 80013b2:	2100      	movs	r1, #0
 80013b4:	2001      	movs	r0, #1
 80013b6:	f7ff fbdd 	bl	8000b74 <lcd_goto_XY>
 80013ba:	1d3b      	adds	r3, r7, #4
 80013bc:	4618      	mov	r0, r3
 80013be:	f7ff fbbd 	bl	8000b3c <lcd_send_string>
 80013c2:	f44f 7096 	mov.w	r0, #300	@ 0x12c
 80013c6:	f000 ffbd 	bl	8002344 <HAL_Delay>
 80013ca:	bf00      	nop
 80013cc:	374c      	adds	r7, #76	@ 0x4c
 80013ce:	46bd      	mov	sp, r7
 80013d0:	bd90      	pop	{r4, r7, pc}
 80013d2:	bf00      	nop
 80013d4:	08006f6c 	.word	0x08006f6c
 80013d8:	08006f7c 	.word	0x08006f7c
 80013dc:	08006f8c 	.word	0x08006f8c
 80013e0:	cccccccd 	.word	0xcccccccd
 80013e4:	08006f9c 	.word	0x08006f9c

080013e8 <SCH_Update>:
 80013e8:	b480      	push	{r7}
 80013ea:	af00      	add	r7, sp, #0
 80013ec:	4b10      	ldr	r3, [pc, #64]	@ (8001430 <SCH_Update+0x48>)
 80013ee:	681b      	ldr	r3, [r3, #0]
 80013f0:	2b00      	cmp	r3, #0
 80013f2:	d018      	beq.n	8001426 <SCH_Update+0x3e>
 80013f4:	4b0e      	ldr	r3, [pc, #56]	@ (8001430 <SCH_Update+0x48>)
 80013f6:	689b      	ldr	r3, [r3, #8]
 80013f8:	2b00      	cmp	r3, #0
 80013fa:	d00c      	beq.n	8001416 <SCH_Update+0x2e>
 80013fc:	4b0c      	ldr	r3, [pc, #48]	@ (8001430 <SCH_Update+0x48>)
 80013fe:	689b      	ldr	r3, [r3, #8]
 8001400:	2b0a      	cmp	r3, #10
 8001402:	d905      	bls.n	8001410 <SCH_Update+0x28>
 8001404:	4b0a      	ldr	r3, [pc, #40]	@ (8001430 <SCH_Update+0x48>)
 8001406:	689b      	ldr	r3, [r3, #8]
 8001408:	3b0a      	subs	r3, #10
 800140a:	4a09      	ldr	r2, [pc, #36]	@ (8001430 <SCH_Update+0x48>)
 800140c:	6093      	str	r3, [r2, #8]
 800140e:	e002      	b.n	8001416 <SCH_Update+0x2e>
 8001410:	4b07      	ldr	r3, [pc, #28]	@ (8001430 <SCH_Update+0x48>)
 8001412:	2200      	movs	r2, #0
 8001414:	609a      	str	r2, [r3, #8]
 8001416:	4b06      	ldr	r3, [pc, #24]	@ (8001430 <SCH_Update+0x48>)
 8001418:	689b      	ldr	r3, [r3, #8]
 800141a:	2b00      	cmp	r3, #0
 800141c:	d104      	bne.n	8001428 <SCH_Update+0x40>
 800141e:	4b04      	ldr	r3, [pc, #16]	@ (8001430 <SCH_Update+0x48>)
 8001420:	2201      	movs	r2, #1
 8001422:	741a      	strb	r2, [r3, #16]
 8001424:	e000      	b.n	8001428 <SCH_Update+0x40>
 8001426:	bf00      	nop
 8001428:	46bd      	mov	sp, r7
 800142a:	bc80      	pop	{r7}
 800142c:	4770      	bx	lr
 800142e:	bf00      	nop
 8001430:	200001d4 	.word	0x200001d4

08001434 <SCH_Dispatch>:
 8001434:	b580      	push	{r7, lr}
 8001436:	af00      	add	r7, sp, #0
 8001438:	4b0a      	ldr	r3, [pc, #40]	@ (8001464 <SCH_Dispatch+0x30>)
 800143a:	7c1b      	ldrb	r3, [r3, #16]
 800143c:	2b00      	cmp	r3, #0
 800143e:	d00f      	beq.n	8001460 <SCH_Dispatch+0x2c>
 8001440:	4b08      	ldr	r3, [pc, #32]	@ (8001464 <SCH_Dispatch+0x30>)
 8001442:	681b      	ldr	r3, [r3, #0]
 8001444:	4798      	blx	r3
 8001446:	4b07      	ldr	r3, [pc, #28]	@ (8001464 <SCH_Dispatch+0x30>)
 8001448:	68db      	ldr	r3, [r3, #12]
 800144a:	2b00      	cmp	r3, #0
 800144c:	d002      	beq.n	8001454 <SCH_Dispatch+0x20>
 800144e:	f000 f9af 	bl	80017b0 <SCH_RefreshTask>
 8001452:	e006      	b.n	8001462 <SCH_Dispatch+0x2e>
 8001454:	4b03      	ldr	r3, [pc, #12]	@ (8001464 <SCH_Dispatch+0x30>)
 8001456:	791b      	ldrb	r3, [r3, #4]
 8001458:	4618      	mov	r0, r3
 800145a:	f000 f90b 	bl	8001674 <SCH_DeleteTask>
 800145e:	e000      	b.n	8001462 <SCH_Dispatch+0x2e>
 8001460:	bf00      	nop
 8001462:	bd80      	pop	{r7, pc}
 8001464:	200001d4 	.word	0x200001d4

08001468 <SCH_AddTask>:
 8001468:	b4b0      	push	{r4, r5, r7}
 800146a:	b089      	sub	sp, #36	@ 0x24
 800146c:	af00      	add	r7, sp, #0
 800146e:	60f8      	str	r0, [r7, #12]
 8001470:	60b9      	str	r1, [r7, #8]
 8001472:	607a      	str	r2, [r7, #4]
 8001474:	4b7e      	ldr	r3, [pc, #504]	@ (8001670 <SCH_AddTask+0x208>)
 8001476:	f8d3 308c 	ldr.w	r3, [r3, #140]	@ 0x8c
 800147a:	2b00      	cmp	r3, #0
 800147c:	d001      	beq.n	8001482 <SCH_AddTask+0x1a>
 800147e:	2300      	movs	r3, #0
 8001480:	e0f1      	b.n	8001666 <SCH_AddTask+0x1fe>
 8001482:	4b7b      	ldr	r3, [pc, #492]	@ (8001670 <SCH_AddTask+0x208>)
 8001484:	f893 3090 	ldrb.w	r3, [r3, #144]	@ 0x90
 8001488:	767b      	strb	r3, [r7, #25]
 800148a:	2300      	movs	r3, #0
 800148c:	61fb      	str	r3, [r7, #28]
 800148e:	2300      	movs	r3, #0
 8001490:	76fb      	strb	r3, [r7, #27]
 8001492:	e0e3      	b.n	800165c <SCH_AddTask+0x1f4>
 8001494:	7efa      	ldrb	r2, [r7, #27]
 8001496:	4976      	ldr	r1, [pc, #472]	@ (8001670 <SCH_AddTask+0x208>)
 8001498:	4613      	mov	r3, r2
 800149a:	009b      	lsls	r3, r3, #2
 800149c:	4413      	add	r3, r2
 800149e:	009b      	lsls	r3, r3, #2
 80014a0:	440b      	add	r3, r1
 80014a2:	3308      	adds	r3, #8
 80014a4:	681b      	ldr	r3, [r3, #0]
 80014a6:	69fa      	ldr	r2, [r7, #28]
 80014a8:	4413      	add	r3, r2
 80014aa:	61fb      	str	r3, [r7, #28]
 80014ac:	69fa      	ldr	r2, [r7, #28]
 80014ae:	68bb      	ldr	r3, [r7, #8]
 80014b0:	429a      	cmp	r2, r3
 80014b2:	d80a      	bhi.n	80014ca <SCH_AddTask+0x62>
 80014b4:	7efa      	ldrb	r2, [r7, #27]
 80014b6:	496e      	ldr	r1, [pc, #440]	@ (8001670 <SCH_AddTask+0x208>)
 80014b8:	4613      	mov	r3, r2
 80014ba:	009b      	lsls	r3, r3, #2
 80014bc:	4413      	add	r3, r2
 80014be:	009b      	lsls	r3, r3, #2
 80014c0:	440b      	add	r3, r1
 80014c2:	681b      	ldr	r3, [r3, #0]
 80014c4:	2b00      	cmp	r3, #0
 80014c6:	f040 80c6 	bne.w	8001656 <SCH_AddTask+0x1ee>
 80014ca:	2307      	movs	r3, #7
 80014cc:	76bb      	strb	r3, [r7, #26]
 80014ce:	e017      	b.n	8001500 <SCH_AddTask+0x98>
 80014d0:	7ebb      	ldrb	r3, [r7, #26]
 80014d2:	1e5a      	subs	r2, r3, #1
 80014d4:	7eb9      	ldrb	r1, [r7, #26]
 80014d6:	4866      	ldr	r0, [pc, #408]	@ (8001670 <SCH_AddTask+0x208>)
 80014d8:	460b      	mov	r3, r1
 80014da:	009b      	lsls	r3, r3, #2
 80014dc:	440b      	add	r3, r1
 80014de:	009b      	lsls	r3, r3, #2
 80014e0:	4418      	add	r0, r3
 80014e2:	4963      	ldr	r1, [pc, #396]	@ (8001670 <SCH_AddTask+0x208>)
 80014e4:	4613      	mov	r3, r2
 80014e6:	009b      	lsls	r3, r3, #2
 80014e8:	4413      	add	r3, r2
 80014ea:	009b      	lsls	r3, r3, #2
 80014ec:	440b      	add	r3, r1
 80014ee:	4604      	mov	r4, r0
 80014f0:	461d      	mov	r5, r3
 80014f2:	cd0f      	ldmia	r5!, {r0, r1, r2, r3}
 80014f4:	c40f      	stmia	r4!, {r0, r1, r2, r3}
 80014f6:	682b      	ldr	r3, [r5, #0]
 80014f8:	6023      	str	r3, [r4, #0]
 80014fa:	7ebb      	ldrb	r3, [r7, #26]
 80014fc:	3b01      	subs	r3, #1
 80014fe:	76bb      	strb	r3, [r7, #26]
 8001500:	7eba      	ldrb	r2, [r7, #26]
 8001502:	7efb      	ldrb	r3, [r7, #27]
 8001504:	429a      	cmp	r2, r3
 8001506:	d8e3      	bhi.n	80014d0 <SCH_AddTask+0x68>
 8001508:	7efa      	ldrb	r2, [r7, #27]
 800150a:	4959      	ldr	r1, [pc, #356]	@ (8001670 <SCH_AddTask+0x208>)
 800150c:	4613      	mov	r3, r2
 800150e:	009b      	lsls	r3, r3, #2
 8001510:	4413      	add	r3, r2
 8001512:	009b      	lsls	r3, r3, #2
 8001514:	440b      	add	r3, r1
 8001516:	68fa      	ldr	r2, [r7, #12]
 8001518:	601a      	str	r2, [r3, #0]
 800151a:	7efa      	ldrb	r2, [r7, #27]
 800151c:	4954      	ldr	r1, [pc, #336]	@ (8001670 <SCH_AddTask+0x208>)
 800151e:	4613      	mov	r3, r2
 8001520:	009b      	lsls	r3, r3, #2
 8001522:	4413      	add	r3, r2
 8001524:	009b      	lsls	r3, r3, #2
 8001526:	440b      	add	r3, r1
 8001528:	3304      	adds	r3, #4
 800152a:	7e7a      	ldrb	r2, [r7, #25]
 800152c:	701a      	strb	r2, [r3, #0]
 800152e:	7efa      	ldrb	r2, [r7, #27]
 8001530:	494f      	ldr	r1, [pc, #316]	@ (8001670 <SCH_AddTask+0x208>)
 8001532:	4613      	mov	r3, r2
 8001534:	009b      	lsls	r3, r3, #2
 8001536:	4413      	add	r3, r2
 8001538:	009b      	lsls	r3, r3, #2
 800153a:	440b      	add	r3, r1
 800153c:	330c      	adds	r3, #12
 800153e:	687a      	ldr	r2, [r7, #4]
 8001540:	601a      	str	r2, [r3, #0]
 8001542:	7efa      	ldrb	r2, [r7, #27]
 8001544:	494a      	ldr	r1, [pc, #296]	@ (8001670 <SCH_AddTask+0x208>)
 8001546:	4613      	mov	r3, r2
 8001548:	009b      	lsls	r3, r3, #2
 800154a:	4413      	add	r3, r2
 800154c:	009b      	lsls	r3, r3, #2
 800154e:	440b      	add	r3, r1
 8001550:	3310      	adds	r3, #16
 8001552:	2200      	movs	r2, #0
 8001554:	701a      	strb	r2, [r3, #0]
 8001556:	69fa      	ldr	r2, [r7, #28]
 8001558:	68bb      	ldr	r3, [r7, #8]
 800155a:	429a      	cmp	r2, r3
 800155c:	d950      	bls.n	8001600 <SCH_AddTask+0x198>
 800155e:	69fa      	ldr	r2, [r7, #28]
 8001560:	68bb      	ldr	r3, [r7, #8]
 8001562:	1ad3      	subs	r3, r2, r3
 8001564:	617b      	str	r3, [r7, #20]
 8001566:	7efb      	ldrb	r3, [r7, #27]
 8001568:	1c5a      	adds	r2, r3, #1
 800156a:	4941      	ldr	r1, [pc, #260]	@ (8001670 <SCH_AddTask+0x208>)
 800156c:	4613      	mov	r3, r2
 800156e:	009b      	lsls	r3, r3, #2
 8001570:	4413      	add	r3, r2
 8001572:	009b      	lsls	r3, r3, #2
 8001574:	440b      	add	r3, r1
 8001576:	3308      	adds	r3, #8
 8001578:	6819      	ldr	r1, [r3, #0]
 800157a:	697b      	ldr	r3, [r7, #20]
 800157c:	7efa      	ldrb	r2, [r7, #27]
 800157e:	1ac9      	subs	r1, r1, r3
 8001580:	483b      	ldr	r0, [pc, #236]	@ (8001670 <SCH_AddTask+0x208>)
 8001582:	4613      	mov	r3, r2
 8001584:	009b      	lsls	r3, r3, #2
 8001586:	4413      	add	r3, r2
 8001588:	009b      	lsls	r3, r3, #2
 800158a:	4403      	add	r3, r0
 800158c:	3308      	adds	r3, #8
 800158e:	6019      	str	r1, [r3, #0]
 8001590:	7efa      	ldrb	r2, [r7, #27]
 8001592:	4937      	ldr	r1, [pc, #220]	@ (8001670 <SCH_AddTask+0x208>)
 8001594:	4613      	mov	r3, r2
 8001596:	009b      	lsls	r3, r3, #2
 8001598:	4413      	add	r3, r2
 800159a:	009b      	lsls	r3, r3, #2
 800159c:	440b      	add	r3, r1
 800159e:	3308      	adds	r3, #8
 80015a0:	681b      	ldr	r3, [r3, #0]
 80015a2:	2b00      	cmp	r3, #0
 80015a4:	d109      	bne.n	80015ba <SCH_AddTask+0x152>
 80015a6:	7efa      	ldrb	r2, [r7, #27]
 80015a8:	4931      	ldr	r1, [pc, #196]	@ (8001670 <SCH_AddTask+0x208>)
 80015aa:	4613      	mov	r3, r2
 80015ac:	009b      	lsls	r3, r3, #2
 80015ae:	4413      	add	r3, r2
 80015b0:	009b      	lsls	r3, r3, #2
 80015b2:	440b      	add	r3, r1
 80015b4:	3310      	adds	r3, #16
 80015b6:	2201      	movs	r2, #1
 80015b8:	701a      	strb	r2, [r3, #0]
 80015ba:	7efb      	ldrb	r3, [r7, #27]
 80015bc:	1c5a      	adds	r2, r3, #1
 80015be:	6979      	ldr	r1, [r7, #20]
 80015c0:	482b      	ldr	r0, [pc, #172]	@ (8001670 <SCH_AddTask+0x208>)
 80015c2:	4613      	mov	r3, r2
 80015c4:	009b      	lsls	r3, r3, #2
 80015c6:	4413      	add	r3, r2
 80015c8:	009b      	lsls	r3, r3, #2
 80015ca:	4403      	add	r3, r0
 80015cc:	3308      	adds	r3, #8
 80015ce:	6019      	str	r1, [r3, #0]
 80015d0:	7efb      	ldrb	r3, [r7, #27]
 80015d2:	1c5a      	adds	r2, r3, #1
 80015d4:	4926      	ldr	r1, [pc, #152]	@ (8001670 <SCH_AddTask+0x208>)
 80015d6:	4613      	mov	r3, r2
 80015d8:	009b      	lsls	r3, r3, #2
 80015da:	4413      	add	r3, r2
 80015dc:	009b      	lsls	r3, r3, #2
 80015de:	440b      	add	r3, r1
 80015e0:	3308      	adds	r3, #8
 80015e2:	681b      	ldr	r3, [r3, #0]
 80015e4:	2b00      	cmp	r3, #0
 80015e6:	d12c      	bne.n	8001642 <SCH_AddTask+0x1da>
 80015e8:	7efb      	ldrb	r3, [r7, #27]
 80015ea:	1c5a      	adds	r2, r3, #1
 80015ec:	4920      	ldr	r1, [pc, #128]	@ (8001670 <SCH_AddTask+0x208>)
 80015ee:	4613      	mov	r3, r2
 80015f0:	009b      	lsls	r3, r3, #2
 80015f2:	4413      	add	r3, r2
 80015f4:	009b      	lsls	r3, r3, #2
 80015f6:	440b      	add	r3, r1
 80015f8:	3310      	adds	r3, #16
 80015fa:	2201      	movs	r2, #1
 80015fc:	701a      	strb	r2, [r3, #0]
 80015fe:	e020      	b.n	8001642 <SCH_AddTask+0x1da>
 8001600:	7efa      	ldrb	r2, [r7, #27]
 8001602:	68b9      	ldr	r1, [r7, #8]
 8001604:	69fb      	ldr	r3, [r7, #28]
 8001606:	1ac9      	subs	r1, r1, r3
 8001608:	4819      	ldr	r0, [pc, #100]	@ (8001670 <SCH_AddTask+0x208>)
 800160a:	4613      	mov	r3, r2
 800160c:	009b      	lsls	r3, r3, #2
 800160e:	4413      	add	r3, r2
 8001610:	009b      	lsls	r3, r3, #2
 8001612:	4403      	add	r3, r0
 8001614:	3308      	adds	r3, #8
 8001616:	6019      	str	r1, [r3, #0]
 8001618:	7efa      	ldrb	r2, [r7, #27]
 800161a:	4915      	ldr	r1, [pc, #84]	@ (8001670 <SCH_AddTask+0x208>)
 800161c:	4613      	mov	r3, r2
 800161e:	009b      	lsls	r3, r3, #2
 8001620:	4413      	add	r3, r2
 8001622:	009b      	lsls	r3, r3, #2
 8001624:	440b      	add	r3, r1
 8001626:	3308      	adds	r3, #8
 8001628:	681b      	ldr	r3, [r3, #0]
 800162a:	2b00      	cmp	r3, #0
 800162c:	d109      	bne.n	8001642 <SCH_AddTask+0x1da>
 800162e:	7efa      	ldrb	r2, [r7, #27]
 8001630:	490f      	ldr	r1, [pc, #60]	@ (8001670 <SCH_AddTask+0x208>)
 8001632:	4613      	mov	r3, r2
 8001634:	009b      	lsls	r3, r3, #2
 8001636:	4413      	add	r3, r2
 8001638:	009b      	lsls	r3, r3, #2
 800163a:	440b      	add	r3, r1
 800163c:	3310      	adds	r3, #16
 800163e:	2201      	movs	r2, #1
 8001640:	701a      	strb	r2, [r3, #0]
 8001642:	7efa      	ldrb	r2, [r7, #27]
 8001644:	490a      	ldr	r1, [pc, #40]	@ (8001670 <SCH_AddTask+0x208>)
 8001646:	4613      	mov	r3, r2
 8001648:	009b      	lsls	r3, r3, #2
 800164a:	4413      	add	r3, r2
 800164c:	009b      	lsls	r3, r3, #2
 800164e:	440b      	add	r3, r1
 8001650:	3304      	adds	r3, #4
 8001652:	781b      	ldrb	r3, [r3, #0]
 8001654:	e007      	b.n	8001666 <SCH_AddTask+0x1fe>
 8001656:	7efb      	ldrb	r3, [r7, #27]
 8001658:	3301      	adds	r3, #1
 800165a:	76fb      	strb	r3, [r7, #27]
 800165c:	7efb      	ldrb	r3, [r7, #27]
 800165e:	2b07      	cmp	r3, #7
 8001660:	f67f af18 	bls.w	8001494 <SCH_AddTask+0x2c>
 8001664:	2300      	movs	r3, #0
 8001666:	4618      	mov	r0, r3
 8001668:	3724      	adds	r7, #36	@ 0x24
 800166a:	46bd      	mov	sp, r7
 800166c:	bcb0      	pop	{r4, r5, r7}
 800166e:	4770      	bx	lr
 8001670:	200001d4 	.word	0x200001d4

08001674 <SCH_DeleteTask>:
 8001674:	b4b0      	push	{r4, r5, r7}
 8001676:	b085      	sub	sp, #20
 8001678:	af00      	add	r7, sp, #0
 800167a:	4603      	mov	r3, r0
 800167c:	71fb      	strb	r3, [r7, #7]
 800167e:	2300      	movs	r3, #0
 8001680:	73fb      	strb	r3, [r7, #15]
 8001682:	e088      	b.n	8001796 <SCH_DeleteTask+0x122>
 8001684:	7bfa      	ldrb	r2, [r7, #15]
 8001686:	4949      	ldr	r1, [pc, #292]	@ (80017ac <SCH_DeleteTask+0x138>)
 8001688:	4613      	mov	r3, r2
 800168a:	009b      	lsls	r3, r3, #2
 800168c:	4413      	add	r3, r2
 800168e:	009b      	lsls	r3, r3, #2
 8001690:	440b      	add	r3, r1
 8001692:	681b      	ldr	r3, [r3, #0]
 8001694:	2b00      	cmp	r3, #0
 8001696:	d101      	bne.n	800169c <SCH_DeleteTask+0x28>
 8001698:	2300      	movs	r3, #0
 800169a:	e081      	b.n	80017a0 <SCH_DeleteTask+0x12c>
 800169c:	7bfa      	ldrb	r2, [r7, #15]
 800169e:	4943      	ldr	r1, [pc, #268]	@ (80017ac <SCH_DeleteTask+0x138>)
 80016a0:	4613      	mov	r3, r2
 80016a2:	009b      	lsls	r3, r3, #2
 80016a4:	4413      	add	r3, r2
 80016a6:	009b      	lsls	r3, r3, #2
 80016a8:	440b      	add	r3, r1
 80016aa:	3304      	adds	r3, #4
 80016ac:	781b      	ldrb	r3, [r3, #0]
 80016ae:	79fa      	ldrb	r2, [r7, #7]
 80016b0:	429a      	cmp	r2, r3
 80016b2:	d16d      	bne.n	8001790 <SCH_DeleteTask+0x11c>
 80016b4:	7bfa      	ldrb	r2, [r7, #15]
 80016b6:	493d      	ldr	r1, [pc, #244]	@ (80017ac <SCH_DeleteTask+0x138>)
 80016b8:	4613      	mov	r3, r2
 80016ba:	009b      	lsls	r3, r3, #2
 80016bc:	4413      	add	r3, r2
 80016be:	009b      	lsls	r3, r3, #2
 80016c0:	440b      	add	r3, r1
 80016c2:	3304      	adds	r3, #4
 80016c4:	781b      	ldrb	r3, [r3, #0]
 80016c6:	737b      	strb	r3, [r7, #13]
 80016c8:	7bfb      	ldrb	r3, [r7, #15]
 80016ca:	1c5a      	adds	r2, r3, #1
 80016cc:	4937      	ldr	r1, [pc, #220]	@ (80017ac <SCH_DeleteTask+0x138>)
 80016ce:	4613      	mov	r3, r2
 80016d0:	009b      	lsls	r3, r3, #2
 80016d2:	4413      	add	r3, r2
 80016d4:	009b      	lsls	r3, r3, #2
 80016d6:	440b      	add	r3, r1
 80016d8:	681b      	ldr	r3, [r3, #0]
 80016da:	2b00      	cmp	r3, #0
 80016dc:	d01d      	beq.n	800171a <SCH_DeleteTask+0xa6>
 80016de:	7bfb      	ldrb	r3, [r7, #15]
 80016e0:	1c5a      	adds	r2, r3, #1
 80016e2:	4932      	ldr	r1, [pc, #200]	@ (80017ac <SCH_DeleteTask+0x138>)
 80016e4:	4613      	mov	r3, r2
 80016e6:	009b      	lsls	r3, r3, #2
 80016e8:	4413      	add	r3, r2
 80016ea:	009b      	lsls	r3, r3, #2
 80016ec:	440b      	add	r3, r1
 80016ee:	3308      	adds	r3, #8
 80016f0:	6819      	ldr	r1, [r3, #0]
 80016f2:	7bfa      	ldrb	r2, [r7, #15]
 80016f4:	482d      	ldr	r0, [pc, #180]	@ (80017ac <SCH_DeleteTask+0x138>)
 80016f6:	4613      	mov	r3, r2
 80016f8:	009b      	lsls	r3, r3, #2
 80016fa:	4413      	add	r3, r2
 80016fc:	009b      	lsls	r3, r3, #2
 80016fe:	4403      	add	r3, r0
 8001700:	3308      	adds	r3, #8
 8001702:	681b      	ldr	r3, [r3, #0]
 8001704:	7bfa      	ldrb	r2, [r7, #15]
 8001706:	3201      	adds	r2, #1
 8001708:	4419      	add	r1, r3
 800170a:	4828      	ldr	r0, [pc, #160]	@ (80017ac <SCH_DeleteTask+0x138>)
 800170c:	4613      	mov	r3, r2
 800170e:	009b      	lsls	r3, r3, #2
 8001710:	4413      	add	r3, r2
 8001712:	009b      	lsls	r3, r3, #2
 8001714:	4403      	add	r3, r0
 8001716:	3308      	adds	r3, #8
 8001718:	6019      	str	r1, [r3, #0]
 800171a:	7bfb      	ldrb	r3, [r7, #15]
 800171c:	73bb      	strb	r3, [r7, #14]
 800171e:	e017      	b.n	8001750 <SCH_DeleteTask+0xdc>
 8001720:	7bbb      	ldrb	r3, [r7, #14]
 8001722:	1c5a      	adds	r2, r3, #1
 8001724:	7bb9      	ldrb	r1, [r7, #14]
 8001726:	4821      	ldr	r0, [pc, #132]	@ (80017ac <SCH_DeleteTask+0x138>)
 8001728:	460b      	mov	r3, r1
 800172a:	009b      	lsls	r3, r3, #2
 800172c:	440b      	add	r3, r1
 800172e:	009b      	lsls	r3, r3, #2
 8001730:	4418      	add	r0, r3
 8001732:	491e      	ldr	r1, [pc, #120]	@ (80017ac <SCH_DeleteTask+0x138>)
 8001734:	4613      	mov	r3, r2
 8001736:	009b      	lsls	r3, r3, #2
 8001738:	4413      	add	r3, r2
 800173a:	009b      	lsls	r3, r3, #2
 800173c:	440b      	add	r3, r1
 800173e:	4604      	mov	r4, r0
 8001740:	461d      	mov	r5, r3
 8001742:	cd0f      	ldmia	r5!, {r0, r1, r2, r3}
 8001744:	c40f      	stmia	r4!, {r0, r1, r2, r3}
 8001746:	682b      	ldr	r3, [r5, #0]
 8001748:	6023      	str	r3, [r4, #0]
 800174a:	7bbb      	ldrb	r3, [r7, #14]
 800174c:	3301      	adds	r3, #1
 800174e:	73bb      	strb	r3, [r7, #14]
 8001750:	7bbb      	ldrb	r3, [r7, #14]
 8001752:	2b06      	cmp	r3, #6
 8001754:	d9e4      	bls.n	8001720 <SCH_DeleteTask+0xac>
 8001756:	4b15      	ldr	r3, [pc, #84]	@ (80017ac <SCH_DeleteTask+0x138>)
 8001758:	2200      	movs	r2, #0
 800175a:	f8c3 208c 	str.w	r2, [r3, #140]	@ 0x8c
 800175e:	4a13      	ldr	r2, [pc, #76]	@ (80017ac <SCH_DeleteTask+0x138>)
 8001760:	7b7b      	ldrb	r3, [r7, #13]
 8001762:	f882 3090 	strb.w	r3, [r2, #144]	@ 0x90
 8001766:	4b11      	ldr	r3, [pc, #68]	@ (80017ac <SCH_DeleteTask+0x138>)
 8001768:	2200      	movs	r2, #0
 800176a:	f8c3 2094 	str.w	r2, [r3, #148]	@ 0x94
 800176e:	4b0f      	ldr	r3, [pc, #60]	@ (80017ac <SCH_DeleteTask+0x138>)
 8001770:	2200      	movs	r2, #0
 8001772:	f8c3 2098 	str.w	r2, [r3, #152]	@ 0x98
 8001776:	4b0d      	ldr	r3, [pc, #52]	@ (80017ac <SCH_DeleteTask+0x138>)
 8001778:	2200      	movs	r2, #0
 800177a:	f883 209c 	strb.w	r2, [r3, #156]	@ 0x9c
 800177e:	4b0b      	ldr	r3, [pc, #44]	@ (80017ac <SCH_DeleteTask+0x138>)
 8001780:	f8d3 308c 	ldr.w	r3, [r3, #140]	@ 0x8c
 8001784:	2b00      	cmp	r3, #0
 8001786:	bf0c      	ite	eq
 8001788:	2301      	moveq	r3, #1
 800178a:	2300      	movne	r3, #0
 800178c:	b2db      	uxtb	r3, r3
 800178e:	e007      	b.n	80017a0 <SCH_DeleteTask+0x12c>
 8001790:	7bfb      	ldrb	r3, [r7, #15]
 8001792:	3301      	adds	r3, #1
 8001794:	73fb      	strb	r3, [r7, #15]
 8001796:	7bfb      	ldrb	r3, [r7, #15]
 8001798:	2b07      	cmp	r3, #7
 800179a:	f67f af73 	bls.w	8001684 <SCH_DeleteTask+0x10>
 800179e:	2300      	movs	r3, #0
 80017a0:	4618      	mov	r0, r3
 80017a2:	3714      	adds	r7, #20
 80017a4:	46bd      	mov	sp, r7
 80017a6:	bcb0      	pop	{r4, r5, r7}
 80017a8:	4770      	bx	lr
 80017aa:	bf00      	nop
 80017ac:	200001d4 	.word	0x200001d4

080017b0 <SCH_RefreshTask>:
 80017b0:	b4b0      	push	{r4, r5, r7}
 80017b2:	b089      	sub	sp, #36	@ 0x24
 80017b4:	af00      	add	r7, sp, #0
 80017b6:	4b96      	ldr	r3, [pc, #600]	@ (8001a10 <SCH_RefreshTask+0x260>)
 80017b8:	681b      	ldr	r3, [r3, #0]
 80017ba:	2b00      	cmp	r3, #0
 80017bc:	d101      	bne.n	80017c2 <SCH_RefreshTask+0x12>
 80017be:	2300      	movs	r3, #0
 80017c0:	e120      	b.n	8001a04 <SCH_RefreshTask+0x254>
 80017c2:	4b93      	ldr	r3, [pc, #588]	@ (8001a10 <SCH_RefreshTask+0x260>)
 80017c4:	463c      	mov	r4, r7
 80017c6:	461d      	mov	r5, r3
 80017c8:	cd0f      	ldmia	r5!, {r0, r1, r2, r3}
 80017ca:	c40f      	stmia	r4!, {r0, r1, r2, r3}
 80017cc:	682b      	ldr	r3, [r5, #0]
 80017ce:	6023      	str	r3, [r4, #0]
 80017d0:	2300      	movs	r3, #0
 80017d2:	61fb      	str	r3, [r7, #28]
 80017d4:	2300      	movs	r3, #0
 80017d6:	76fb      	strb	r3, [r7, #27]
 80017d8:	e10f      	b.n	80019fa <SCH_RefreshTask+0x24a>
 80017da:	7efb      	ldrb	r3, [r7, #27]
 80017dc:	2b07      	cmp	r3, #7
 80017de:	d00a      	beq.n	80017f6 <SCH_RefreshTask+0x46>
 80017e0:	7efb      	ldrb	r3, [r7, #27]
 80017e2:	1c5a      	adds	r2, r3, #1
 80017e4:	498a      	ldr	r1, [pc, #552]	@ (8001a10 <SCH_RefreshTask+0x260>)
 80017e6:	4613      	mov	r3, r2
 80017e8:	009b      	lsls	r3, r3, #2
 80017ea:	4413      	add	r3, r2
 80017ec:	009b      	lsls	r3, r3, #2
 80017ee:	440b      	add	r3, r1
 80017f0:	681b      	ldr	r3, [r3, #0]
 80017f2:	2b00      	cmp	r3, #0
 80017f4:	d14a      	bne.n	800188c <SCH_RefreshTask+0xdc>
 80017f6:	7efa      	ldrb	r2, [r7, #27]
 80017f8:	6839      	ldr	r1, [r7, #0]
 80017fa:	4885      	ldr	r0, [pc, #532]	@ (8001a10 <SCH_RefreshTask+0x260>)
 80017fc:	4613      	mov	r3, r2
 80017fe:	009b      	lsls	r3, r3, #2
 8001800:	4413      	add	r3, r2
 8001802:	009b      	lsls	r3, r3, #2
 8001804:	4403      	add	r3, r0
 8001806:	6019      	str	r1, [r3, #0]
 8001808:	7efa      	ldrb	r2, [r7, #27]
 800180a:	7938      	ldrb	r0, [r7, #4]
 800180c:	4980      	ldr	r1, [pc, #512]	@ (8001a10 <SCH_RefreshTask+0x260>)
 800180e:	4613      	mov	r3, r2
 8001810:	009b      	lsls	r3, r3, #2
 8001812:	4413      	add	r3, r2
 8001814:	009b      	lsls	r3, r3, #2
 8001816:	440b      	add	r3, r1
 8001818:	3304      	adds	r3, #4
 800181a:	4602      	mov	r2, r0
 800181c:	701a      	strb	r2, [r3, #0]
 800181e:	7efa      	ldrb	r2, [r7, #27]
 8001820:	68f9      	ldr	r1, [r7, #12]
 8001822:	487b      	ldr	r0, [pc, #492]	@ (8001a10 <SCH_RefreshTask+0x260>)
 8001824:	4613      	mov	r3, r2
 8001826:	009b      	lsls	r3, r3, #2
 8001828:	4413      	add	r3, r2
 800182a:	009b      	lsls	r3, r3, #2
 800182c:	4403      	add	r3, r0
 800182e:	330c      	adds	r3, #12
 8001830:	6019      	str	r1, [r3, #0]
 8001832:	7efa      	ldrb	r2, [r7, #27]
 8001834:	4976      	ldr	r1, [pc, #472]	@ (8001a10 <SCH_RefreshTask+0x260>)
 8001836:	4613      	mov	r3, r2
 8001838:	009b      	lsls	r3, r3, #2
 800183a:	4413      	add	r3, r2
 800183c:	009b      	lsls	r3, r3, #2
 800183e:	440b      	add	r3, r1
 8001840:	3310      	adds	r3, #16
 8001842:	2200      	movs	r2, #0
 8001844:	701a      	strb	r2, [r3, #0]
 8001846:	68f9      	ldr	r1, [r7, #12]
 8001848:	7efa      	ldrb	r2, [r7, #27]
 800184a:	69fb      	ldr	r3, [r7, #28]
 800184c:	1ac9      	subs	r1, r1, r3
 800184e:	4870      	ldr	r0, [pc, #448]	@ (8001a10 <SCH_RefreshTask+0x260>)
 8001850:	4613      	mov	r3, r2
 8001852:	009b      	lsls	r3, r3, #2
 8001854:	4413      	add	r3, r2
 8001856:	009b      	lsls	r3, r3, #2
 8001858:	4403      	add	r3, r0
 800185a:	3308      	adds	r3, #8
 800185c:	6019      	str	r1, [r3, #0]
 800185e:	7efa      	ldrb	r2, [r7, #27]
 8001860:	496b      	ldr	r1, [pc, #428]	@ (8001a10 <SCH_RefreshTask+0x260>)
 8001862:	4613      	mov	r3, r2
 8001864:	009b      	lsls	r3, r3, #2
 8001866:	4413      	add	r3, r2
 8001868:	009b      	lsls	r3, r3, #2
 800186a:	440b      	add	r3, r1
 800186c:	3308      	adds	r3, #8
 800186e:	681b      	ldr	r3, [r3, #0]
 8001870:	2b00      	cmp	r3, #0
 8001872:	d109      	bne.n	8001888 <SCH_RefreshTask+0xd8>
 8001874:	7efa      	ldrb	r2, [r7, #27]
 8001876:	4966      	ldr	r1, [pc, #408]	@ (8001a10 <SCH_RefreshTask+0x260>)
 8001878:	4613      	mov	r3, r2
 800187a:	009b      	lsls	r3, r3, #2
 800187c:	4413      	add	r3, r2
 800187e:	009b      	lsls	r3, r3, #2
 8001880:	440b      	add	r3, r1
 8001882:	3310      	adds	r3, #16
 8001884:	2201      	movs	r2, #1
 8001886:	701a      	strb	r2, [r3, #0]
 8001888:	2301      	movs	r3, #1
 800188a:	e0bb      	b.n	8001a04 <SCH_RefreshTask+0x254>
 800188c:	7efb      	ldrb	r3, [r7, #27]
 800188e:	1c5a      	adds	r2, r3, #1
 8001890:	495f      	ldr	r1, [pc, #380]	@ (8001a10 <SCH_RefreshTask+0x260>)
 8001892:	4613      	mov	r3, r2
 8001894:	009b      	lsls	r3, r3, #2
 8001896:	4413      	add	r3, r2
 8001898:	009b      	lsls	r3, r3, #2
 800189a:	440b      	add	r3, r1
 800189c:	3308      	adds	r3, #8
 800189e:	681b      	ldr	r3, [r3, #0]
 80018a0:	69fa      	ldr	r2, [r7, #28]
 80018a2:	4413      	add	r3, r2
 80018a4:	61fb      	str	r3, [r7, #28]
 80018a6:	68fb      	ldr	r3, [r7, #12]
 80018a8:	69fa      	ldr	r2, [r7, #28]
 80018aa:	429a      	cmp	r2, r3
 80018ac:	f240 808d 	bls.w	80019ca <SCH_RefreshTask+0x21a>
 80018b0:	7efa      	ldrb	r2, [r7, #27]
 80018b2:	6839      	ldr	r1, [r7, #0]
 80018b4:	4856      	ldr	r0, [pc, #344]	@ (8001a10 <SCH_RefreshTask+0x260>)
 80018b6:	4613      	mov	r3, r2
 80018b8:	009b      	lsls	r3, r3, #2
 80018ba:	4413      	add	r3, r2
 80018bc:	009b      	lsls	r3, r3, #2
 80018be:	4403      	add	r3, r0
 80018c0:	6019      	str	r1, [r3, #0]
 80018c2:	7efa      	ldrb	r2, [r7, #27]
 80018c4:	7938      	ldrb	r0, [r7, #4]
 80018c6:	4952      	ldr	r1, [pc, #328]	@ (8001a10 <SCH_RefreshTask+0x260>)
 80018c8:	4613      	mov	r3, r2
 80018ca:	009b      	lsls	r3, r3, #2
 80018cc:	4413      	add	r3, r2
 80018ce:	009b      	lsls	r3, r3, #2
 80018d0:	440b      	add	r3, r1
 80018d2:	3304      	adds	r3, #4
 80018d4:	4602      	mov	r2, r0
 80018d6:	701a      	strb	r2, [r3, #0]
 80018d8:	7efa      	ldrb	r2, [r7, #27]
 80018da:	68f9      	ldr	r1, [r7, #12]
 80018dc:	484c      	ldr	r0, [pc, #304]	@ (8001a10 <SCH_RefreshTask+0x260>)
 80018de:	4613      	mov	r3, r2
 80018e0:	009b      	lsls	r3, r3, #2
 80018e2:	4413      	add	r3, r2
 80018e4:	009b      	lsls	r3, r3, #2
 80018e6:	4403      	add	r3, r0
 80018e8:	330c      	adds	r3, #12
 80018ea:	6019      	str	r1, [r3, #0]
 80018ec:	7efa      	ldrb	r2, [r7, #27]
 80018ee:	4948      	ldr	r1, [pc, #288]	@ (8001a10 <SCH_RefreshTask+0x260>)
 80018f0:	4613      	mov	r3, r2
 80018f2:	009b      	lsls	r3, r3, #2
 80018f4:	4413      	add	r3, r2
 80018f6:	009b      	lsls	r3, r3, #2
 80018f8:	440b      	add	r3, r1
 80018fa:	3310      	adds	r3, #16
 80018fc:	2200      	movs	r2, #0
 80018fe:	701a      	strb	r2, [r3, #0]
 8001900:	68fb      	ldr	r3, [r7, #12]
 8001902:	69fa      	ldr	r2, [r7, #28]
 8001904:	1ad3      	subs	r3, r2, r3
 8001906:	617b      	str	r3, [r7, #20]
 8001908:	7efb      	ldrb	r3, [r7, #27]
 800190a:	1c5a      	adds	r2, r3, #1
 800190c:	4940      	ldr	r1, [pc, #256]	@ (8001a10 <SCH_RefreshTask+0x260>)
 800190e:	4613      	mov	r3, r2
 8001910:	009b      	lsls	r3, r3, #2
 8001912:	4413      	add	r3, r2
 8001914:	009b      	lsls	r3, r3, #2
 8001916:	440b      	add	r3, r1
 8001918:	3308      	adds	r3, #8
 800191a:	6819      	ldr	r1, [r3, #0]
 800191c:	697b      	ldr	r3, [r7, #20]
 800191e:	7efa      	ldrb	r2, [r7, #27]
 8001920:	1ac9      	subs	r1, r1, r3
 8001922:	483b      	ldr	r0, [pc, #236]	@ (8001a10 <SCH_RefreshTask+0x260>)
 8001924:	4613      	mov	r3, r2
 8001926:	009b      	lsls	r3, r3, #2
 8001928:	4413      	add	r3, r2
 800192a:	009b      	lsls	r3, r3, #2
 800192c:	4403      	add	r3, r0
 800192e:	3308      	adds	r3, #8
 8001930:	6019      	str	r1, [r3, #0]
 8001932:	7efa      	ldrb	r2, [r7, #27]
 8001934:	4936      	ldr	r1, [pc, #216]	@ (8001a10 <SCH_RefreshTask+0x260>)
 8001936:	4613      	mov	r3, r2
 8001938:	009b      	lsls	r3, r3, #2
 800193a:	4413      	add	r3, r2
 800193c:	009b      	lsls	r3, r3, #2
 800193e:	440b      	add	r3, r1
 8001940:	3308      	adds	r3, #8
 8001942:	681b      	ldr	r3, [r3, #0]
 8001944:	2b00      	cmp	r3, #0
 8001946:	d109      	bne.n	800195c <SCH_RefreshTask+0x1ac>
 8001948:	7efa      	ldrb	r2, [r7, #27]
 800194a:	4931      	ldr	r1, [pc, #196]	@ (8001a10 <SCH_RefreshTask+0x260>)
 800194c:	4613      	mov	r3, r2
 800194e:	009b      	lsls	r3, r3, #2
 8001950:	4413      	add	r3, r2
 8001952:	009b      	lsls	r3, r3, #2
 8001954:	440b      	add	r3, r1
 8001956:	3310      	adds	r3, #16
 8001958:	2201      	movs	r2, #1
 800195a:	701a      	strb	r2, [r3, #0]
 800195c:	7efb      	ldrb	r3, [r7, #27]
 800195e:	1c5a      	adds	r2, r3, #1
 8001960:	492b      	ldr	r1, [pc, #172]	@ (8001a10 <SCH_RefreshTask+0x260>)
 8001962:	4613      	mov	r3, r2
 8001964:	009b      	lsls	r3, r3, #2
 8001966:	4413      	add	r3, r2
 8001968:	009b      	lsls	r3, r3, #2
 800196a:	440b      	add	r3, r1
 800196c:	3308      	adds	r3, #8
 800196e:	6819      	ldr	r1, [r3, #0]
 8001970:	7efa      	ldrb	r2, [r7, #27]
 8001972:	4827      	ldr	r0, [pc, #156]	@ (8001a10 <SCH_RefreshTask+0x260>)
 8001974:	4613      	mov	r3, r2
 8001976:	009b      	lsls	r3, r3, #2
 8001978:	4413      	add	r3, r2
 800197a:	009b      	lsls	r3, r3, #2
 800197c:	4403      	add	r3, r0
 800197e:	3308      	adds	r3, #8
 8001980:	681b      	ldr	r3, [r3, #0]
 8001982:	7efa      	ldrb	r2, [r7, #27]
 8001984:	3201      	adds	r2, #1
 8001986:	1ac9      	subs	r1, r1, r3
 8001988:	4821      	ldr	r0, [pc, #132]	@ (8001a10 <SCH_RefreshTask+0x260>)
 800198a:	4613      	mov	r3, r2
 800198c:	009b      	lsls	r3, r3, #2
 800198e:	4413      	add	r3, r2
 8001990:	009b      	lsls	r3, r3, #2
 8001992:	4403      	add	r3, r0
 8001994:	3308      	adds	r3, #8
 8001996:	6019      	str	r1, [r3, #0]
 8001998:	7efb      	ldrb	r3, [r7, #27]
 800199a:	1c5a      	adds	r2, r3, #1
 800199c:	491c      	ldr	r1, [pc, #112]	@ (8001a10 <SCH_RefreshTask+0x260>)
 800199e:	4613      	mov	r3, r2
 80019a0:	009b      	lsls	r3, r3, #2
 80019a2:	4413      	add	r3, r2
 80019a4:	009b      	lsls	r3, r3, #2
 80019a6:	440b      	add	r3, r1
 80019a8:	3308      	adds	r3, #8
 80019aa:	681b      	ldr	r3, [r3, #0]
 80019ac:	2b00      	cmp	r3, #0
 80019ae:	d10a      	bne.n	80019c6 <SCH_RefreshTask+0x216>
 80019b0:	7efb      	ldrb	r3, [r7, #27]
 80019b2:	1c5a      	adds	r2, r3, #1
 80019b4:	4916      	ldr	r1, [pc, #88]	@ (8001a10 <SCH_RefreshTask+0x260>)
 80019b6:	4613      	mov	r3, r2
 80019b8:	009b      	lsls	r3, r3, #2
 80019ba:	4413      	add	r3, r2
 80019bc:	009b      	lsls	r3, r3, #2
 80019be:	440b      	add	r3, r1
 80019c0:	3310      	adds	r3, #16
 80019c2:	2201      	movs	r2, #1
 80019c4:	701a      	strb	r2, [r3, #0]
 80019c6:	2301      	movs	r3, #1
 80019c8:	e01c      	b.n	8001a04 <SCH_RefreshTask+0x254>
 80019ca:	7efb      	ldrb	r3, [r7, #27]
 80019cc:	1c5a      	adds	r2, r3, #1
 80019ce:	7ef9      	ldrb	r1, [r7, #27]
 80019d0:	480f      	ldr	r0, [pc, #60]	@ (8001a10 <SCH_RefreshTask+0x260>)
 80019d2:	460b      	mov	r3, r1
 80019d4:	009b      	lsls	r3, r3, #2
 80019d6:	440b      	add	r3, r1
 80019d8:	009b      	lsls	r3, r3, #2
 80019da:	4418      	add	r0, r3
 80019dc:	490c      	ldr	r1, [pc, #48]	@ (8001a10 <SCH_RefreshTask+0x260>)
 80019de:	4613      	mov	r3, r2
 80019e0:	009b      	lsls	r3, r3, #2
 80019e2:	4413      	add	r3, r2
 80019e4:	009b      	lsls	r3, r3, #2
 80019e6:	440b      	add	r3, r1
 80019e8:	4604      	mov	r4, r0
 80019ea:	461d      	mov	r5, r3
 80019ec:	cd0f      	ldmia	r5!, {r0, r1, r2, r3}
 80019ee:	c40f      	stmia	r4!, {r0, r1, r2, r3}
 80019f0:	682b      	ldr	r3, [r5, #0]
 80019f2:	6023      	str	r3, [r4, #0]
 80019f4:	7efb      	ldrb	r3, [r7, #27]
 80019f6:	3301      	adds	r3, #1
 80019f8:	76fb      	strb	r3, [r7, #27]
 80019fa:	7efb      	ldrb	r3, [r7, #27]
 80019fc:	2b07      	cmp	r3, #7
 80019fe:	f67f aeec 	bls.w	80017da <SCH_RefreshTask+0x2a>
 8001a02:	2300      	movs	r3, #0
 8001a04:	4618      	mov	r0, r3
 8001a06:	3724      	adds	r7, #36	@ 0x24
 8001a08:	46bd      	mov	sp, r7
 8001a0a:	bcb0      	pop	{r4, r5, r7}
 8001a0c:	4770      	bx	lr
 8001a0e:	bf00      	nop
 8001a10:	200001d4 	.word	0x200001d4

08001a14 <timerSet>:
 8001a14:	b480      	push	{r7}
 8001a16:	b083      	sub	sp, #12
 8001a18:	af00      	add	r7, sp, #0
 8001a1a:	6078      	str	r0, [r7, #4]
 8001a1c:	6039      	str	r1, [r7, #0]
 8001a1e:	683b      	ldr	r3, [r7, #0]
 8001a20:	2b00      	cmp	r3, #0
 8001a22:	db0d      	blt.n	8001a40 <timerSet+0x2c>
 8001a24:	683b      	ldr	r3, [r7, #0]
 8001a26:	2b09      	cmp	r3, #9
 8001a28:	dc0a      	bgt.n	8001a40 <timerSet+0x2c>
 8001a2a:	687b      	ldr	r3, [r7, #4]
 8001a2c:	b219      	sxth	r1, r3
 8001a2e:	4a07      	ldr	r2, [pc, #28]	@ (8001a4c <timerSet+0x38>)
 8001a30:	683b      	ldr	r3, [r7, #0]
 8001a32:	f822 1013 	strh.w	r1, [r2, r3, lsl #1]
 8001a36:	4a06      	ldr	r2, [pc, #24]	@ (8001a50 <timerSet+0x3c>)
 8001a38:	683b      	ldr	r3, [r7, #0]
 8001a3a:	4413      	add	r3, r2
 8001a3c:	2200      	movs	r2, #0
 8001a3e:	701a      	strb	r2, [r3, #0]
 8001a40:	bf00      	nop
 8001a42:	370c      	adds	r7, #12
 8001a44:	46bd      	mov	sp, r7
 8001a46:	bc80      	pop	{r7}
 8001a48:	4770      	bx	lr
 8001a4a:	bf00      	nop
 8001a4c:	20000280 	.word	0x20000280
 8001a50:	20000274 	.word	0x20000274

08001a54 <timerRun>:
 8001a54:	b480      	push	{r7}
 8001a56:	b083      	sub	sp, #12
 8001a58:	af00      	add	r7, sp, #0
 8001a5a:	2300      	movs	r3, #0
 8001a5c:	607b      	str	r3, [r7, #4]
 8001a5e:	e01f      	b.n	8001aa0 <timerRun+0x4c>
 8001a60:	4a14      	ldr	r2, [pc, #80]	@ (8001ab4 <timerRun+0x60>)
 8001a62:	687b      	ldr	r3, [r7, #4]
 8001a64:	f932 3013 	ldrsh.w	r3, [r2, r3, lsl #1]
 8001a68:	2b00      	cmp	r3, #0
 8001a6a:	dd16      	ble.n	8001a9a <timerRun+0x46>
 8001a6c:	4a11      	ldr	r2, [pc, #68]	@ (8001ab4 <timerRun+0x60>)
 8001a6e:	687b      	ldr	r3, [r7, #4]
 8001a70:	f932 3013 	ldrsh.w	r3, [r2, r3, lsl #1]
 8001a74:	b29b      	uxth	r3, r3
 8001a76:	3b01      	subs	r3, #1
 8001a78:	b29b      	uxth	r3, r3
 8001a7a:	b219      	sxth	r1, r3
 8001a7c:	4a0d      	ldr	r2, [pc, #52]	@ (8001ab4 <timerRun+0x60>)
 8001a7e:	687b      	ldr	r3, [r7, #4]
 8001a80:	f822 1013 	strh.w	r1, [r2, r3, lsl #1]
 8001a84:	4a0b      	ldr	r2, [pc, #44]	@ (8001ab4 <timerRun+0x60>)
 8001a86:	687b      	ldr	r3, [r7, #4]
 8001a88:	f932 3013 	ldrsh.w	r3, [r2, r3, lsl #1]
 8001a8c:	2b00      	cmp	r3, #0
 8001a8e:	dc04      	bgt.n	8001a9a <timerRun+0x46>
 8001a90:	4a09      	ldr	r2, [pc, #36]	@ (8001ab8 <timerRun+0x64>)
 8001a92:	687b      	ldr	r3, [r7, #4]
 8001a94:	4413      	add	r3, r2
 8001a96:	2201      	movs	r2, #1
 8001a98:	701a      	strb	r2, [r3, #0]
 8001a9a:	687b      	ldr	r3, [r7, #4]
 8001a9c:	3301      	adds	r3, #1
 8001a9e:	607b      	str	r3, [r7, #4]
 8001aa0:	687b      	ldr	r3, [r7, #4]
 8001aa2:	2b09      	cmp	r3, #9
 8001aa4:	dddc      	ble.n	8001a60 <timerRun+0xc>
 8001aa6:	bf00      	nop
 8001aa8:	bf00      	nop
 8001aaa:	370c      	adds	r7, #12
 8001aac:	46bd      	mov	sp, r7
 8001aae:	bc80      	pop	{r7}
 8001ab0:	4770      	bx	lr
 8001ab2:	bf00      	nop
 8001ab4:	20000280 	.word	0x20000280
 8001ab8:	20000274 	.word	0x20000274

08001abc <HAL_MspInit>:
 8001abc:	b480      	push	{r7}
 8001abe:	b085      	sub	sp, #20
 8001ac0:	af00      	add	r7, sp, #0
 8001ac2:	4b15      	ldr	r3, [pc, #84]	@ (8001b18 <HAL_MspInit+0x5c>)
 8001ac4:	699b      	ldr	r3, [r3, #24]
 8001ac6:	4a14      	ldr	r2, [pc, #80]	@ (8001b18 <HAL_MspInit+0x5c>)
 8001ac8:	f043 0301 	orr.w	r3, r3, #1
 8001acc:	6193      	str	r3, [r2, #24]
 8001ace:	4b12      	ldr	r3, [pc, #72]	@ (8001b18 <HAL_MspInit+0x5c>)
 8001ad0:	699b      	ldr	r3, [r3, #24]
 8001ad2:	f003 0301 	and.w	r3, r3, #1
 8001ad6:	60bb      	str	r3, [r7, #8]
 8001ad8:	68bb      	ldr	r3, [r7, #8]
 8001ada:	4b0f      	ldr	r3, [pc, #60]	@ (8001b18 <HAL_MspInit+0x5c>)
 8001adc:	69db      	ldr	r3, [r3, #28]
 8001ade:	4a0e      	ldr	r2, [pc, #56]	@ (8001b18 <HAL_MspInit+0x5c>)
 8001ae0:	f043 5380 	orr.w	r3, r3, #268435456	@ 0x10000000
 8001ae4:	61d3      	str	r3, [r2, #28]
 8001ae6:	4b0c      	ldr	r3, [pc, #48]	@ (8001b18 <HAL_MspInit+0x5c>)
 8001ae8:	69db      	ldr	r3, [r3, #28]
 8001aea:	f003 5380 	and.w	r3, r3, #268435456	@ 0x10000000
 8001aee:	607b      	str	r3, [r7, #4]
 8001af0:	687b      	ldr	r3, [r7, #4]
 8001af2:	4b0a      	ldr	r3, [pc, #40]	@ (8001b1c <HAL_MspInit+0x60>)
 8001af4:	685b      	ldr	r3, [r3, #4]
 8001af6:	60fb      	str	r3, [r7, #12]
 8001af8:	68fb      	ldr	r3, [r7, #12]
 8001afa:	f023 63e0 	bic.w	r3, r3, #117440512	@ 0x7000000
 8001afe:	60fb      	str	r3, [r7, #12]
 8001b00:	68fb      	ldr	r3, [r7, #12]
 8001b02:	f043 7300 	orr.w	r3, r3, #33554432	@ 0x2000000
 8001b06:	60fb      	str	r3, [r7, #12]
 8001b08:	4a04      	ldr	r2, [pc, #16]	@ (8001b1c <HAL_MspInit+0x60>)
 8001b0a:	68fb      	ldr	r3, [r7, #12]
 8001b0c:	6053      	str	r3, [r2, #4]
 8001b0e:	bf00      	nop
 8001b10:	3714      	adds	r7, #20
 8001b12:	46bd      	mov	sp, r7
 8001b14:	bc80      	pop	{r7}
 8001b16:	4770      	bx	lr
 8001b18:	40021000 	.word	0x40021000
 8001b1c:	40010000 	.word	0x40010000

08001b20 <HAL_ADC_MspInit>:
 8001b20:	b580      	push	{r7, lr}
 8001b22:	b088      	sub	sp, #32
 8001b24:	af00      	add	r7, sp, #0
 8001b26:	6078      	str	r0, [r7, #4]
 8001b28:	f107 0310 	add.w	r3, r7, #16
 8001b2c:	2200      	movs	r2, #0
 8001b2e:	601a      	str	r2, [r3, #0]
 8001b30:	605a      	str	r2, [r3, #4]
 8001b32:	609a      	str	r2, [r3, #8]
 8001b34:	60da      	str	r2, [r3, #12]
 8001b36:	687b      	ldr	r3, [r7, #4]
 8001b38:	681b      	ldr	r3, [r3, #0]
 8001b3a:	4a14      	ldr	r2, [pc, #80]	@ (8001b8c <HAL_ADC_MspInit+0x6c>)
 8001b3c:	4293      	cmp	r3, r2
 8001b3e:	d121      	bne.n	8001b84 <HAL_ADC_MspInit+0x64>
 8001b40:	4b13      	ldr	r3, [pc, #76]	@ (8001b90 <HAL_ADC_MspInit+0x70>)
 8001b42:	699b      	ldr	r3, [r3, #24]
 8001b44:	4a12      	ldr	r2, [pc, #72]	@ (8001b90 <HAL_ADC_MspInit+0x70>)
 8001b46:	f443 7300 	orr.w	r3, r3, #512	@ 0x200
 8001b4a:	6193      	str	r3, [r2, #24]
 8001b4c:	4b10      	ldr	r3, [pc, #64]	@ (8001b90 <HAL_ADC_MspInit+0x70>)
 8001b4e:	699b      	ldr	r3, [r3, #24]
 8001b50:	f403 7300 	and.w	r3, r3, #512	@ 0x200
 8001b54:	60fb      	str	r3, [r7, #12]
 8001b56:	68fb      	ldr	r3, [r7, #12]
 8001b58:	4b0d      	ldr	r3, [pc, #52]	@ (8001b90 <HAL_ADC_MspInit+0x70>)
 8001b5a:	699b      	ldr	r3, [r3, #24]
 8001b5c:	4a0c      	ldr	r2, [pc, #48]	@ (8001b90 <HAL_ADC_MspInit+0x70>)
 8001b5e:	f043 0304 	orr.w	r3, r3, #4
 8001b62:	6193      	str	r3, [r2, #24]
 8001b64:	4b0a      	ldr	r3, [pc, #40]	@ (8001b90 <HAL_ADC_MspInit+0x70>)
 8001b66:	699b      	ldr	r3, [r3, #24]
 8001b68:	f003 0304 	and.w	r3, r3, #4
 8001b6c:	60bb      	str	r3, [r7, #8]
 8001b6e:	68bb      	ldr	r3, [r7, #8]
 8001b70:	2301      	movs	r3, #1
 8001b72:	613b      	str	r3, [r7, #16]
 8001b74:	2303      	movs	r3, #3
 8001b76:	617b      	str	r3, [r7, #20]
 8001b78:	f107 0310 	add.w	r3, r7, #16
 8001b7c:	4619      	mov	r1, r3
 8001b7e:	4805      	ldr	r0, [pc, #20]	@ (8001b94 <HAL_ADC_MspInit+0x74>)
 8001b80:	f001 f9f0 	bl	8002f64 <HAL_GPIO_Init>
 8001b84:	bf00      	nop
 8001b86:	3720      	adds	r7, #32
 8001b88:	46bd      	mov	sp, r7
 8001b8a:	bd80      	pop	{r7, pc}
 8001b8c:	40012400 	.word	0x40012400
 8001b90:	40021000 	.word	0x40021000
 8001b94:	40010800 	.word	0x40010800

08001b98 <HAL_I2C_MspInit>:
 8001b98:	b580      	push	{r7, lr}
 8001b9a:	b08a      	sub	sp, #40	@ 0x28
 8001b9c:	af00      	add	r7, sp, #0
 8001b9e:	6078      	str	r0, [r7, #4]
 8001ba0:	f107 0314 	add.w	r3, r7, #20
 8001ba4:	2200      	movs	r2, #0
 8001ba6:	601a      	str	r2, [r3, #0]
 8001ba8:	605a      	str	r2, [r3, #4]
 8001baa:	609a      	str	r2, [r3, #8]
 8001bac:	60da      	str	r2, [r3, #12]
 8001bae:	687b      	ldr	r3, [r7, #4]
 8001bb0:	681b      	ldr	r3, [r3, #0]
 8001bb2:	4a1d      	ldr	r2, [pc, #116]	@ (8001c28 <HAL_I2C_MspInit+0x90>)
 8001bb4:	4293      	cmp	r3, r2
 8001bb6:	d132      	bne.n	8001c1e <HAL_I2C_MspInit+0x86>
 8001bb8:	4b1c      	ldr	r3, [pc, #112]	@ (8001c2c <HAL_I2C_MspInit+0x94>)
 8001bba:	699b      	ldr	r3, [r3, #24]
 8001bbc:	4a1b      	ldr	r2, [pc, #108]	@ (8001c2c <HAL_I2C_MspInit+0x94>)
 8001bbe:	f043 0308 	orr.w	r3, r3, #8
 8001bc2:	6193      	str	r3, [r2, #24]
 8001bc4:	4b19      	ldr	r3, [pc, #100]	@ (8001c2c <HAL_I2C_MspInit+0x94>)
 8001bc6:	699b      	ldr	r3, [r3, #24]
 8001bc8:	f003 0308 	and.w	r3, r3, #8
 8001bcc:	613b      	str	r3, [r7, #16]
 8001bce:	693b      	ldr	r3, [r7, #16]
 8001bd0:	f44f 7340 	mov.w	r3, #768	@ 0x300
 8001bd4:	617b      	str	r3, [r7, #20]
 8001bd6:	2312      	movs	r3, #18
 8001bd8:	61bb      	str	r3, [r7, #24]
 8001bda:	2303      	movs	r3, #3
 8001bdc:	623b      	str	r3, [r7, #32]
 8001bde:	f107 0314 	add.w	r3, r7, #20
 8001be2:	4619      	mov	r1, r3
 8001be4:	4812      	ldr	r0, [pc, #72]	@ (8001c30 <HAL_I2C_MspInit+0x98>)
 8001be6:	f001 f9bd 	bl	8002f64 <HAL_GPIO_Init>
 8001bea:	4b12      	ldr	r3, [pc, #72]	@ (8001c34 <HAL_I2C_MspInit+0x9c>)
 8001bec:	685b      	ldr	r3, [r3, #4]
 8001bee:	627b      	str	r3, [r7, #36]	@ 0x24
 8001bf0:	6a7b      	ldr	r3, [r7, #36]	@ 0x24
 8001bf2:	f043 63e0 	orr.w	r3, r3, #117440512	@ 0x7000000
 8001bf6:	627b      	str	r3, [r7, #36]	@ 0x24
 8001bf8:	6a7b      	ldr	r3, [r7, #36]	@ 0x24
 8001bfa:	f043 0302 	orr.w	r3, r3, #2
 8001bfe:	627b      	str	r3, [r7, #36]	@ 0x24
 8001c00:	4a0c      	ldr	r2, [pc, #48]	@ (8001c34 <HAL_I2C_MspInit+0x9c>)
 8001c02:	6a7b      	ldr	r3, [r7, #36]	@ 0x24
 8001c04:	6053      	str	r3, [r2, #4]
 8001c06:	4b09      	ldr	r3, [pc, #36]	@ (8001c2c <HAL_I2C_MspInit+0x94>)
 8001c08:	69db      	ldr	r3, [r3, #28]
 8001c0a:	4a08      	ldr	r2, [pc, #32]	@ (8001c2c <HAL_I2C_MspInit+0x94>)
 8001c0c:	f443 1300 	orr.w	r3, r3, #2097152	@ 0x200000
 8001c10:	61d3      	str	r3, [r2, #28]
 8001c12:	4b06      	ldr	r3, [pc, #24]	@ (8001c2c <HAL_I2C_MspInit+0x94>)
 8001c14:	69db      	ldr	r3, [r3, #28]
 8001c16:	f403 1300 	and.w	r3, r3, #2097152	@ 0x200000
 8001c1a:	60fb      	str	r3, [r7, #12]
 8001c1c:	68fb      	ldr	r3, [r7, #12]
 8001c1e:	bf00      	nop
 8001c20:	3728      	adds	r7, #40	@ 0x28
 8001c22:	46bd      	mov	sp, r7
 8001c24:	bd80      	pop	{r7, pc}
 8001c26:	bf00      	nop
 8001c28:	40005400 	.word	0x40005400
 8001c2c:	40021000 	.word	0x40021000
 8001c30:	40010c00 	.word	0x40010c00
 8001c34:	40010000 	.word	0x40010000

08001c38 <HAL_TIM_Base_MspInit>:
 8001c38:	b580      	push	{r7, lr}
 8001c3a:	b084      	sub	sp, #16
 8001c3c:	af00      	add	r7, sp, #0
 8001c3e:	6078      	str	r0, [r7, #4]
 8001c40:	687b      	ldr	r3, [r7, #4]
 8001c42:	681b      	ldr	r3, [r3, #0]
 8001c44:	f1b3 4f80 	cmp.w	r3, #1073741824	@ 0x40000000
 8001c48:	d113      	bne.n	8001c72 <HAL_TIM_Base_MspInit+0x3a>
 8001c4a:	4b0c      	ldr	r3, [pc, #48]	@ (8001c7c <HAL_TIM_Base_MspInit+0x44>)
 8001c4c:	69db      	ldr	r3, [r3, #28]
 8001c4e:	4a0b      	ldr	r2, [pc, #44]	@ (8001c7c <HAL_TIM_Base_MspInit+0x44>)
 8001c50:	f043 0301 	orr.w	r3, r3, #1
 8001c54:	61d3      	str	r3, [r2, #28]
 8001c56:	4b09      	ldr	r3, [pc, #36]	@ (8001c7c <HAL_TIM_Base_MspInit+0x44>)
 8001c58:	69db      	ldr	r3, [r3, #28]
 8001c5a:	f003 0301 	and.w	r3, r3, #1
 8001c5e:	60fb      	str	r3, [r7, #12]
 8001c60:	68fb      	ldr	r3, [r7, #12]
 8001c62:	2200      	movs	r2, #0
 8001c64:	2100      	movs	r1, #0
 8001c66:	201c      	movs	r0, #28
 8001c68:	f001 f893 	bl	8002d92 <HAL_NVIC_SetPriority>
 8001c6c:	201c      	movs	r0, #28
 8001c6e:	f001 f8ac 	bl	8002dca <HAL_NVIC_EnableIRQ>
 8001c72:	bf00      	nop
 8001c74:	3710      	adds	r7, #16
 8001c76:	46bd      	mov	sp, r7
 8001c78:	bd80      	pop	{r7, pc}
 8001c7a:	bf00      	nop
 8001c7c:	40021000 	.word	0x40021000

08001c80 <HAL_UART_MspInit>:
 8001c80:	b580      	push	{r7, lr}
 8001c82:	b088      	sub	sp, #32
 8001c84:	af00      	add	r7, sp, #0
 8001c86:	6078      	str	r0, [r7, #4]
 8001c88:	f107 0310 	add.w	r3, r7, #16
 8001c8c:	2200      	movs	r2, #0
 8001c8e:	601a      	str	r2, [r3, #0]
 8001c90:	605a      	str	r2, [r3, #4]
 8001c92:	609a      	str	r2, [r3, #8]
 8001c94:	60da      	str	r2, [r3, #12]
 8001c96:	687b      	ldr	r3, [r7, #4]
 8001c98:	681b      	ldr	r3, [r3, #0]
 8001c9a:	4a1f      	ldr	r2, [pc, #124]	@ (8001d18 <HAL_UART_MspInit+0x98>)
 8001c9c:	4293      	cmp	r3, r2
 8001c9e:	d137      	bne.n	8001d10 <HAL_UART_MspInit+0x90>
 8001ca0:	4b1e      	ldr	r3, [pc, #120]	@ (8001d1c <HAL_UART_MspInit+0x9c>)
 8001ca2:	69db      	ldr	r3, [r3, #28]
 8001ca4:	4a1d      	ldr	r2, [pc, #116]	@ (8001d1c <HAL_UART_MspInit+0x9c>)
 8001ca6:	f443 3300 	orr.w	r3, r3, #131072	@ 0x20000
 8001caa:	61d3      	str	r3, [r2, #28]
 8001cac:	4b1b      	ldr	r3, [pc, #108]	@ (8001d1c <HAL_UART_MspInit+0x9c>)
 8001cae:	69db      	ldr	r3, [r3, #28]
 8001cb0:	f403 3300 	and.w	r3, r3, #131072	@ 0x20000
 8001cb4:	60fb      	str	r3, [r7, #12]
 8001cb6:	68fb      	ldr	r3, [r7, #12]
 8001cb8:	4b18      	ldr	r3, [pc, #96]	@ (8001d1c <HAL_UART_MspInit+0x9c>)
 8001cba:	699b      	ldr	r3, [r3, #24]
 8001cbc:	4a17      	ldr	r2, [pc, #92]	@ (8001d1c <HAL_UART_MspInit+0x9c>)
 8001cbe:	f043 0304 	orr.w	r3, r3, #4
 8001cc2:	6193      	str	r3, [r2, #24]
 8001cc4:	4b15      	ldr	r3, [pc, #84]	@ (8001d1c <HAL_UART_MspInit+0x9c>)
 8001cc6:	699b      	ldr	r3, [r3, #24]
 8001cc8:	f003 0304 	and.w	r3, r3, #4
 8001ccc:	60bb      	str	r3, [r7, #8]
 8001cce:	68bb      	ldr	r3, [r7, #8]
 8001cd0:	2304      	movs	r3, #4
 8001cd2:	613b      	str	r3, [r7, #16]
 8001cd4:	2302      	movs	r3, #2
 8001cd6:	617b      	str	r3, [r7, #20]
 8001cd8:	2303      	movs	r3, #3
 8001cda:	61fb      	str	r3, [r7, #28]
 8001cdc:	f107 0310 	add.w	r3, r7, #16
 8001ce0:	4619      	mov	r1, r3
 8001ce2:	480f      	ldr	r0, [pc, #60]	@ (8001d20 <HAL_UART_MspInit+0xa0>)
 8001ce4:	f001 f93e 	bl	8002f64 <HAL_GPIO_Init>
 8001ce8:	2308      	movs	r3, #8
 8001cea:	613b      	str	r3, [r7, #16]
 8001cec:	2300      	movs	r3, #0
 8001cee:	617b      	str	r3, [r7, #20]
 8001cf0:	2300      	movs	r3, #0
 8001cf2:	61bb      	str	r3, [r7, #24]
 8001cf4:	f107 0310 	add.w	r3, r7, #16
 8001cf8:	4619      	mov	r1, r3
 8001cfa:	4809      	ldr	r0, [pc, #36]	@ (8001d20 <HAL_UART_MspInit+0xa0>)
 8001cfc:	f001 f932 	bl	8002f64 <HAL_GPIO_Init>
 8001d00:	2200      	movs	r2, #0
 8001d02:	2100      	movs	r1, #0
 8001d04:	2026      	movs	r0, #38	@ 0x26
 8001d06:	f001 f844 	bl	8002d92 <HAL_NVIC_SetPriority>
 8001d0a:	2026      	movs	r0, #38	@ 0x26
 8001d0c:	f001 f85d 	bl	8002dca <HAL_NVIC_EnableIRQ>
 8001d10:	bf00      	nop
 8001d12:	3720      	adds	r7, #32
 8001d14:	46bd      	mov	sp, r7
 8001d16:	bd80      	pop	{r7, pc}
 8001d18:	40004400 	.word	0x40004400
 8001d1c:	40021000 	.word	0x40021000
 8001d20:	40010800 	.word	0x40010800

08001d24 <NMI_Handler>:
 8001d24:	b480      	push	{r7}
 8001d26:	af00      	add	r7, sp, #0
 8001d28:	bf00      	nop
 8001d2a:	e7fd      	b.n	8001d28 <NMI_Handler+0x4>

08001d2c <HardFault_Handler>:
 8001d2c:	b480      	push	{r7}
 8001d2e:	af00      	add	r7, sp, #0
 8001d30:	bf00      	nop
 8001d32:	e7fd      	b.n	8001d30 <HardFault_Handler+0x4>

08001d34 <MemManage_Handler>:
 8001d34:	b480      	push	{r7}
 8001d36:	af00      	add	r7, sp, #0
 8001d38:	bf00      	nop
 8001d3a:	e7fd      	b.n	8001d38 <MemManage_Handler+0x4>

08001d3c <BusFault_Handler>:
 8001d3c:	b480      	push	{r7}
 8001d3e:	af00      	add	r7, sp, #0
 8001d40:	bf00      	nop
 8001d42:	e7fd      	b.n	8001d40 <BusFault_Handler+0x4>

08001d44 <UsageFault_Handler>:
 8001d44:	b480      	push	{r7}
 8001d46:	af00      	add	r7, sp, #0
 8001d48:	bf00      	nop
 8001d4a:	e7fd      	b.n	8001d48 <UsageFault_Handler+0x4>

08001d4c <SVC_Handler>:
 8001d4c:	b480      	push	{r7}
 8001d4e:	af00      	add	r7, sp, #0
 8001d50:	bf00      	nop
 8001d52:	46bd      	mov	sp, r7
 8001d54:	bc80      	pop	{r7}
 8001d56:	4770      	bx	lr

08001d58 <DebugMon_Handler>:
 8001d58:	b480      	push	{r7}
 8001d5a:	af00      	add	r7, sp, #0
 8001d5c:	bf00      	nop
 8001d5e:	46bd      	mov	sp, r7
 8001d60:	bc80      	pop	{r7}
 8001d62:	4770      	bx	lr

08001d64 <PendSV_Handler>:
 8001d64:	b480      	push	{r7}
 8001d66:	af00      	add	r7, sp, #0
 8001d68:	bf00      	nop
 8001d6a:	46bd      	mov	sp, r7
 8001d6c:	bc80      	pop	{r7}
 8001d6e:	4770      	bx	lr

08001d70 <SysTick_Handler>:
 8001d70:	b580      	push	{r7, lr}
 8001d72:	af00      	add	r7, sp, #0
 8001d74:	f000 faca 	bl	800230c <HAL_IncTick>
 8001d78:	bf00      	nop
 8001d7a:	bd80      	pop	{r7, pc}

08001d7c <TIM2_IRQHandler>:
 8001d7c:	b580      	push	{r7, lr}
 8001d7e:	af00      	add	r7, sp, #0
 8001d80:	4802      	ldr	r0, [pc, #8]	@ (8001d8c <TIM2_IRQHandler+0x10>)
 8001d82:	f003 fa23 	bl	80051cc <HAL_TIM_IRQHandler>
 8001d86:	bf00      	nop
 8001d88:	bd80      	pop	{r7, pc}
 8001d8a:	bf00      	nop
 8001d8c:	20000138 	.word	0x20000138

08001d90 <USART2_IRQHandler>:
 8001d90:	b580      	push	{r7, lr}
 8001d92:	af00      	add	r7, sp, #0
 8001d94:	4802      	ldr	r0, [pc, #8]	@ (8001da0 <USART2_IRQHandler+0x10>)
 8001d96:	f003 fe69 	bl	8005a6c <HAL_UART_IRQHandler>
 8001d9a:	bf00      	nop
 8001d9c:	bd80      	pop	{r7, pc}
 8001d9e:	bf00      	nop
 8001da0:	20000180 	.word	0x20000180

08001da4 <_sbrk>:
 8001da4:	b580      	push	{r7, lr}
 8001da6:	b086      	sub	sp, #24
 8001da8:	af00      	add	r7, sp, #0
 8001daa:	6078      	str	r0, [r7, #4]
 8001dac:	4a14      	ldr	r2, [pc, #80]	@ (8001e00 <_sbrk+0x5c>)
 8001dae:	4b15      	ldr	r3, [pc, #84]	@ (8001e04 <_sbrk+0x60>)
 8001db0:	1ad3      	subs	r3, r2, r3
 8001db2:	617b      	str	r3, [r7, #20]
 8001db4:	697b      	ldr	r3, [r7, #20]
 8001db6:	613b      	str	r3, [r7, #16]
 8001db8:	4b13      	ldr	r3, [pc, #76]	@ (8001e08 <_sbrk+0x64>)
 8001dba:	681b      	ldr	r3, [r3, #0]
 8001dbc:	2b00      	cmp	r3, #0
 8001dbe:	d102      	bne.n	8001dc6 <_sbrk+0x22>
 8001dc0:	4b11      	ldr	r3, [pc, #68]	@ (8001e08 <_sbrk+0x64>)
 8001dc2:	4a12      	ldr	r2, [pc, #72]	@ (8001e0c <_sbrk+0x68>)
 8001dc4:	601a      	str	r2, [r3, #0]
 8001dc6:	4b10      	ldr	r3, [pc, #64]	@ (8001e08 <_sbrk+0x64>)
 8001dc8:	681a      	ldr	r2, [r3, #0]
 8001dca:	687b      	ldr	r3, [r7, #4]
 8001dcc:	4413      	add	r3, r2
 8001dce:	693a      	ldr	r2, [r7, #16]
 8001dd0:	429a      	cmp	r2, r3
 8001dd2:	d207      	bcs.n	8001de4 <_sbrk+0x40>
 8001dd4:	f004 fc10 	bl	80065f8 <__errno>
 8001dd8:	4603      	mov	r3, r0
 8001dda:	220c      	movs	r2, #12
 8001ddc:	601a      	str	r2, [r3, #0]
 8001dde:	f04f 33ff 	mov.w	r3, #4294967295
 8001de2:	e009      	b.n	8001df8 <_sbrk+0x54>
 8001de4:	4b08      	ldr	r3, [pc, #32]	@ (8001e08 <_sbrk+0x64>)
 8001de6:	681b      	ldr	r3, [r3, #0]
 8001de8:	60fb      	str	r3, [r7, #12]
 8001dea:	4b07      	ldr	r3, [pc, #28]	@ (8001e08 <_sbrk+0x64>)
 8001dec:	681a      	ldr	r2, [r3, #0]
 8001dee:	687b      	ldr	r3, [r7, #4]
 8001df0:	4413      	add	r3, r2
 8001df2:	4a05      	ldr	r2, [pc, #20]	@ (8001e08 <_sbrk+0x64>)
 8001df4:	6013      	str	r3, [r2, #0]
 8001df6:	68fb      	ldr	r3, [r7, #12]
 8001df8:	4618      	mov	r0, r3
 8001dfa:	3718      	adds	r7, #24
 8001dfc:	46bd      	mov	sp, r7
 8001dfe:	bd80      	pop	{r7, pc}
 8001e00:	20005000 	.word	0x20005000
 8001e04:	00000400 	.word	0x00000400
 8001e08:	20000294 	.word	0x20000294
 8001e0c:	20000428 	.word	0x20000428

08001e10 <SystemInit>:
 8001e10:	b480      	push	{r7}
 8001e12:	af00      	add	r7, sp, #0
 8001e14:	bf00      	nop
 8001e16:	46bd      	mov	sp, r7
 8001e18:	bc80      	pop	{r7}
 8001e1a:	4770      	bx	lr

08001e1c <isCmdEqualToRST>:
 8001e1c:	b480      	push	{r7}
 8001e1e:	b085      	sub	sp, #20
 8001e20:	af00      	add	r7, sp, #0
 8001e22:	6078      	str	r0, [r7, #4]
 8001e24:	2300      	movs	r3, #0
 8001e26:	60fb      	str	r3, [r7, #12]
 8001e28:	687b      	ldr	r3, [r7, #4]
 8001e2a:	781b      	ldrb	r3, [r3, #0]
 8001e2c:	2b52      	cmp	r3, #82	@ 0x52
 8001e2e:	d102      	bne.n	8001e36 <isCmdEqualToRST+0x1a>
 8001e30:	2301      	movs	r3, #1
 8001e32:	60fb      	str	r3, [r7, #12]
 8001e34:	e001      	b.n	8001e3a <isCmdEqualToRST+0x1e>
 8001e36:	2300      	movs	r3, #0
 8001e38:	60fb      	str	r3, [r7, #12]
 8001e3a:	68fb      	ldr	r3, [r7, #12]
 8001e3c:	4618      	mov	r0, r3
 8001e3e:	3714      	adds	r7, #20
 8001e40:	46bd      	mov	sp, r7
 8001e42:	bc80      	pop	{r7}
 8001e44:	4770      	bx	lr

08001e46 <isCmdEqualToCAP>:
 8001e46:	b480      	push	{r7}
 8001e48:	b085      	sub	sp, #20
 8001e4a:	af00      	add	r7, sp, #0
 8001e4c:	6078      	str	r0, [r7, #4]
 8001e4e:	2300      	movs	r3, #0
 8001e50:	60fb      	str	r3, [r7, #12]
 8001e52:	687b      	ldr	r3, [r7, #4]
 8001e54:	781b      	ldrb	r3, [r3, #0]
 8001e56:	2b43      	cmp	r3, #67	@ 0x43
 8001e58:	d102      	bne.n	8001e60 <isCmdEqualToCAP+0x1a>
 8001e5a:	2301      	movs	r3, #1
 8001e5c:	60fb      	str	r3, [r7, #12]
 8001e5e:	e001      	b.n	8001e64 <isCmdEqualToCAP+0x1e>
 8001e60:	2300      	movs	r3, #0
 8001e62:	60fb      	str	r3, [r7, #12]
 8001e64:	68fb      	ldr	r3, [r7, #12]
 8001e66:	4618      	mov	r0, r3
 8001e68:	3714      	adds	r7, #20
 8001e6a:	46bd      	mov	sp, r7
 8001e6c:	bc80      	pop	{r7}
 8001e6e:	4770      	bx	lr

08001e70 <cmd_parser_fsm>:
 8001e70:	b580      	push	{r7, lr}
 8001e72:	af00      	add	r7, sp, #0
 8001e74:	4b2d      	ldr	r3, [pc, #180]	@ (8001f2c <cmd_parser_fsm+0xbc>)
 8001e76:	781b      	ldrb	r3, [r3, #0]
 8001e78:	2b02      	cmp	r3, #2
 8001e7a:	d037      	beq.n	8001eec <cmd_parser_fsm+0x7c>
 8001e7c:	2b02      	cmp	r3, #2
 8001e7e:	dc4c      	bgt.n	8001f1a <cmd_parser_fsm+0xaa>
 8001e80:	2b00      	cmp	r3, #0
 8001e82:	d002      	beq.n	8001e8a <cmd_parser_fsm+0x1a>
 8001e84:	2b01      	cmp	r3, #1
 8001e86:	d008      	beq.n	8001e9a <cmd_parser_fsm+0x2a>
 8001e88:	e047      	b.n	8001f1a <cmd_parser_fsm+0xaa>
 8001e8a:	4b29      	ldr	r3, [pc, #164]	@ (8001f30 <cmd_parser_fsm+0xc0>)
 8001e8c:	781b      	ldrb	r3, [r3, #0]
 8001e8e:	2b21      	cmp	r3, #33	@ 0x21
 8001e90:	d145      	bne.n	8001f1e <cmd_parser_fsm+0xae>
 8001e92:	4b26      	ldr	r3, [pc, #152]	@ (8001f2c <cmd_parser_fsm+0xbc>)
 8001e94:	2201      	movs	r2, #1
 8001e96:	701a      	strb	r2, [r3, #0]
 8001e98:	e041      	b.n	8001f1e <cmd_parser_fsm+0xae>
 8001e9a:	4b25      	ldr	r3, [pc, #148]	@ (8001f30 <cmd_parser_fsm+0xc0>)
 8001e9c:	781b      	ldrb	r3, [r3, #0]
 8001e9e:	2b21      	cmp	r3, #33	@ 0x21
 8001ea0:	d011      	beq.n	8001ec6 <cmd_parser_fsm+0x56>
 8001ea2:	4b23      	ldr	r3, [pc, #140]	@ (8001f30 <cmd_parser_fsm+0xc0>)
 8001ea4:	781b      	ldrb	r3, [r3, #0]
 8001ea6:	2b23      	cmp	r3, #35	@ 0x23
 8001ea8:	d00d      	beq.n	8001ec6 <cmd_parser_fsm+0x56>
 8001eaa:	4b22      	ldr	r3, [pc, #136]	@ (8001f34 <cmd_parser_fsm+0xc4>)
 8001eac:	781b      	ldrb	r3, [r3, #0]
 8001eae:	461a      	mov	r2, r3
 8001eb0:	4b1f      	ldr	r3, [pc, #124]	@ (8001f30 <cmd_parser_fsm+0xc0>)
 8001eb2:	7819      	ldrb	r1, [r3, #0]
 8001eb4:	4b20      	ldr	r3, [pc, #128]	@ (8001f38 <cmd_parser_fsm+0xc8>)
 8001eb6:	5499      	strb	r1, [r3, r2]
 8001eb8:	4b1e      	ldr	r3, [pc, #120]	@ (8001f34 <cmd_parser_fsm+0xc4>)
 8001eba:	781b      	ldrb	r3, [r3, #0]
 8001ebc:	3301      	adds	r3, #1
 8001ebe:	b2da      	uxtb	r2, r3
 8001ec0:	4b1c      	ldr	r3, [pc, #112]	@ (8001f34 <cmd_parser_fsm+0xc4>)
 8001ec2:	701a      	strb	r2, [r3, #0]
 8001ec4:	e02d      	b.n	8001f22 <cmd_parser_fsm+0xb2>
 8001ec6:	4b1a      	ldr	r3, [pc, #104]	@ (8001f30 <cmd_parser_fsm+0xc0>)
 8001ec8:	781b      	ldrb	r3, [r3, #0]
 8001eca:	2b21      	cmp	r3, #33	@ 0x21
 8001ecc:	d103      	bne.n	8001ed6 <cmd_parser_fsm+0x66>
 8001ece:	4b17      	ldr	r3, [pc, #92]	@ (8001f2c <cmd_parser_fsm+0xbc>)
 8001ed0:	2201      	movs	r2, #1
 8001ed2:	701a      	strb	r2, [r3, #0]
 8001ed4:	e025      	b.n	8001f22 <cmd_parser_fsm+0xb2>
 8001ed6:	4b16      	ldr	r3, [pc, #88]	@ (8001f30 <cmd_parser_fsm+0xc0>)
 8001ed8:	781b      	ldrb	r3, [r3, #0]
 8001eda:	2b23      	cmp	r3, #35	@ 0x23
 8001edc:	d121      	bne.n	8001f22 <cmd_parser_fsm+0xb2>
 8001ede:	4b13      	ldr	r3, [pc, #76]	@ (8001f2c <cmd_parser_fsm+0xbc>)
 8001ee0:	2202      	movs	r2, #2
 8001ee2:	701a      	strb	r2, [r3, #0]
 8001ee4:	4b13      	ldr	r3, [pc, #76]	@ (8001f34 <cmd_parser_fsm+0xc4>)
 8001ee6:	2200      	movs	r2, #0
 8001ee8:	701a      	strb	r2, [r3, #0]
 8001eea:	e01a      	b.n	8001f22 <cmd_parser_fsm+0xb2>
 8001eec:	4812      	ldr	r0, [pc, #72]	@ (8001f38 <cmd_parser_fsm+0xc8>)
 8001eee:	f7ff ff95 	bl	8001e1c <isCmdEqualToRST>
 8001ef2:	4603      	mov	r3, r0
 8001ef4:	2b01      	cmp	r3, #1
 8001ef6:	d103      	bne.n	8001f00 <cmd_parser_fsm+0x90>
 8001ef8:	4b10      	ldr	r3, [pc, #64]	@ (8001f3c <cmd_parser_fsm+0xcc>)
 8001efa:	2207      	movs	r2, #7
 8001efc:	701a      	strb	r2, [r3, #0]
 8001efe:	e008      	b.n	8001f12 <cmd_parser_fsm+0xa2>
 8001f00:	480d      	ldr	r0, [pc, #52]	@ (8001f38 <cmd_parser_fsm+0xc8>)
 8001f02:	f7ff ffa0 	bl	8001e46 <isCmdEqualToCAP>
 8001f06:	4603      	mov	r3, r0
 8001f08:	2b01      	cmp	r3, #1
 8001f0a:	d10c      	bne.n	8001f26 <cmd_parser_fsm+0xb6>
 8001f0c:	4b0b      	ldr	r3, [pc, #44]	@ (8001f3c <cmd_parser_fsm+0xcc>)
 8001f0e:	2208      	movs	r2, #8
 8001f10:	701a      	strb	r2, [r3, #0]
 8001f12:	4b06      	ldr	r3, [pc, #24]	@ (8001f2c <cmd_parser_fsm+0xbc>)
 8001f14:	2200      	movs	r2, #0
 8001f16:	701a      	strb	r2, [r3, #0]
 8001f18:	e006      	b.n	8001f28 <cmd_parser_fsm+0xb8>
 8001f1a:	bf00      	nop
 8001f1c:	e004      	b.n	8001f28 <cmd_parser_fsm+0xb8>
 8001f1e:	bf00      	nop
 8001f20:	e002      	b.n	8001f28 <cmd_parser_fsm+0xb8>
 8001f22:	bf00      	nop
 8001f24:	e000      	b.n	8001f28 <cmd_parser_fsm+0xb8>
 8001f26:	bf00      	nop
 8001f28:	bd80      	pop	{r7, pc}
 8001f2a:	bf00      	nop
 8001f2c:	200002d0 	.word	0x200002d0
 8001f30:	20000298 	.word	0x20000298
 8001f34:	200002d7 	.word	0x200002d7
 8001f38:	200002d4 	.word	0x200002d4
 8001f3c:	200002d8 	.word	0x200002d8

08001f40 <uart_control_fsm>:
 8001f40:	b580      	push	{r7, lr}
 8001f42:	af00      	add	r7, sp, #0
 8001f44:	4b2f      	ldr	r3, [pc, #188]	@ (8002004 <uart_control_fsm+0xc4>)
 8001f46:	781b      	ldrb	r3, [r3, #0]
 8001f48:	2b0a      	cmp	r3, #10
 8001f4a:	d856      	bhi.n	8001ffa <uart_control_fsm+0xba>
 8001f4c:	a201      	add	r2, pc, #4	@ (adr r2, 8001f54 <uart_control_fsm+0x14>)
 8001f4e:	f852 f023 	ldr.w	pc, [r2, r3, lsl #2]
 8001f52:	bf00      	nop
 8001f54:	08001f81 	.word	0x08001f81
 8001f58:	08001ffb 	.word	0x08001ffb
 8001f5c:	08001ffb 	.word	0x08001ffb
 8001f60:	08001ffb 	.word	0x08001ffb
 8001f64:	08001ffb 	.word	0x08001ffb
 8001f68:	08001ffb 	.word	0x08001ffb
 8001f6c:	08001ffb 	.word	0x08001ffb
 8001f70:	08001ff3 	.word	0x08001ff3
 8001f74:	08001fbd 	.word	0x08001fbd
 8001f78:	08001f91 	.word	0x08001f91
 8001f7c:	08001fd9 	.word	0x08001fd9
 8001f80:	4b20      	ldr	r3, [pc, #128]	@ (8002004 <uart_control_fsm+0xc4>)
 8001f82:	2209      	movs	r2, #9
 8001f84:	701a      	strb	r2, [r3, #0]
 8001f86:	2102      	movs	r1, #2
 8001f88:	2001      	movs	r0, #1
 8001f8a:	f7ff fd43 	bl	8001a14 <timerSet>
 8001f8e:	e037      	b.n	8002000 <uart_control_fsm+0xc0>
 8001f90:	4b1d      	ldr	r3, [pc, #116]	@ (8002008 <uart_control_fsm+0xc8>)
 8001f92:	789b      	ldrb	r3, [r3, #2]
 8001f94:	2b01      	cmp	r3, #1
 8001f96:	d109      	bne.n	8001fac <uart_control_fsm+0x6c>
 8001f98:	2200      	movs	r2, #0
 8001f9a:	2120      	movs	r1, #32
 8001f9c:	481b      	ldr	r0, [pc, #108]	@ (800200c <uart_control_fsm+0xcc>)
 8001f9e:	f001 f97c 	bl	800329a <HAL_GPIO_WritePin>
 8001fa2:	2102      	movs	r1, #2
 8001fa4:	f44f 7096 	mov.w	r0, #300	@ 0x12c
 8001fa8:	f7ff fd34 	bl	8001a14 <timerSet>
 8001fac:	f7fe fc9a 	bl	80008e4 <reading_fsm_run>
 8001fb0:	2201      	movs	r2, #1
 8001fb2:	2120      	movs	r1, #32
 8001fb4:	4815      	ldr	r0, [pc, #84]	@ (800200c <uart_control_fsm+0xcc>)
 8001fb6:	f001 f970 	bl	800329a <HAL_GPIO_WritePin>
 8001fba:	e021      	b.n	8002000 <uart_control_fsm+0xc0>
 8001fbc:	2200      	movs	r2, #0
 8001fbe:	2120      	movs	r1, #32
 8001fc0:	4812      	ldr	r0, [pc, #72]	@ (800200c <uart_control_fsm+0xcc>)
 8001fc2:	f001 f96a 	bl	800329a <HAL_GPIO_WritePin>
 8001fc6:	2104      	movs	r1, #4
 8001fc8:	f44f 707a 	mov.w	r0, #1000	@ 0x3e8
 8001fcc:	f7ff fd22 	bl	8001a14 <timerSet>
 8001fd0:	4b0c      	ldr	r3, [pc, #48]	@ (8002004 <uart_control_fsm+0xc4>)
 8001fd2:	220a      	movs	r2, #10
 8001fd4:	701a      	strb	r2, [r3, #0]
 8001fd6:	e013      	b.n	8002000 <uart_control_fsm+0xc0>
 8001fd8:	2200      	movs	r2, #0
 8001fda:	2120      	movs	r1, #32
 8001fdc:	480b      	ldr	r0, [pc, #44]	@ (800200c <uart_control_fsm+0xcc>)
 8001fde:	f001 f95c 	bl	800329a <HAL_GPIO_WritePin>
 8001fe2:	4b09      	ldr	r3, [pc, #36]	@ (8002008 <uart_control_fsm+0xc8>)
 8001fe4:	791b      	ldrb	r3, [r3, #4]
 8001fe6:	2b01      	cmp	r3, #1
 8001fe8:	d109      	bne.n	8001ffe <uart_control_fsm+0xbe>
 8001fea:	4b06      	ldr	r3, [pc, #24]	@ (8002004 <uart_control_fsm+0xc4>)
 8001fec:	2200      	movs	r2, #0
 8001fee:	701a      	strb	r2, [r3, #0]
 8001ff0:	e005      	b.n	8001ffe <uart_control_fsm+0xbe>
 8001ff2:	4b04      	ldr	r3, [pc, #16]	@ (8002004 <uart_control_fsm+0xc4>)
 8001ff4:	2200      	movs	r2, #0
 8001ff6:	701a      	strb	r2, [r3, #0]
 8001ff8:	e002      	b.n	8002000 <uart_control_fsm+0xc0>
 8001ffa:	bf00      	nop
 8001ffc:	e000      	b.n	8002000 <uart_control_fsm+0xc0>
 8001ffe:	bf00      	nop
 8002000:	bf00      	nop
 8002002:	bd80      	pop	{r7, pc}
 8002004:	200002d8 	.word	0x200002d8
 8002008:	20000274 	.word	0x20000274
 800200c:	40010800 	.word	0x40010800

08002010 <Scan_Addr>:
 8002010:	b5b0      	push	{r4, r5, r7, lr}
 8002012:	b098      	sub	sp, #96	@ 0x60
 8002014:	af00      	add	r7, sp, #0
 8002016:	4b2a      	ldr	r3, [pc, #168]	@ (80020c0 <Scan_Addr+0xb0>)
 8002018:	f107 0440 	add.w	r4, r7, #64	@ 0x40
 800201c:	461d      	mov	r5, r3
 800201e:	cd0f      	ldmia	r5!, {r0, r1, r2, r3}
 8002020:	c40f      	stmia	r4!, {r0, r1, r2, r3}
 8002022:	e895 0007 	ldmia.w	r5, {r0, r1, r2}
 8002026:	c403      	stmia	r4!, {r0, r1}
 8002028:	8022      	strh	r2, [r4, #0]
 800202a:	f107 0340 	add.w	r3, r7, #64	@ 0x40
 800202e:	4618      	mov	r0, r3
 8002030:	f7fe f88c 	bl	800014c <strlen>
 8002034:	4603      	mov	r3, r0
 8002036:	b29a      	uxth	r2, r3
 8002038:	f107 0140 	add.w	r1, r7, #64	@ 0x40
 800203c:	f04f 33ff 	mov.w	r3, #4294967295
 8002040:	4820      	ldr	r0, [pc, #128]	@ (80020c4 <Scan_Addr+0xb4>)
 8002042:	f003 fc63 	bl	800590c <HAL_UART_Transmit>
 8002046:	2300      	movs	r3, #0
 8002048:	f8a7 305e 	strh.w	r3, [r7, #94]	@ 0x5e
 800204c:	e02f      	b.n	80020ae <Scan_Addr+0x9e>
 800204e:	f8b7 305e 	ldrh.w	r3, [r7, #94]	@ 0x5e
 8002052:	005b      	lsls	r3, r3, #1
 8002054:	b299      	uxth	r1, r3
 8002056:	230a      	movs	r3, #10
 8002058:	2201      	movs	r2, #1
 800205a:	481b      	ldr	r0, [pc, #108]	@ (80020c8 <Scan_Addr+0xb8>)
 800205c:	f001 fde4 	bl	8003c28 <HAL_I2C_IsDeviceReady>
 8002060:	4603      	mov	r3, r0
 8002062:	f887 305d 	strb.w	r3, [r7, #93]	@ 0x5d
 8002066:	f897 305d 	ldrb.w	r3, [r7, #93]	@ 0x5d
 800206a:	2b00      	cmp	r3, #0
 800206c:	d113      	bne.n	8002096 <Scan_Addr+0x86>
 800206e:	f8b7 305e 	ldrh.w	r3, [r7, #94]	@ 0x5e
 8002072:	4638      	mov	r0, r7
 8002074:	4a15      	ldr	r2, [pc, #84]	@ (80020cc <Scan_Addr+0xbc>)
 8002076:	2140      	movs	r1, #64	@ 0x40
 8002078:	f004 fa62 	bl	8006540 <sniprintf>
 800207c:	463b      	mov	r3, r7
 800207e:	4618      	mov	r0, r3
 8002080:	f7fe f864 	bl	800014c <strlen>
 8002084:	4603      	mov	r3, r0
 8002086:	b29a      	uxth	r2, r3
 8002088:	4639      	mov	r1, r7
 800208a:	f04f 33ff 	mov.w	r3, #4294967295
 800208e:	480d      	ldr	r0, [pc, #52]	@ (80020c4 <Scan_Addr+0xb4>)
 8002090:	f003 fc3c 	bl	800590c <HAL_UART_Transmit>
 8002094:	e006      	b.n	80020a4 <Scan_Addr+0x94>
 8002096:	f04f 33ff 	mov.w	r3, #4294967295
 800209a:	2201      	movs	r2, #1
 800209c:	490c      	ldr	r1, [pc, #48]	@ (80020d0 <Scan_Addr+0xc0>)
 800209e:	4809      	ldr	r0, [pc, #36]	@ (80020c4 <Scan_Addr+0xb4>)
 80020a0:	f003 fc34 	bl	800590c <HAL_UART_Transmit>
 80020a4:	f8b7 305e 	ldrh.w	r3, [r7, #94]	@ 0x5e
 80020a8:	3301      	adds	r3, #1
 80020aa:	f8a7 305e 	strh.w	r3, [r7, #94]	@ 0x5e
 80020ae:	f8b7 305e 	ldrh.w	r3, [r7, #94]	@ 0x5e
 80020b2:	2b7f      	cmp	r3, #127	@ 0x7f
 80020b4:	d9cb      	bls.n	800204e <Scan_Addr+0x3e>
 80020b6:	bf00      	nop
 80020b8:	bf00      	nop
 80020ba:	3760      	adds	r7, #96	@ 0x60
 80020bc:	46bd      	mov	sp, r7
 80020be:	bdb0      	pop	{r4, r5, r7, pc}
 80020c0:	08006fbc 	.word	0x08006fbc
 80020c4:	20000180 	.word	0x20000180
 80020c8:	200000e4 	.word	0x200000e4
 80020cc:	08006fb0 	.word	0x08006fb0
 80020d0:	08006fb8 	.word	0x08006fb8

080020d4 <send_data>:
 80020d4:	b590      	push	{r4, r7, lr}
 80020d6:	b089      	sub	sp, #36	@ 0x24
 80020d8:	af00      	add	r7, sp, #0
 80020da:	f107 021c 	add.w	r2, r7, #28
 80020de:	f107 031e 	add.w	r3, r7, #30
 80020e2:	4611      	mov	r1, r2
 80020e4:	4618      	mov	r0, r3
 80020e6:	f7ff f8ff 	bl	80012e8 <get_rain_values>
 80020ea:	4b41      	ldr	r3, [pc, #260]	@ (80021f0 <send_data+0x11c>)
 80020ec:	885b      	ldrh	r3, [r3, #2]
 80020ee:	4a41      	ldr	r2, [pc, #260]	@ (80021f4 <send_data+0x120>)
 80020f0:	fba2 2303 	umull	r2, r3, r2, r3
 80020f4:	08db      	lsrs	r3, r3, #3
 80020f6:	b29b      	uxth	r3, r3
 80020f8:	4618      	mov	r0, r3
 80020fa:	f7fe f8e9 	bl	80002d0 <__aeabi_i2f>
 80020fe:	4604      	mov	r4, r0
 8002100:	4b3b      	ldr	r3, [pc, #236]	@ (80021f0 <send_data+0x11c>)
 8002102:	885a      	ldrh	r2, [r3, #2]
 8002104:	4b3b      	ldr	r3, [pc, #236]	@ (80021f4 <send_data+0x120>)
 8002106:	fba3 1302 	umull	r1, r3, r3, r2
 800210a:	08d9      	lsrs	r1, r3, #3
 800210c:	460b      	mov	r3, r1
 800210e:	009b      	lsls	r3, r3, #2
 8002110:	440b      	add	r3, r1
 8002112:	005b      	lsls	r3, r3, #1
 8002114:	1ad3      	subs	r3, r2, r3
 8002116:	b29b      	uxth	r3, r3
 8002118:	4618      	mov	r0, r3
 800211a:	f7fe f8d9 	bl	80002d0 <__aeabi_i2f>
 800211e:	4603      	mov	r3, r0
 8002120:	4935      	ldr	r1, [pc, #212]	@ (80021f8 <send_data+0x124>)
 8002122:	4618      	mov	r0, r3
 8002124:	f7fe f9dc 	bl	80004e0 <__aeabi_fdiv>
 8002128:	4603      	mov	r3, r0
 800212a:	4619      	mov	r1, r3
 800212c:	4620      	mov	r0, r4
 800212e:	f7fe f81b 	bl	8000168 <__addsf3>
 8002132:	4603      	mov	r3, r0
 8002134:	61bb      	str	r3, [r7, #24]
 8002136:	4b2e      	ldr	r3, [pc, #184]	@ (80021f0 <send_data+0x11c>)
 8002138:	881b      	ldrh	r3, [r3, #0]
 800213a:	4a2e      	ldr	r2, [pc, #184]	@ (80021f4 <send_data+0x120>)
 800213c:	fba2 2303 	umull	r2, r3, r2, r3
 8002140:	08db      	lsrs	r3, r3, #3
 8002142:	b29b      	uxth	r3, r3
 8002144:	4618      	mov	r0, r3
 8002146:	f7fe f8c3 	bl	80002d0 <__aeabi_i2f>
 800214a:	4604      	mov	r4, r0
 800214c:	4b28      	ldr	r3, [pc, #160]	@ (80021f0 <send_data+0x11c>)
 800214e:	881a      	ldrh	r2, [r3, #0]
 8002150:	4b28      	ldr	r3, [pc, #160]	@ (80021f4 <send_data+0x120>)
 8002152:	fba3 1302 	umull	r1, r3, r3, r2
 8002156:	08d9      	lsrs	r1, r3, #3
 8002158:	460b      	mov	r3, r1
 800215a:	009b      	lsls	r3, r3, #2
 800215c:	440b      	add	r3, r1
 800215e:	005b      	lsls	r3, r3, #1
 8002160:	1ad3      	subs	r3, r2, r3
 8002162:	b29b      	uxth	r3, r3
 8002164:	4618      	mov	r0, r3
 8002166:	f7fe f8b3 	bl	80002d0 <__aeabi_i2f>
 800216a:	4603      	mov	r3, r0
 800216c:	4922      	ldr	r1, [pc, #136]	@ (80021f8 <send_data+0x124>)
 800216e:	4618      	mov	r0, r3
 8002170:	f7fe f9b6 	bl	80004e0 <__aeabi_fdiv>
 8002174:	4603      	mov	r3, r0
 8002176:	4619      	mov	r1, r3
 8002178:	4620      	mov	r0, r4
 800217a:	f7fd fff5 	bl	8000168 <__addsf3>
 800217e:	4603      	mov	r3, r0
 8002180:	617b      	str	r3, [r7, #20]
 8002182:	8bfb      	ldrh	r3, [r7, #30]
 8002184:	4618      	mov	r0, r3
 8002186:	f7fe f89f 	bl	80002c8 <__aeabi_ui2f>
 800218a:	4604      	mov	r4, r0
 800218c:	8bbb      	ldrh	r3, [r7, #28]
 800218e:	4618      	mov	r0, r3
 8002190:	f7fe f89a 	bl	80002c8 <__aeabi_ui2f>
 8002194:	4603      	mov	r3, r0
 8002196:	4919      	ldr	r1, [pc, #100]	@ (80021fc <send_data+0x128>)
 8002198:	4618      	mov	r0, r3
 800219a:	f7fe f9a1 	bl	80004e0 <__aeabi_fdiv>
 800219e:	4603      	mov	r3, r0
 80021a0:	4619      	mov	r1, r3
 80021a2:	4620      	mov	r0, r4
 80021a4:	f7fd ffe0 	bl	8000168 <__addsf3>
 80021a8:	4603      	mov	r3, r0
 80021aa:	613b      	str	r3, [r7, #16]
 80021ac:	69bb      	ldr	r3, [r7, #24]
 80021ae:	60fb      	str	r3, [r7, #12]
 80021b0:	697b      	ldr	r3, [r7, #20]
 80021b2:	60bb      	str	r3, [r7, #8]
 80021b4:	693b      	ldr	r3, [r7, #16]
 80021b6:	607b      	str	r3, [r7, #4]
 80021b8:	f107 010c 	add.w	r1, r7, #12
 80021bc:	f44f 73fa 	mov.w	r3, #500	@ 0x1f4
 80021c0:	2204      	movs	r2, #4
 80021c2:	480f      	ldr	r0, [pc, #60]	@ (8002200 <send_data+0x12c>)
 80021c4:	f003 fba2 	bl	800590c <HAL_UART_Transmit>
 80021c8:	f107 0108 	add.w	r1, r7, #8
 80021cc:	f44f 73fa 	mov.w	r3, #500	@ 0x1f4
 80021d0:	2204      	movs	r2, #4
 80021d2:	480b      	ldr	r0, [pc, #44]	@ (8002200 <send_data+0x12c>)
 80021d4:	f003 fb9a 	bl	800590c <HAL_UART_Transmit>
 80021d8:	1d39      	adds	r1, r7, #4
 80021da:	f44f 73fa 	mov.w	r3, #500	@ 0x1f4
 80021de:	2204      	movs	r2, #4
 80021e0:	4807      	ldr	r0, [pc, #28]	@ (8002200 <send_data+0x12c>)
 80021e2:	f003 fb93 	bl	800590c <HAL_UART_Transmit>
 80021e6:	bf00      	nop
 80021e8:	3724      	adds	r7, #36	@ 0x24
 80021ea:	46bd      	mov	sp, r7
 80021ec:	bd90      	pop	{r4, r7, pc}
 80021ee:	bf00      	nop
 80021f0:	2000007c 	.word	0x2000007c
 80021f4:	cccccccd 	.word	0xcccccccd
 80021f8:	41200000 	.word	0x41200000
 80021fc:	447a0000 	.word	0x447a0000
 8002200:	20000180 	.word	0x20000180

08002204 <commandParser>:
 8002204:	b580      	push	{r7, lr}
 8002206:	af00      	add	r7, sp, #0
 8002208:	4b08      	ldr	r3, [pc, #32]	@ (800222c <commandParser+0x28>)
 800220a:	781b      	ldrb	r3, [r3, #0]
 800220c:	2b01      	cmp	r3, #1
 800220e:	d104      	bne.n	800221a <commandParser+0x16>
 8002210:	f7ff fe2e 	bl	8001e70 <cmd_parser_fsm>
 8002214:	4b05      	ldr	r3, [pc, #20]	@ (800222c <commandParser+0x28>)
 8002216:	2200      	movs	r2, #0
 8002218:	701a      	strb	r2, [r3, #0]
 800221a:	4b05      	ldr	r3, [pc, #20]	@ (8002230 <commandParser+0x2c>)
 800221c:	78db      	ldrb	r3, [r3, #3]
 800221e:	2b01      	cmp	r3, #1
 8002220:	d101      	bne.n	8002226 <commandParser+0x22>
 8002222:	f7ff fe8d 	bl	8001f40 <uart_control_fsm>
 8002226:	bf00      	nop
 8002228:	bd80      	pop	{r7, pc}
 800222a:	bf00      	nop
 800222c:	200002cf 	.word	0x200002cf
 8002230:	20000274 	.word	0x20000274

08002234 <Reset_Handler>:
 8002234:	480c      	ldr	r0, [pc, #48]	@ (8002268 <LoopFillZerobss+0x12>)
 8002236:	490d      	ldr	r1, [pc, #52]	@ (800226c <LoopFillZerobss+0x16>)
 8002238:	4a0d      	ldr	r2, [pc, #52]	@ (8002270 <LoopFillZerobss+0x1a>)
 800223a:	2300      	movs	r3, #0
 800223c:	e002      	b.n	8002244 <LoopCopyDataInit>

0800223e <CopyDataInit>:
 800223e:	58d4      	ldr	r4, [r2, r3]
 8002240:	50c4      	str	r4, [r0, r3]
 8002242:	3304      	adds	r3, #4

08002244 <LoopCopyDataInit>:
 8002244:	18c4      	adds	r4, r0, r3
 8002246:	428c      	cmp	r4, r1
 8002248:	d3f9      	bcc.n	800223e <CopyDataInit>
 800224a:	4a0a      	ldr	r2, [pc, #40]	@ (8002274 <LoopFillZerobss+0x1e>)
 800224c:	4c0a      	ldr	r4, [pc, #40]	@ (8002278 <LoopFillZerobss+0x22>)
 800224e:	2300      	movs	r3, #0
 8002250:	e001      	b.n	8002256 <LoopFillZerobss>

08002252 <FillZerobss>:
 8002252:	6013      	str	r3, [r2, #0]
 8002254:	3204      	adds	r2, #4

08002256 <LoopFillZerobss>:
 8002256:	42a2      	cmp	r2, r4
 8002258:	d3fb      	bcc.n	8002252 <FillZerobss>
 800225a:	f7ff fdd9 	bl	8001e10 <SystemInit>
 800225e:	f004 f9d1 	bl	8006604 <__libc_init_array>
 8002262:	f7fe fd39 	bl	8000cd8 <main>
 8002266:	4770      	bx	lr
 8002268:	20000000 	.word	0x20000000
 800226c:	20000060 	.word	0x20000060
 8002270:	0800705c 	.word	0x0800705c
 8002274:	20000060 	.word	0x20000060
 8002278:	20000428 	.word	0x20000428

0800227c <ADC1_2_IRQHandler>:
 800227c:	e7fe      	b.n	800227c <ADC1_2_IRQHandler>
	...

08002280 <HAL_Init>:
 8002280:	b580      	push	{r7, lr}
 8002282:	af00      	add	r7, sp, #0
 8002284:	4b08      	ldr	r3, [pc, #32]	@ (80022a8 <HAL_Init+0x28>)
 8002286:	681b      	ldr	r3, [r3, #0]
 8002288:	4a07      	ldr	r2, [pc, #28]	@ (80022a8 <HAL_Init+0x28>)
 800228a:	f043 0310 	orr.w	r3, r3, #16
 800228e:	6013      	str	r3, [r2, #0]
 8002290:	2003      	movs	r0, #3
 8002292:	f000 fd73 	bl	8002d7c <HAL_NVIC_SetPriorityGrouping>
 8002296:	200f      	movs	r0, #15
 8002298:	f000 f808 	bl	80022ac <HAL_InitTick>
 800229c:	f7ff fc0e 	bl	8001abc <HAL_MspInit>
 80022a0:	2300      	movs	r3, #0
 80022a2:	4618      	mov	r0, r3
 80022a4:	bd80      	pop	{r7, pc}
 80022a6:	bf00      	nop
 80022a8:	40022000 	.word	0x40022000

080022ac <HAL_InitTick>:
 80022ac:	b580      	push	{r7, lr}
 80022ae:	b082      	sub	sp, #8
 80022b0:	af00      	add	r7, sp, #0
 80022b2:	6078      	str	r0, [r7, #4]
 80022b4:	4b12      	ldr	r3, [pc, #72]	@ (8002300 <HAL_InitTick+0x54>)
 80022b6:	681a      	ldr	r2, [r3, #0]
 80022b8:	4b12      	ldr	r3, [pc, #72]	@ (8002304 <HAL_InitTick+0x58>)
 80022ba:	781b      	ldrb	r3, [r3, #0]
 80022bc:	4619      	mov	r1, r3
 80022be:	f44f 737a 	mov.w	r3, #1000	@ 0x3e8
 80022c2:	fbb3 f3f1 	udiv	r3, r3, r1
 80022c6:	fbb2 f3f3 	udiv	r3, r2, r3
 80022ca:	4618      	mov	r0, r3
 80022cc:	f000 fd8b 	bl	8002de6 <HAL_SYSTICK_Config>
 80022d0:	4603      	mov	r3, r0
 80022d2:	2b00      	cmp	r3, #0
 80022d4:	d001      	beq.n	80022da <HAL_InitTick+0x2e>
 80022d6:	2301      	movs	r3, #1
 80022d8:	e00e      	b.n	80022f8 <HAL_InitTick+0x4c>
 80022da:	687b      	ldr	r3, [r7, #4]
 80022dc:	2b0f      	cmp	r3, #15
 80022de:	d80a      	bhi.n	80022f6 <HAL_InitTick+0x4a>
 80022e0:	2200      	movs	r2, #0
 80022e2:	6879      	ldr	r1, [r7, #4]
 80022e4:	f04f 30ff 	mov.w	r0, #4294967295
 80022e8:	f000 fd53 	bl	8002d92 <HAL_NVIC_SetPriority>
 80022ec:	4a06      	ldr	r2, [pc, #24]	@ (8002308 <HAL_InitTick+0x5c>)
 80022ee:	687b      	ldr	r3, [r7, #4]
 80022f0:	6013      	str	r3, [r2, #0]
 80022f2:	2300      	movs	r3, #0
 80022f4:	e000      	b.n	80022f8 <HAL_InitTick+0x4c>
 80022f6:	2301      	movs	r3, #1
 80022f8:	4618      	mov	r0, r3
 80022fa:	3708      	adds	r7, #8
 80022fc:	46bd      	mov	sp, r7
 80022fe:	bd80      	pop	{r7, pc}
 8002300:	20000004 	.word	0x20000004
 8002304:	2000000c 	.word	0x2000000c
 8002308:	20000008 	.word	0x20000008

0800230c <HAL_IncTick>:
 800230c:	b480      	push	{r7}
 800230e:	af00      	add	r7, sp, #0
 8002310:	4b05      	ldr	r3, [pc, #20]	@ (8002328 <HAL_IncTick+0x1c>)
 8002312:	781b      	ldrb	r3, [r3, #0]
 8002314:	461a      	mov	r2, r3
 8002316:	4b05      	ldr	r3, [pc, #20]	@ (800232c <HAL_IncTick+0x20>)
 8002318:	681b      	ldr	r3, [r3, #0]
 800231a:	4413      	add	r3, r2
 800231c:	4a03      	ldr	r2, [pc, #12]	@ (800232c <HAL_IncTick+0x20>)
 800231e:	6013      	str	r3, [r2, #0]
 8002320:	bf00      	nop
 8002322:	46bd      	mov	sp, r7
 8002324:	bc80      	pop	{r7}
 8002326:	4770      	bx	lr
 8002328:	2000000c 	.word	0x2000000c
 800232c:	200002dc 	.word	0x200002dc

08002330 <HAL_GetTick>:
 8002330:	b480      	push	{r7}
 8002332:	af00      	add	r7, sp, #0
 8002334:	4b02      	ldr	r3, [pc, #8]	@ (8002340 <HAL_GetTick+0x10>)
 8002336:	681b      	ldr	r3, [r3, #0]
 8002338:	4618      	mov	r0, r3
 800233a:	46bd      	mov	sp, r7
 800233c:	bc80      	pop	{r7}
 800233e:	4770      	bx	lr
 8002340:	200002dc 	.word	0x200002dc

08002344 <HAL_Delay>:
 8002344:	b580      	push	{r7, lr}
 8002346:	b084      	sub	sp, #16
 8002348:	af00      	add	r7, sp, #0
 800234a:	6078      	str	r0, [r7, #4]
 800234c:	f7ff fff0 	bl	8002330 <HAL_GetTick>
 8002350:	60b8      	str	r0, [r7, #8]
 8002352:	687b      	ldr	r3, [r7, #4]
 8002354:	60fb      	str	r3, [r7, #12]
 8002356:	68fb      	ldr	r3, [r7, #12]
 8002358:	f1b3 3fff 	cmp.w	r3, #4294967295
 800235c:	d005      	beq.n	800236a <HAL_Delay+0x26>
 800235e:	4b0a      	ldr	r3, [pc, #40]	@ (8002388 <HAL_Delay+0x44>)
 8002360:	781b      	ldrb	r3, [r3, #0]
 8002362:	461a      	mov	r2, r3
 8002364:	68fb      	ldr	r3, [r7, #12]
 8002366:	4413      	add	r3, r2
 8002368:	60fb      	str	r3, [r7, #12]
 800236a:	bf00      	nop
 800236c:	f7ff ffe0 	bl	8002330 <HAL_GetTick>
 8002370:	4602      	mov	r2, r0
 8002372:	68bb      	ldr	r3, [r7, #8]
 8002374:	1ad3      	subs	r3, r2, r3
 8002376:	68fa      	ldr	r2, [r7, #12]
 8002378:	429a      	cmp	r2, r3
 800237a:	d8f7      	bhi.n	800236c <HAL_Delay+0x28>
 800237c:	bf00      	nop
 800237e:	bf00      	nop
 8002380:	3710      	adds	r7, #16
 8002382:	46bd      	mov	sp, r7
 8002384:	bd80      	pop	{r7, pc}
 8002386:	bf00      	nop
 8002388:	2000000c 	.word	0x2000000c

0800238c <HAL_ADC_Init>:
 800238c:	b580      	push	{r7, lr}
 800238e:	b086      	sub	sp, #24
 8002390:	af00      	add	r7, sp, #0
 8002392:	6078      	str	r0, [r7, #4]
 8002394:	2300      	movs	r3, #0
 8002396:	75fb      	strb	r3, [r7, #23]
 8002398:	2300      	movs	r3, #0
 800239a:	613b      	str	r3, [r7, #16]
 800239c:	2300      	movs	r3, #0
 800239e:	60bb      	str	r3, [r7, #8]
 80023a0:	2300      	movs	r3, #0
 80023a2:	60fb      	str	r3, [r7, #12]
 80023a4:	687b      	ldr	r3, [r7, #4]
 80023a6:	2b00      	cmp	r3, #0
 80023a8:	d101      	bne.n	80023ae <HAL_ADC_Init+0x22>
 80023aa:	2301      	movs	r3, #1
 80023ac:	e0be      	b.n	800252c <HAL_ADC_Init+0x1a0>
 80023ae:	687b      	ldr	r3, [r7, #4]
 80023b0:	689b      	ldr	r3, [r3, #8]
 80023b2:	2b00      	cmp	r3, #0
 80023b4:	687b      	ldr	r3, [r7, #4]
 80023b6:	6a9b      	ldr	r3, [r3, #40]	@ 0x28
 80023b8:	2b00      	cmp	r3, #0
 80023ba:	d109      	bne.n	80023d0 <HAL_ADC_Init+0x44>
 80023bc:	687b      	ldr	r3, [r7, #4]
 80023be:	2200      	movs	r2, #0
 80023c0:	62da      	str	r2, [r3, #44]	@ 0x2c
 80023c2:	687b      	ldr	r3, [r7, #4]
 80023c4:	2200      	movs	r2, #0
 80023c6:	f883 2024 	strb.w	r2, [r3, #36]	@ 0x24
 80023ca:	6878      	ldr	r0, [r7, #4]
 80023cc:	f7ff fba8 	bl	8001b20 <HAL_ADC_MspInit>
 80023d0:	6878      	ldr	r0, [r7, #4]
 80023d2:	f000 fbc5 	bl	8002b60 <ADC_ConversionStop_Disable>
 80023d6:	4603      	mov	r3, r0
 80023d8:	75fb      	strb	r3, [r7, #23]
 80023da:	687b      	ldr	r3, [r7, #4]
 80023dc:	6a9b      	ldr	r3, [r3, #40]	@ 0x28
 80023de:	f003 0310 	and.w	r3, r3, #16
 80023e2:	2b00      	cmp	r3, #0
 80023e4:	f040 8099 	bne.w	800251a <HAL_ADC_Init+0x18e>
 80023e8:	7dfb      	ldrb	r3, [r7, #23]
 80023ea:	2b00      	cmp	r3, #0
 80023ec:	f040 8095 	bne.w	800251a <HAL_ADC_Init+0x18e>
 80023f0:	687b      	ldr	r3, [r7, #4]
 80023f2:	6a9b      	ldr	r3, [r3, #40]	@ 0x28
 80023f4:	f423 5388 	bic.w	r3, r3, #4352	@ 0x1100
 80023f8:	f023 0302 	bic.w	r3, r3, #2
 80023fc:	f043 0202 	orr.w	r2, r3, #2
 8002400:	687b      	ldr	r3, [r7, #4]
 8002402:	629a      	str	r2, [r3, #40]	@ 0x28
 8002404:	687b      	ldr	r3, [r7, #4]
 8002406:	685a      	ldr	r2, [r3, #4]
 8002408:	687b      	ldr	r3, [r7, #4]
 800240a:	69db      	ldr	r3, [r3, #28]
 800240c:	431a      	orrs	r2, r3
 800240e:	687b      	ldr	r3, [r7, #4]
 8002410:	7b1b      	ldrb	r3, [r3, #12]
 8002412:	005b      	lsls	r3, r3, #1
 8002414:	4313      	orrs	r3, r2
 8002416:	68ba      	ldr	r2, [r7, #8]
 8002418:	4313      	orrs	r3, r2
 800241a:	60bb      	str	r3, [r7, #8]
 800241c:	687b      	ldr	r3, [r7, #4]
 800241e:	689b      	ldr	r3, [r3, #8]
 8002420:	f5b3 7f80 	cmp.w	r3, #256	@ 0x100
 8002424:	d003      	beq.n	800242e <HAL_ADC_Init+0xa2>
 8002426:	687b      	ldr	r3, [r7, #4]
 8002428:	689b      	ldr	r3, [r3, #8]
 800242a:	2b01      	cmp	r3, #1
 800242c:	d102      	bne.n	8002434 <HAL_ADC_Init+0xa8>
 800242e:	f44f 7380 	mov.w	r3, #256	@ 0x100
 8002432:	e000      	b.n	8002436 <HAL_ADC_Init+0xaa>
 8002434:	2300      	movs	r3, #0
 8002436:	693a      	ldr	r2, [r7, #16]
 8002438:	4313      	orrs	r3, r2
 800243a:	613b      	str	r3, [r7, #16]
 800243c:	687b      	ldr	r3, [r7, #4]
 800243e:	7d1b      	ldrb	r3, [r3, #20]
 8002440:	2b01      	cmp	r3, #1
 8002442:	d119      	bne.n	8002478 <HAL_ADC_Init+0xec>
 8002444:	687b      	ldr	r3, [r7, #4]
 8002446:	7b1b      	ldrb	r3, [r3, #12]
 8002448:	2b00      	cmp	r3, #0
 800244a:	d109      	bne.n	8002460 <HAL_ADC_Init+0xd4>
 800244c:	687b      	ldr	r3, [r7, #4]
 800244e:	699b      	ldr	r3, [r3, #24]
 8002450:	3b01      	subs	r3, #1
 8002452:	035a      	lsls	r2, r3, #13
 8002454:	693b      	ldr	r3, [r7, #16]
 8002456:	4313      	orrs	r3, r2
 8002458:	f443 6300 	orr.w	r3, r3, #2048	@ 0x800
 800245c:	613b      	str	r3, [r7, #16]
 800245e:	e00b      	b.n	8002478 <HAL_ADC_Init+0xec>
 8002460:	687b      	ldr	r3, [r7, #4]
 8002462:	6a9b      	ldr	r3, [r3, #40]	@ 0x28
 8002464:	f043 0220 	orr.w	r2, r3, #32
 8002468:	687b      	ldr	r3, [r7, #4]
 800246a:	629a      	str	r2, [r3, #40]	@ 0x28
 800246c:	687b      	ldr	r3, [r7, #4]
 800246e:	6adb      	ldr	r3, [r3, #44]	@ 0x2c
 8002470:	f043 0201 	orr.w	r2, r3, #1
 8002474:	687b      	ldr	r3, [r7, #4]
 8002476:	62da      	str	r2, [r3, #44]	@ 0x2c
 8002478:	687b      	ldr	r3, [r7, #4]
 800247a:	681b      	ldr	r3, [r3, #0]
 800247c:	685b      	ldr	r3, [r3, #4]
 800247e:	f423 4169 	bic.w	r1, r3, #59648	@ 0xe900
 8002482:	687b      	ldr	r3, [r7, #4]
 8002484:	681b      	ldr	r3, [r3, #0]
 8002486:	693a      	ldr	r2, [r7, #16]
 8002488:	430a      	orrs	r2, r1
 800248a:	605a      	str	r2, [r3, #4]
 800248c:	687b      	ldr	r3, [r7, #4]
 800248e:	681b      	ldr	r3, [r3, #0]
 8002490:	689a      	ldr	r2, [r3, #8]
 8002492:	4b28      	ldr	r3, [pc, #160]	@ (8002534 <HAL_ADC_Init+0x1a8>)
 8002494:	4013      	ands	r3, r2
 8002496:	687a      	ldr	r2, [r7, #4]
 8002498:	6812      	ldr	r2, [r2, #0]
 800249a:	68b9      	ldr	r1, [r7, #8]
 800249c:	430b      	orrs	r3, r1
 800249e:	6093      	str	r3, [r2, #8]
 80024a0:	687b      	ldr	r3, [r7, #4]
 80024a2:	689b      	ldr	r3, [r3, #8]
 80024a4:	f5b3 7f80 	cmp.w	r3, #256	@ 0x100
 80024a8:	d003      	beq.n	80024b2 <HAL_ADC_Init+0x126>
 80024aa:	687b      	ldr	r3, [r7, #4]
 80024ac:	689b      	ldr	r3, [r3, #8]
 80024ae:	2b01      	cmp	r3, #1
 80024b0:	d104      	bne.n	80024bc <HAL_ADC_Init+0x130>
 80024b2:	687b      	ldr	r3, [r7, #4]
 80024b4:	691b      	ldr	r3, [r3, #16]
 80024b6:	3b01      	subs	r3, #1
 80024b8:	051b      	lsls	r3, r3, #20
 80024ba:	60fb      	str	r3, [r7, #12]
 80024bc:	687b      	ldr	r3, [r7, #4]
 80024be:	681b      	ldr	r3, [r3, #0]
 80024c0:	6adb      	ldr	r3, [r3, #44]	@ 0x2c
 80024c2:	f423 0170 	bic.w	r1, r3, #15728640	@ 0xf00000
 80024c6:	687b      	ldr	r3, [r7, #4]
 80024c8:	681b      	ldr	r3, [r3, #0]
 80024ca:	68fa      	ldr	r2, [r7, #12]
 80024cc:	430a      	orrs	r2, r1
 80024ce:	62da      	str	r2, [r3, #44]	@ 0x2c
 80024d0:	687b      	ldr	r3, [r7, #4]
 80024d2:	681b      	ldr	r3, [r3, #0]
 80024d4:	689a      	ldr	r2, [r3, #8]
 80024d6:	4b18      	ldr	r3, [pc, #96]	@ (8002538 <HAL_ADC_Init+0x1ac>)
 80024d8:	4013      	ands	r3, r2
 80024da:	68ba      	ldr	r2, [r7, #8]
 80024dc:	429a      	cmp	r2, r3
 80024de:	d10b      	bne.n	80024f8 <HAL_ADC_Init+0x16c>
 80024e0:	687b      	ldr	r3, [r7, #4]
 80024e2:	2200      	movs	r2, #0
 80024e4:	62da      	str	r2, [r3, #44]	@ 0x2c
 80024e6:	687b      	ldr	r3, [r7, #4]
 80024e8:	6a9b      	ldr	r3, [r3, #40]	@ 0x28
 80024ea:	f023 0303 	bic.w	r3, r3, #3
 80024ee:	f043 0201 	orr.w	r2, r3, #1
 80024f2:	687b      	ldr	r3, [r7, #4]
 80024f4:	629a      	str	r2, [r3, #40]	@ 0x28
 80024f6:	e018      	b.n	800252a <HAL_ADC_Init+0x19e>
 80024f8:	687b      	ldr	r3, [r7, #4]
 80024fa:	6a9b      	ldr	r3, [r3, #40]	@ 0x28
 80024fc:	f023 0312 	bic.w	r3, r3, #18
 8002500:	f043 0210 	orr.w	r2, r3, #16
 8002504:	687b      	ldr	r3, [r7, #4]
 8002506:	629a      	str	r2, [r3, #40]	@ 0x28
 8002508:	687b      	ldr	r3, [r7, #4]
 800250a:	6adb      	ldr	r3, [r3, #44]	@ 0x2c
 800250c:	f043 0201 	orr.w	r2, r3, #1
 8002510:	687b      	ldr	r3, [r7, #4]
 8002512:	62da      	str	r2, [r3, #44]	@ 0x2c
 8002514:	2301      	movs	r3, #1
 8002516:	75fb      	strb	r3, [r7, #23]
 8002518:	e007      	b.n	800252a <HAL_ADC_Init+0x19e>
 800251a:	687b      	ldr	r3, [r7, #4]
 800251c:	6a9b      	ldr	r3, [r3, #40]	@ 0x28
 800251e:	f043 0210 	orr.w	r2, r3, #16
 8002522:	687b      	ldr	r3, [r7, #4]
 8002524:	629a      	str	r2, [r3, #40]	@ 0x28
 8002526:	2301      	movs	r3, #1
 8002528:	75fb      	strb	r3, [r7, #23]
 800252a:	7dfb      	ldrb	r3, [r7, #23]
 800252c:	4618      	mov	r0, r3
 800252e:	3718      	adds	r7, #24
 8002530:	46bd      	mov	sp, r7
 8002532:	bd80      	pop	{r7, pc}
 8002534:	ffe1f7fd 	.word	0xffe1f7fd
 8002538:	ff1f0efe 	.word	0xff1f0efe

0800253c <HAL_ADC_Start>:
 800253c:	b580      	push	{r7, lr}
 800253e:	b084      	sub	sp, #16
 8002540:	af00      	add	r7, sp, #0
 8002542:	6078      	str	r0, [r7, #4]
 8002544:	2300      	movs	r3, #0
 8002546:	73fb      	strb	r3, [r7, #15]
 8002548:	687b      	ldr	r3, [r7, #4]
 800254a:	f893 3024 	ldrb.w	r3, [r3, #36]	@ 0x24
 800254e:	2b01      	cmp	r3, #1
 8002550:	d101      	bne.n	8002556 <HAL_ADC_Start+0x1a>
 8002552:	2302      	movs	r3, #2
 8002554:	e098      	b.n	8002688 <HAL_ADC_Start+0x14c>
 8002556:	687b      	ldr	r3, [r7, #4]
 8002558:	2201      	movs	r2, #1
 800255a:	f883 2024 	strb.w	r2, [r3, #36]	@ 0x24
 800255e:	6878      	ldr	r0, [r7, #4]
 8002560:	f000 faa4 	bl	8002aac <ADC_Enable>
 8002564:	4603      	mov	r3, r0
 8002566:	73fb      	strb	r3, [r7, #15]
 8002568:	7bfb      	ldrb	r3, [r7, #15]
 800256a:	2b00      	cmp	r3, #0
 800256c:	f040 8087 	bne.w	800267e <HAL_ADC_Start+0x142>
 8002570:	687b      	ldr	r3, [r7, #4]
 8002572:	6a9b      	ldr	r3, [r3, #40]	@ 0x28
 8002574:	f423 7340 	bic.w	r3, r3, #768	@ 0x300
 8002578:	f023 0301 	bic.w	r3, r3, #1
 800257c:	f443 7280 	orr.w	r2, r3, #256	@ 0x100
 8002580:	687b      	ldr	r3, [r7, #4]
 8002582:	629a      	str	r2, [r3, #40]	@ 0x28
 8002584:	687b      	ldr	r3, [r7, #4]
 8002586:	681b      	ldr	r3, [r3, #0]
 8002588:	4a41      	ldr	r2, [pc, #260]	@ (8002690 <HAL_ADC_Start+0x154>)
 800258a:	4293      	cmp	r3, r2
 800258c:	d105      	bne.n	800259a <HAL_ADC_Start+0x5e>
 800258e:	4b41      	ldr	r3, [pc, #260]	@ (8002694 <HAL_ADC_Start+0x158>)
 8002590:	685b      	ldr	r3, [r3, #4]
 8002592:	f403 2370 	and.w	r3, r3, #983040	@ 0xf0000
 8002596:	2b00      	cmp	r3, #0
 8002598:	d115      	bne.n	80025c6 <HAL_ADC_Start+0x8a>
 800259a:	687b      	ldr	r3, [r7, #4]
 800259c:	6a9b      	ldr	r3, [r3, #40]	@ 0x28
 800259e:	f423 1280 	bic.w	r2, r3, #1048576	@ 0x100000
 80025a2:	687b      	ldr	r3, [r7, #4]
 80025a4:	629a      	str	r2, [r3, #40]	@ 0x28
 80025a6:	687b      	ldr	r3, [r7, #4]
 80025a8:	681b      	ldr	r3, [r3, #0]
 80025aa:	685b      	ldr	r3, [r3, #4]
 80025ac:	f403 6380 	and.w	r3, r3, #1024	@ 0x400
 80025b0:	2b00      	cmp	r3, #0
 80025b2:	d026      	beq.n	8002602 <HAL_ADC_Start+0xc6>
 80025b4:	687b      	ldr	r3, [r7, #4]
 80025b6:	6a9b      	ldr	r3, [r3, #40]	@ 0x28
 80025b8:	f423 5340 	bic.w	r3, r3, #12288	@ 0x3000
 80025bc:	f443 5280 	orr.w	r2, r3, #4096	@ 0x1000
 80025c0:	687b      	ldr	r3, [r7, #4]
 80025c2:	629a      	str	r2, [r3, #40]	@ 0x28
 80025c4:	e01d      	b.n	8002602 <HAL_ADC_Start+0xc6>
 80025c6:	687b      	ldr	r3, [r7, #4]
 80025c8:	6a9b      	ldr	r3, [r3, #40]	@ 0x28
 80025ca:	f443 1280 	orr.w	r2, r3, #1048576	@ 0x100000
 80025ce:	687b      	ldr	r3, [r7, #4]
 80025d0:	629a      	str	r2, [r3, #40]	@ 0x28
 80025d2:	687b      	ldr	r3, [r7, #4]
 80025d4:	681b      	ldr	r3, [r3, #0]
 80025d6:	4a2f      	ldr	r2, [pc, #188]	@ (8002694 <HAL_ADC_Start+0x158>)
 80025d8:	4293      	cmp	r3, r2
 80025da:	d004      	beq.n	80025e6 <HAL_ADC_Start+0xaa>
 80025dc:	687b      	ldr	r3, [r7, #4]
 80025de:	681b      	ldr	r3, [r3, #0]
 80025e0:	4a2b      	ldr	r2, [pc, #172]	@ (8002690 <HAL_ADC_Start+0x154>)
 80025e2:	4293      	cmp	r3, r2
 80025e4:	d10d      	bne.n	8002602 <HAL_ADC_Start+0xc6>
 80025e6:	4b2b      	ldr	r3, [pc, #172]	@ (8002694 <HAL_ADC_Start+0x158>)
 80025e8:	685b      	ldr	r3, [r3, #4]
 80025ea:	f403 6380 	and.w	r3, r3, #1024	@ 0x400
 80025ee:	2b00      	cmp	r3, #0
 80025f0:	d007      	beq.n	8002602 <HAL_ADC_Start+0xc6>
 80025f2:	687b      	ldr	r3, [r7, #4]
 80025f4:	6a9b      	ldr	r3, [r3, #40]	@ 0x28
 80025f6:	f423 5340 	bic.w	r3, r3, #12288	@ 0x3000
 80025fa:	f443 5280 	orr.w	r2, r3, #4096	@ 0x1000
 80025fe:	687b      	ldr	r3, [r7, #4]
 8002600:	629a      	str	r2, [r3, #40]	@ 0x28
 8002602:	687b      	ldr	r3, [r7, #4]
 8002604:	6a9b      	ldr	r3, [r3, #40]	@ 0x28
 8002606:	f403 5380 	and.w	r3, r3, #4096	@ 0x1000
 800260a:	2b00      	cmp	r3, #0
 800260c:	d006      	beq.n	800261c <HAL_ADC_Start+0xe0>
 800260e:	687b      	ldr	r3, [r7, #4]
 8002610:	6adb      	ldr	r3, [r3, #44]	@ 0x2c
 8002612:	f023 0206 	bic.w	r2, r3, #6
 8002616:	687b      	ldr	r3, [r7, #4]
 8002618:	62da      	str	r2, [r3, #44]	@ 0x2c
 800261a:	e002      	b.n	8002622 <HAL_ADC_Start+0xe6>
 800261c:	687b      	ldr	r3, [r7, #4]
 800261e:	2200      	movs	r2, #0
 8002620:	62da      	str	r2, [r3, #44]	@ 0x2c
 8002622:	687b      	ldr	r3, [r7, #4]
 8002624:	2200      	movs	r2, #0
 8002626:	f883 2024 	strb.w	r2, [r3, #36]	@ 0x24
 800262a:	687b      	ldr	r3, [r7, #4]
 800262c:	681b      	ldr	r3, [r3, #0]
 800262e:	f06f 0202 	mvn.w	r2, #2
 8002632:	601a      	str	r2, [r3, #0]
 8002634:	687b      	ldr	r3, [r7, #4]
 8002636:	681b      	ldr	r3, [r3, #0]
 8002638:	689b      	ldr	r3, [r3, #8]
 800263a:	f403 2360 	and.w	r3, r3, #917504	@ 0xe0000
 800263e:	f5b3 2f60 	cmp.w	r3, #917504	@ 0xe0000
 8002642:	d113      	bne.n	800266c <HAL_ADC_Start+0x130>
 8002644:	687b      	ldr	r3, [r7, #4]
 8002646:	681b      	ldr	r3, [r3, #0]
 8002648:	4a11      	ldr	r2, [pc, #68]	@ (8002690 <HAL_ADC_Start+0x154>)
 800264a:	4293      	cmp	r3, r2
 800264c:	d105      	bne.n	800265a <HAL_ADC_Start+0x11e>
 800264e:	4b11      	ldr	r3, [pc, #68]	@ (8002694 <HAL_ADC_Start+0x158>)
 8002650:	685b      	ldr	r3, [r3, #4]
 8002652:	f403 2370 	and.w	r3, r3, #983040	@ 0xf0000
 8002656:	2b00      	cmp	r3, #0
 8002658:	d108      	bne.n	800266c <HAL_ADC_Start+0x130>
 800265a:	687b      	ldr	r3, [r7, #4]
 800265c:	681b      	ldr	r3, [r3, #0]
 800265e:	689a      	ldr	r2, [r3, #8]
 8002660:	687b      	ldr	r3, [r7, #4]
 8002662:	681b      	ldr	r3, [r3, #0]
 8002664:	f442 02a0 	orr.w	r2, r2, #5242880	@ 0x500000
 8002668:	609a      	str	r2, [r3, #8]
 800266a:	e00c      	b.n	8002686 <HAL_ADC_Start+0x14a>
 800266c:	687b      	ldr	r3, [r7, #4]
 800266e:	681b      	ldr	r3, [r3, #0]
 8002670:	689a      	ldr	r2, [r3, #8]
 8002672:	687b      	ldr	r3, [r7, #4]
 8002674:	681b      	ldr	r3, [r3, #0]
 8002676:	f442 1280 	orr.w	r2, r2, #1048576	@ 0x100000
 800267a:	609a      	str	r2, [r3, #8]
 800267c:	e003      	b.n	8002686 <HAL_ADC_Start+0x14a>
 800267e:	687b      	ldr	r3, [r7, #4]
 8002680:	2200      	movs	r2, #0
 8002682:	f883 2024 	strb.w	r2, [r3, #36]	@ 0x24
 8002686:	7bfb      	ldrb	r3, [r7, #15]
 8002688:	4618      	mov	r0, r3
 800268a:	3710      	adds	r7, #16
 800268c:	46bd      	mov	sp, r7
 800268e:	bd80      	pop	{r7, pc}
 8002690:	40012800 	.word	0x40012800
 8002694:	40012400 	.word	0x40012400

08002698 <HAL_ADC_PollForConversion>:
 8002698:	b590      	push	{r4, r7, lr}
 800269a:	b087      	sub	sp, #28
 800269c:	af00      	add	r7, sp, #0
 800269e:	6078      	str	r0, [r7, #4]
 80026a0:	6039      	str	r1, [r7, #0]
 80026a2:	2300      	movs	r3, #0
 80026a4:	617b      	str	r3, [r7, #20]
 80026a6:	2300      	movs	r3, #0
 80026a8:	60fb      	str	r3, [r7, #12]
 80026aa:	2300      	movs	r3, #0
 80026ac:	613b      	str	r3, [r7, #16]
 80026ae:	f7ff fe3f 	bl	8002330 <HAL_GetTick>
 80026b2:	6178      	str	r0, [r7, #20]
 80026b4:	687b      	ldr	r3, [r7, #4]
 80026b6:	681b      	ldr	r3, [r3, #0]
 80026b8:	689b      	ldr	r3, [r3, #8]
 80026ba:	f403 7380 	and.w	r3, r3, #256	@ 0x100
 80026be:	2b00      	cmp	r3, #0
 80026c0:	d00b      	beq.n	80026da <HAL_ADC_PollForConversion+0x42>
 80026c2:	687b      	ldr	r3, [r7, #4]
 80026c4:	6a9b      	ldr	r3, [r3, #40]	@ 0x28
 80026c6:	f043 0220 	orr.w	r2, r3, #32
 80026ca:	687b      	ldr	r3, [r7, #4]
 80026cc:	629a      	str	r2, [r3, #40]	@ 0x28
 80026ce:	687b      	ldr	r3, [r7, #4]
 80026d0:	2200      	movs	r2, #0
 80026d2:	f883 2024 	strb.w	r2, [r3, #36]	@ 0x24
 80026d6:	2301      	movs	r3, #1
 80026d8:	e0d3      	b.n	8002882 <HAL_ADC_PollForConversion+0x1ea>
 80026da:	687b      	ldr	r3, [r7, #4]
 80026dc:	681b      	ldr	r3, [r3, #0]
 80026de:	685b      	ldr	r3, [r3, #4]
 80026e0:	f403 7380 	and.w	r3, r3, #256	@ 0x100
 80026e4:	2b00      	cmp	r3, #0
 80026e6:	d131      	bne.n	800274c <HAL_ADC_PollForConversion+0xb4>
 80026e8:	687b      	ldr	r3, [r7, #4]
 80026ea:	681b      	ldr	r3, [r3, #0]
 80026ec:	6adb      	ldr	r3, [r3, #44]	@ 0x2c
 80026ee:	f403 0370 	and.w	r3, r3, #15728640	@ 0xf00000
 80026f2:	2b00      	cmp	r3, #0
 80026f4:	d12a      	bne.n	800274c <HAL_ADC_PollForConversion+0xb4>
 80026f6:	e021      	b.n	800273c <HAL_ADC_PollForConversion+0xa4>
 80026f8:	683b      	ldr	r3, [r7, #0]
 80026fa:	f1b3 3fff 	cmp.w	r3, #4294967295
 80026fe:	d01d      	beq.n	800273c <HAL_ADC_PollForConversion+0xa4>
 8002700:	683b      	ldr	r3, [r7, #0]
 8002702:	2b00      	cmp	r3, #0
 8002704:	d007      	beq.n	8002716 <HAL_ADC_PollForConversion+0x7e>
 8002706:	f7ff fe13 	bl	8002330 <HAL_GetTick>
 800270a:	4602      	mov	r2, r0
 800270c:	697b      	ldr	r3, [r7, #20]
 800270e:	1ad3      	subs	r3, r2, r3
 8002710:	683a      	ldr	r2, [r7, #0]
 8002712:	429a      	cmp	r2, r3
 8002714:	d212      	bcs.n	800273c <HAL_ADC_PollForConversion+0xa4>
 8002716:	687b      	ldr	r3, [r7, #4]
 8002718:	681b      	ldr	r3, [r3, #0]
 800271a:	681b      	ldr	r3, [r3, #0]
 800271c:	f003 0302 	and.w	r3, r3, #2
 8002720:	2b00      	cmp	r3, #0
 8002722:	d10b      	bne.n	800273c <HAL_ADC_PollForConversion+0xa4>
 8002724:	687b      	ldr	r3, [r7, #4]
 8002726:	6a9b      	ldr	r3, [r3, #40]	@ 0x28
 8002728:	f043 0204 	orr.w	r2, r3, #4
 800272c:	687b      	ldr	r3, [r7, #4]
 800272e:	629a      	str	r2, [r3, #40]	@ 0x28
 8002730:	687b      	ldr	r3, [r7, #4]
 8002732:	2200      	movs	r2, #0
 8002734:	f883 2024 	strb.w	r2, [r3, #36]	@ 0x24
 8002738:	2303      	movs	r3, #3
 800273a:	e0a2      	b.n	8002882 <HAL_ADC_PollForConversion+0x1ea>
 800273c:	687b      	ldr	r3, [r7, #4]
 800273e:	681b      	ldr	r3, [r3, #0]
 8002740:	681b      	ldr	r3, [r3, #0]
 8002742:	f003 0302 	and.w	r3, r3, #2
 8002746:	2b00      	cmp	r3, #0
 8002748:	d0d6      	beq.n	80026f8 <HAL_ADC_PollForConversion+0x60>
 800274a:	e070      	b.n	800282e <HAL_ADC_PollForConversion+0x196>
 800274c:	4b4f      	ldr	r3, [pc, #316]	@ (800288c <HAL_ADC_PollForConversion+0x1f4>)
 800274e:	681c      	ldr	r4, [r3, #0]
 8002750:	2002      	movs	r0, #2
 8002752:	f002 fbe3 	bl	8004f1c <HAL_RCCEx_GetPeriphCLKFreq>
 8002756:	4603      	mov	r3, r0
 8002758:	fbb4 f2f3 	udiv	r2, r4, r3
 800275c:	687b      	ldr	r3, [r7, #4]
 800275e:	681b      	ldr	r3, [r3, #0]
 8002760:	6919      	ldr	r1, [r3, #16]
 8002762:	4b4b      	ldr	r3, [pc, #300]	@ (8002890 <HAL_ADC_PollForConversion+0x1f8>)
 8002764:	400b      	ands	r3, r1
 8002766:	2b00      	cmp	r3, #0
 8002768:	d118      	bne.n	800279c <HAL_ADC_PollForConversion+0x104>
 800276a:	687b      	ldr	r3, [r7, #4]
 800276c:	681b      	ldr	r3, [r3, #0]
 800276e:	68d9      	ldr	r1, [r3, #12]
 8002770:	4b48      	ldr	r3, [pc, #288]	@ (8002894 <HAL_ADC_PollForConversion+0x1fc>)
 8002772:	400b      	ands	r3, r1
 8002774:	2b00      	cmp	r3, #0
 8002776:	d111      	bne.n	800279c <HAL_ADC_PollForConversion+0x104>
 8002778:	687b      	ldr	r3, [r7, #4]
 800277a:	681b      	ldr	r3, [r3, #0]
 800277c:	6919      	ldr	r1, [r3, #16]
 800277e:	4b46      	ldr	r3, [pc, #280]	@ (8002898 <HAL_ADC_PollForConversion+0x200>)
 8002780:	400b      	ands	r3, r1
 8002782:	2b00      	cmp	r3, #0
 8002784:	d108      	bne.n	8002798 <HAL_ADC_PollForConversion+0x100>
 8002786:	687b      	ldr	r3, [r7, #4]
 8002788:	681b      	ldr	r3, [r3, #0]
 800278a:	68d9      	ldr	r1, [r3, #12]
 800278c:	4b43      	ldr	r3, [pc, #268]	@ (800289c <HAL_ADC_PollForConversion+0x204>)
 800278e:	400b      	ands	r3, r1
 8002790:	2b00      	cmp	r3, #0
 8002792:	d101      	bne.n	8002798 <HAL_ADC_PollForConversion+0x100>
 8002794:	2314      	movs	r3, #20
 8002796:	e020      	b.n	80027da <HAL_ADC_PollForConversion+0x142>
 8002798:	2329      	movs	r3, #41	@ 0x29
 800279a:	e01e      	b.n	80027da <HAL_ADC_PollForConversion+0x142>
 800279c:	687b      	ldr	r3, [r7, #4]
 800279e:	681b      	ldr	r3, [r3, #0]
 80027a0:	6919      	ldr	r1, [r3, #16]
 80027a2:	4b3d      	ldr	r3, [pc, #244]	@ (8002898 <HAL_ADC_PollForConversion+0x200>)
 80027a4:	400b      	ands	r3, r1
 80027a6:	2b00      	cmp	r3, #0
 80027a8:	d106      	bne.n	80027b8 <HAL_ADC_PollForConversion+0x120>
 80027aa:	687b      	ldr	r3, [r7, #4]
 80027ac:	681b      	ldr	r3, [r3, #0]
 80027ae:	68d9      	ldr	r1, [r3, #12]
 80027b0:	4b3a      	ldr	r3, [pc, #232]	@ (800289c <HAL_ADC_PollForConversion+0x204>)
 80027b2:	400b      	ands	r3, r1
 80027b4:	2b00      	cmp	r3, #0
 80027b6:	d00d      	beq.n	80027d4 <HAL_ADC_PollForConversion+0x13c>
 80027b8:	687b      	ldr	r3, [r7, #4]
 80027ba:	681b      	ldr	r3, [r3, #0]
 80027bc:	6919      	ldr	r1, [r3, #16]
 80027be:	4b38      	ldr	r3, [pc, #224]	@ (80028a0 <HAL_ADC_PollForConversion+0x208>)
 80027c0:	400b      	ands	r3, r1
 80027c2:	2b00      	cmp	r3, #0
 80027c4:	d108      	bne.n	80027d8 <HAL_ADC_PollForConversion+0x140>
 80027c6:	687b      	ldr	r3, [r7, #4]
 80027c8:	681b      	ldr	r3, [r3, #0]
 80027ca:	68d9      	ldr	r1, [r3, #12]
 80027cc:	4b34      	ldr	r3, [pc, #208]	@ (80028a0 <HAL_ADC_PollForConversion+0x208>)
 80027ce:	400b      	ands	r3, r1
 80027d0:	2b00      	cmp	r3, #0
 80027d2:	d101      	bne.n	80027d8 <HAL_ADC_PollForConversion+0x140>
 80027d4:	2354      	movs	r3, #84	@ 0x54
 80027d6:	e000      	b.n	80027da <HAL_ADC_PollForConversion+0x142>
 80027d8:	23fc      	movs	r3, #252	@ 0xfc
 80027da:	fb02 f303 	mul.w	r3, r2, r3
 80027de:	613b      	str	r3, [r7, #16]
 80027e0:	e021      	b.n	8002826 <HAL_ADC_PollForConversion+0x18e>
 80027e2:	683b      	ldr	r3, [r7, #0]
 80027e4:	f1b3 3fff 	cmp.w	r3, #4294967295
 80027e8:	d01a      	beq.n	8002820 <HAL_ADC_PollForConversion+0x188>
 80027ea:	683b      	ldr	r3, [r7, #0]
 80027ec:	2b00      	cmp	r3, #0
 80027ee:	d007      	beq.n	8002800 <HAL_ADC_PollForConversion+0x168>
 80027f0:	f7ff fd9e 	bl	8002330 <HAL_GetTick>
 80027f4:	4602      	mov	r2, r0
 80027f6:	697b      	ldr	r3, [r7, #20]
 80027f8:	1ad3      	subs	r3, r2, r3
 80027fa:	683a      	ldr	r2, [r7, #0]
 80027fc:	429a      	cmp	r2, r3
 80027fe:	d20f      	bcs.n	8002820 <HAL_ADC_PollForConversion+0x188>
 8002800:	68fb      	ldr	r3, [r7, #12]
 8002802:	693a      	ldr	r2, [r7, #16]
 8002804:	429a      	cmp	r2, r3
 8002806:	d90b      	bls.n	8002820 <HAL_ADC_PollForConversion+0x188>
 8002808:	687b      	ldr	r3, [r7, #4]
 800280a:	6a9b      	ldr	r3, [r3, #40]	@ 0x28
 800280c:	f043 0204 	orr.w	r2, r3, #4
 8002810:	687b      	ldr	r3, [r7, #4]
 8002812:	629a      	str	r2, [r3, #40]	@ 0x28
 8002814:	687b      	ldr	r3, [r7, #4]
 8002816:	2200      	movs	r2, #0
 8002818:	f883 2024 	strb.w	r2, [r3, #36]	@ 0x24
 800281c:	2303      	movs	r3, #3
 800281e:	e030      	b.n	8002882 <HAL_ADC_PollForConversion+0x1ea>
 8002820:	68fb      	ldr	r3, [r7, #12]
 8002822:	3301      	adds	r3, #1
 8002824:	60fb      	str	r3, [r7, #12]
 8002826:	68fb      	ldr	r3, [r7, #12]
 8002828:	693a      	ldr	r2, [r7, #16]
 800282a:	429a      	cmp	r2, r3
 800282c:	d8d9      	bhi.n	80027e2 <HAL_ADC_PollForConversion+0x14a>
 800282e:	687b      	ldr	r3, [r7, #4]
 8002830:	681b      	ldr	r3, [r3, #0]
 8002832:	f06f 0212 	mvn.w	r2, #18
 8002836:	601a      	str	r2, [r3, #0]
 8002838:	687b      	ldr	r3, [r7, #4]
 800283a:	6a9b      	ldr	r3, [r3, #40]	@ 0x28
 800283c:	f443 7200 	orr.w	r2, r3, #512	@ 0x200
 8002840:	687b      	ldr	r3, [r7, #4]
 8002842:	629a      	str	r2, [r3, #40]	@ 0x28
 8002844:	687b      	ldr	r3, [r7, #4]
 8002846:	681b      	ldr	r3, [r3, #0]
 8002848:	689b      	ldr	r3, [r3, #8]
 800284a:	f403 2360 	and.w	r3, r3, #917504	@ 0xe0000
 800284e:	f5b3 2f60 	cmp.w	r3, #917504	@ 0xe0000
 8002852:	d115      	bne.n	8002880 <HAL_ADC_PollForConversion+0x1e8>
 8002854:	687b      	ldr	r3, [r7, #4]
 8002856:	7b1b      	ldrb	r3, [r3, #12]
 8002858:	2b00      	cmp	r3, #0
 800285a:	d111      	bne.n	8002880 <HAL_ADC_PollForConversion+0x1e8>
 800285c:	687b      	ldr	r3, [r7, #4]
 800285e:	6a9b      	ldr	r3, [r3, #40]	@ 0x28
 8002860:	f423 7280 	bic.w	r2, r3, #256	@ 0x100
 8002864:	687b      	ldr	r3, [r7, #4]
 8002866:	629a      	str	r2, [r3, #40]	@ 0x28
 8002868:	687b      	ldr	r3, [r7, #4]
 800286a:	6a9b      	ldr	r3, [r3, #40]	@ 0x28
 800286c:	f403 5380 	and.w	r3, r3, #4096	@ 0x1000
 8002870:	2b00      	cmp	r3, #0
 8002872:	d105      	bne.n	8002880 <HAL_ADC_PollForConversion+0x1e8>
 8002874:	687b      	ldr	r3, [r7, #4]
 8002876:	6a9b      	ldr	r3, [r3, #40]	@ 0x28
 8002878:	f043 0201 	orr.w	r2, r3, #1
 800287c:	687b      	ldr	r3, [r7, #4]
 800287e:	629a      	str	r2, [r3, #40]	@ 0x28
 8002880:	2300      	movs	r3, #0
 8002882:	4618      	mov	r0, r3
 8002884:	371c      	adds	r7, #28
 8002886:	46bd      	mov	sp, r7
 8002888:	bd90      	pop	{r4, r7, pc}
 800288a:	bf00      	nop
 800288c:	20000004 	.word	0x20000004
 8002890:	24924924 	.word	0x24924924
 8002894:	00924924 	.word	0x00924924
 8002898:	12492492 	.word	0x12492492
 800289c:	00492492 	.word	0x00492492
 80028a0:	00249249 	.word	0x00249249

080028a4 <HAL_ADC_GetValue>:
 80028a4:	b480      	push	{r7}
 80028a6:	b083      	sub	sp, #12
 80028a8:	af00      	add	r7, sp, #0
 80028aa:	6078      	str	r0, [r7, #4]
 80028ac:	687b      	ldr	r3, [r7, #4]
 80028ae:	681b      	ldr	r3, [r3, #0]
 80028b0:	6cdb      	ldr	r3, [r3, #76]	@ 0x4c
 80028b2:	4618      	mov	r0, r3
 80028b4:	370c      	adds	r7, #12
 80028b6:	46bd      	mov	sp, r7
 80028b8:	bc80      	pop	{r7}
 80028ba:	4770      	bx	lr

080028bc <HAL_ADC_ConfigChannel>:
 80028bc:	b480      	push	{r7}
 80028be:	b085      	sub	sp, #20
 80028c0:	af00      	add	r7, sp, #0
 80028c2:	6078      	str	r0, [r7, #4]
 80028c4:	6039      	str	r1, [r7, #0]
 80028c6:	2300      	movs	r3, #0
 80028c8:	73fb      	strb	r3, [r7, #15]
 80028ca:	2300      	movs	r3, #0
 80028cc:	60bb      	str	r3, [r7, #8]
 80028ce:	687b      	ldr	r3, [r7, #4]
 80028d0:	f893 3024 	ldrb.w	r3, [r3, #36]	@ 0x24
 80028d4:	2b01      	cmp	r3, #1
 80028d6:	d101      	bne.n	80028dc <HAL_ADC_ConfigChannel+0x20>
 80028d8:	2302      	movs	r3, #2
 80028da:	e0dc      	b.n	8002a96 <HAL_ADC_ConfigChannel+0x1da>
 80028dc:	687b      	ldr	r3, [r7, #4]
 80028de:	2201      	movs	r2, #1
 80028e0:	f883 2024 	strb.w	r2, [r3, #36]	@ 0x24
 80028e4:	683b      	ldr	r3, [r7, #0]
 80028e6:	685b      	ldr	r3, [r3, #4]
 80028e8:	2b06      	cmp	r3, #6
 80028ea:	d81c      	bhi.n	8002926 <HAL_ADC_ConfigChannel+0x6a>
 80028ec:	687b      	ldr	r3, [r7, #4]
 80028ee:	681b      	ldr	r3, [r3, #0]
 80028f0:	6b59      	ldr	r1, [r3, #52]	@ 0x34
 80028f2:	683b      	ldr	r3, [r7, #0]
 80028f4:	685a      	ldr	r2, [r3, #4]
 80028f6:	4613      	mov	r3, r2
 80028f8:	009b      	lsls	r3, r3, #2
 80028fa:	4413      	add	r3, r2
 80028fc:	3b05      	subs	r3, #5
 80028fe:	221f      	movs	r2, #31
 8002900:	fa02 f303 	lsl.w	r3, r2, r3
 8002904:	43db      	mvns	r3, r3
 8002906:	4019      	ands	r1, r3
 8002908:	683b      	ldr	r3, [r7, #0]
 800290a:	6818      	ldr	r0, [r3, #0]
 800290c:	683b      	ldr	r3, [r7, #0]
 800290e:	685a      	ldr	r2, [r3, #4]
 8002910:	4613      	mov	r3, r2
 8002912:	009b      	lsls	r3, r3, #2
 8002914:	4413      	add	r3, r2
 8002916:	3b05      	subs	r3, #5
 8002918:	fa00 f203 	lsl.w	r2, r0, r3
 800291c:	687b      	ldr	r3, [r7, #4]
 800291e:	681b      	ldr	r3, [r3, #0]
 8002920:	430a      	orrs	r2, r1
 8002922:	635a      	str	r2, [r3, #52]	@ 0x34
 8002924:	e03c      	b.n	80029a0 <HAL_ADC_ConfigChannel+0xe4>
 8002926:	683b      	ldr	r3, [r7, #0]
 8002928:	685b      	ldr	r3, [r3, #4]
 800292a:	2b0c      	cmp	r3, #12
 800292c:	d81c      	bhi.n	8002968 <HAL_ADC_ConfigChannel+0xac>
 800292e:	687b      	ldr	r3, [r7, #4]
 8002930:	681b      	ldr	r3, [r3, #0]
 8002932:	6b19      	ldr	r1, [r3, #48]	@ 0x30
 8002934:	683b      	ldr	r3, [r7, #0]
 8002936:	685a      	ldr	r2, [r3, #4]
 8002938:	4613      	mov	r3, r2
 800293a:	009b      	lsls	r3, r3, #2
 800293c:	4413      	add	r3, r2
 800293e:	3b23      	subs	r3, #35	@ 0x23
 8002940:	221f      	movs	r2, #31
 8002942:	fa02 f303 	lsl.w	r3, r2, r3
 8002946:	43db      	mvns	r3, r3
 8002948:	4019      	ands	r1, r3
 800294a:	683b      	ldr	r3, [r7, #0]
 800294c:	6818      	ldr	r0, [r3, #0]
 800294e:	683b      	ldr	r3, [r7, #0]
 8002950:	685a      	ldr	r2, [r3, #4]
 8002952:	4613      	mov	r3, r2
 8002954:	009b      	lsls	r3, r3, #2
 8002956:	4413      	add	r3, r2
 8002958:	3b23      	subs	r3, #35	@ 0x23
 800295a:	fa00 f203 	lsl.w	r2, r0, r3
 800295e:	687b      	ldr	r3, [r7, #4]
 8002960:	681b      	ldr	r3, [r3, #0]
 8002962:	430a      	orrs	r2, r1
 8002964:	631a      	str	r2, [r3, #48]	@ 0x30
 8002966:	e01b      	b.n	80029a0 <HAL_ADC_ConfigChannel+0xe4>
 8002968:	687b      	ldr	r3, [r7, #4]
 800296a:	681b      	ldr	r3, [r3, #0]
 800296c:	6ad9      	ldr	r1, [r3, #44]	@ 0x2c
 800296e:	683b      	ldr	r3, [r7, #0]
 8002970:	685a      	ldr	r2, [r3, #4]
 8002972:	4613      	mov	r3, r2
 8002974:	009b      	lsls	r3, r3, #2
 8002976:	4413      	add	r3, r2
 8002978:	3b41      	subs	r3, #65	@ 0x41
 800297a:	221f      	movs	r2, #31
 800297c:	fa02 f303 	lsl.w	r3, r2, r3
 8002980:	43db      	mvns	r3, r3
 8002982:	4019      	ands	r1, r3
 8002984:	683b      	ldr	r3, [r7, #0]
 8002986:	6818      	ldr	r0, [r3, #0]
 8002988:	683b      	ldr	r3, [r7, #0]
 800298a:	685a      	ldr	r2, [r3, #4]
 800298c:	4613      	mov	r3, r2
 800298e:	009b      	lsls	r3, r3, #2
 8002990:	4413      	add	r3, r2
 8002992:	3b41      	subs	r3, #65	@ 0x41
 8002994:	fa00 f203 	lsl.w	r2, r0, r3
 8002998:	687b      	ldr	r3, [r7, #4]
 800299a:	681b      	ldr	r3, [r3, #0]
 800299c:	430a      	orrs	r2, r1
 800299e:	62da      	str	r2, [r3, #44]	@ 0x2c
 80029a0:	683b      	ldr	r3, [r7, #0]
 80029a2:	681b      	ldr	r3, [r3, #0]
 80029a4:	2b09      	cmp	r3, #9
 80029a6:	d91c      	bls.n	80029e2 <HAL_ADC_ConfigChannel+0x126>
 80029a8:	687b      	ldr	r3, [r7, #4]
 80029aa:	681b      	ldr	r3, [r3, #0]
 80029ac:	68d9      	ldr	r1, [r3, #12]
 80029ae:	683b      	ldr	r3, [r7, #0]
 80029b0:	681a      	ldr	r2, [r3, #0]
 80029b2:	4613      	mov	r3, r2
 80029b4:	005b      	lsls	r3, r3, #1
 80029b6:	4413      	add	r3, r2
 80029b8:	3b1e      	subs	r3, #30
 80029ba:	2207      	movs	r2, #7
 80029bc:	fa02 f303 	lsl.w	r3, r2, r3
 80029c0:	43db      	mvns	r3, r3
 80029c2:	4019      	ands	r1, r3
 80029c4:	683b      	ldr	r3, [r7, #0]
 80029c6:	6898      	ldr	r0, [r3, #8]
 80029c8:	683b      	ldr	r3, [r7, #0]
 80029ca:	681a      	ldr	r2, [r3, #0]
 80029cc:	4613      	mov	r3, r2
 80029ce:	005b      	lsls	r3, r3, #1
 80029d0:	4413      	add	r3, r2
 80029d2:	3b1e      	subs	r3, #30
 80029d4:	fa00 f203 	lsl.w	r2, r0, r3
 80029d8:	687b      	ldr	r3, [r7, #4]
 80029da:	681b      	ldr	r3, [r3, #0]
 80029dc:	430a      	orrs	r2, r1
 80029de:	60da      	str	r2, [r3, #12]
 80029e0:	e019      	b.n	8002a16 <HAL_ADC_ConfigChannel+0x15a>
 80029e2:	687b      	ldr	r3, [r7, #4]
 80029e4:	681b      	ldr	r3, [r3, #0]
 80029e6:	6919      	ldr	r1, [r3, #16]
 80029e8:	683b      	ldr	r3, [r7, #0]
 80029ea:	681a      	ldr	r2, [r3, #0]
 80029ec:	4613      	mov	r3, r2
 80029ee:	005b      	lsls	r3, r3, #1
 80029f0:	4413      	add	r3, r2
 80029f2:	2207      	movs	r2, #7
 80029f4:	fa02 f303 	lsl.w	r3, r2, r3
 80029f8:	43db      	mvns	r3, r3
 80029fa:	4019      	ands	r1, r3
 80029fc:	683b      	ldr	r3, [r7, #0]
 80029fe:	6898      	ldr	r0, [r3, #8]
 8002a00:	683b      	ldr	r3, [r7, #0]
 8002a02:	681a      	ldr	r2, [r3, #0]
 8002a04:	4613      	mov	r3, r2
 8002a06:	005b      	lsls	r3, r3, #1
 8002a08:	4413      	add	r3, r2
 8002a0a:	fa00 f203 	lsl.w	r2, r0, r3
 8002a0e:	687b      	ldr	r3, [r7, #4]
 8002a10:	681b      	ldr	r3, [r3, #0]
 8002a12:	430a      	orrs	r2, r1
 8002a14:	611a      	str	r2, [r3, #16]
 8002a16:	683b      	ldr	r3, [r7, #0]
 8002a18:	681b      	ldr	r3, [r3, #0]
 8002a1a:	2b10      	cmp	r3, #16
 8002a1c:	d003      	beq.n	8002a26 <HAL_ADC_ConfigChannel+0x16a>
 8002a1e:	683b      	ldr	r3, [r7, #0]
 8002a20:	681b      	ldr	r3, [r3, #0]
 8002a22:	2b11      	cmp	r3, #17
 8002a24:	d132      	bne.n	8002a8c <HAL_ADC_ConfigChannel+0x1d0>
 8002a26:	687b      	ldr	r3, [r7, #4]
 8002a28:	681b      	ldr	r3, [r3, #0]
 8002a2a:	4a1d      	ldr	r2, [pc, #116]	@ (8002aa0 <HAL_ADC_ConfigChannel+0x1e4>)
 8002a2c:	4293      	cmp	r3, r2
 8002a2e:	d125      	bne.n	8002a7c <HAL_ADC_ConfigChannel+0x1c0>
 8002a30:	687b      	ldr	r3, [r7, #4]
 8002a32:	681b      	ldr	r3, [r3, #0]
 8002a34:	689b      	ldr	r3, [r3, #8]
 8002a36:	f403 0300 	and.w	r3, r3, #8388608	@ 0x800000
 8002a3a:	2b00      	cmp	r3, #0
 8002a3c:	d126      	bne.n	8002a8c <HAL_ADC_ConfigChannel+0x1d0>
 8002a3e:	687b      	ldr	r3, [r7, #4]
 8002a40:	681b      	ldr	r3, [r3, #0]
 8002a42:	689a      	ldr	r2, [r3, #8]
 8002a44:	687b      	ldr	r3, [r7, #4]
 8002a46:	681b      	ldr	r3, [r3, #0]
 8002a48:	f442 0200 	orr.w	r2, r2, #8388608	@ 0x800000
 8002a4c:	609a      	str	r2, [r3, #8]
 8002a4e:	683b      	ldr	r3, [r7, #0]
 8002a50:	681b      	ldr	r3, [r3, #0]
 8002a52:	2b10      	cmp	r3, #16
 8002a54:	d11a      	bne.n	8002a8c <HAL_ADC_ConfigChannel+0x1d0>
 8002a56:	4b13      	ldr	r3, [pc, #76]	@ (8002aa4 <HAL_ADC_ConfigChannel+0x1e8>)
 8002a58:	681b      	ldr	r3, [r3, #0]
 8002a5a:	4a13      	ldr	r2, [pc, #76]	@ (8002aa8 <HAL_ADC_ConfigChannel+0x1ec>)
 8002a5c:	fba2 2303 	umull	r2, r3, r2, r3
 8002a60:	0c9a      	lsrs	r2, r3, #18
 8002a62:	4613      	mov	r3, r2
 8002a64:	009b      	lsls	r3, r3, #2
 8002a66:	4413      	add	r3, r2
 8002a68:	005b      	lsls	r3, r3, #1
 8002a6a:	60bb      	str	r3, [r7, #8]
 8002a6c:	e002      	b.n	8002a74 <HAL_ADC_ConfigChannel+0x1b8>
 8002a6e:	68bb      	ldr	r3, [r7, #8]
 8002a70:	3b01      	subs	r3, #1
 8002a72:	60bb      	str	r3, [r7, #8]
 8002a74:	68bb      	ldr	r3, [r7, #8]
 8002a76:	2b00      	cmp	r3, #0
 8002a78:	d1f9      	bne.n	8002a6e <HAL_ADC_ConfigChannel+0x1b2>
 8002a7a:	e007      	b.n	8002a8c <HAL_ADC_ConfigChannel+0x1d0>
 8002a7c:	687b      	ldr	r3, [r7, #4]
 8002a7e:	6a9b      	ldr	r3, [r3, #40]	@ 0x28
 8002a80:	f043 0220 	orr.w	r2, r3, #32
 8002a84:	687b      	ldr	r3, [r7, #4]
 8002a86:	629a      	str	r2, [r3, #40]	@ 0x28
 8002a88:	2301      	movs	r3, #1
 8002a8a:	73fb      	strb	r3, [r7, #15]
 8002a8c:	687b      	ldr	r3, [r7, #4]
 8002a8e:	2200      	movs	r2, #0
 8002a90:	f883 2024 	strb.w	r2, [r3, #36]	@ 0x24
 8002a94:	7bfb      	ldrb	r3, [r7, #15]
 8002a96:	4618      	mov	r0, r3
 8002a98:	3714      	adds	r7, #20
 8002a9a:	46bd      	mov	sp, r7
 8002a9c:	bc80      	pop	{r7}
 8002a9e:	4770      	bx	lr
 8002aa0:	40012400 	.word	0x40012400
 8002aa4:	20000004 	.word	0x20000004
 8002aa8:	431bde83 	.word	0x431bde83

08002aac <ADC_Enable>:
 8002aac:	b580      	push	{r7, lr}
 8002aae:	b084      	sub	sp, #16
 8002ab0:	af00      	add	r7, sp, #0
 8002ab2:	6078      	str	r0, [r7, #4]
 8002ab4:	2300      	movs	r3, #0
 8002ab6:	60fb      	str	r3, [r7, #12]
 8002ab8:	2300      	movs	r3, #0
 8002aba:	60bb      	str	r3, [r7, #8]
 8002abc:	687b      	ldr	r3, [r7, #4]
 8002abe:	681b      	ldr	r3, [r3, #0]
 8002ac0:	689b      	ldr	r3, [r3, #8]
 8002ac2:	f003 0301 	and.w	r3, r3, #1
 8002ac6:	2b01      	cmp	r3, #1
 8002ac8:	d040      	beq.n	8002b4c <ADC_Enable+0xa0>
 8002aca:	687b      	ldr	r3, [r7, #4]
 8002acc:	681b      	ldr	r3, [r3, #0]
 8002ace:	689a      	ldr	r2, [r3, #8]
 8002ad0:	687b      	ldr	r3, [r7, #4]
 8002ad2:	681b      	ldr	r3, [r3, #0]
 8002ad4:	f042 0201 	orr.w	r2, r2, #1
 8002ad8:	609a      	str	r2, [r3, #8]
 8002ada:	4b1f      	ldr	r3, [pc, #124]	@ (8002b58 <ADC_Enable+0xac>)
 8002adc:	681b      	ldr	r3, [r3, #0]
 8002ade:	4a1f      	ldr	r2, [pc, #124]	@ (8002b5c <ADC_Enable+0xb0>)
 8002ae0:	fba2 2303 	umull	r2, r3, r2, r3
 8002ae4:	0c9b      	lsrs	r3, r3, #18
 8002ae6:	60bb      	str	r3, [r7, #8]
 8002ae8:	e002      	b.n	8002af0 <ADC_Enable+0x44>
 8002aea:	68bb      	ldr	r3, [r7, #8]
 8002aec:	3b01      	subs	r3, #1
 8002aee:	60bb      	str	r3, [r7, #8]
 8002af0:	68bb      	ldr	r3, [r7, #8]
 8002af2:	2b00      	cmp	r3, #0
 8002af4:	d1f9      	bne.n	8002aea <ADC_Enable+0x3e>
 8002af6:	f7ff fc1b 	bl	8002330 <HAL_GetTick>
 8002afa:	60f8      	str	r0, [r7, #12]
 8002afc:	e01f      	b.n	8002b3e <ADC_Enable+0x92>
 8002afe:	f7ff fc17 	bl	8002330 <HAL_GetTick>
 8002b02:	4602      	mov	r2, r0
 8002b04:	68fb      	ldr	r3, [r7, #12]
 8002b06:	1ad3      	subs	r3, r2, r3
 8002b08:	2b02      	cmp	r3, #2
 8002b0a:	d918      	bls.n	8002b3e <ADC_Enable+0x92>
 8002b0c:	687b      	ldr	r3, [r7, #4]
 8002b0e:	681b      	ldr	r3, [r3, #0]
 8002b10:	689b      	ldr	r3, [r3, #8]
 8002b12:	f003 0301 	and.w	r3, r3, #1
 8002b16:	2b01      	cmp	r3, #1
 8002b18:	d011      	beq.n	8002b3e <ADC_Enable+0x92>
 8002b1a:	687b      	ldr	r3, [r7, #4]
 8002b1c:	6a9b      	ldr	r3, [r3, #40]	@ 0x28
 8002b1e:	f043 0210 	orr.w	r2, r3, #16
 8002b22:	687b      	ldr	r3, [r7, #4]
 8002b24:	629a      	str	r2, [r3, #40]	@ 0x28
 8002b26:	687b      	ldr	r3, [r7, #4]
 8002b28:	6adb      	ldr	r3, [r3, #44]	@ 0x2c
 8002b2a:	f043 0201 	orr.w	r2, r3, #1
 8002b2e:	687b      	ldr	r3, [r7, #4]
 8002b30:	62da      	str	r2, [r3, #44]	@ 0x2c
 8002b32:	687b      	ldr	r3, [r7, #4]
 8002b34:	2200      	movs	r2, #0
 8002b36:	f883 2024 	strb.w	r2, [r3, #36]	@ 0x24
 8002b3a:	2301      	movs	r3, #1
 8002b3c:	e007      	b.n	8002b4e <ADC_Enable+0xa2>
 8002b3e:	687b      	ldr	r3, [r7, #4]
 8002b40:	681b      	ldr	r3, [r3, #0]
 8002b42:	689b      	ldr	r3, [r3, #8]
 8002b44:	f003 0301 	and.w	r3, r3, #1
 8002b48:	2b01      	cmp	r3, #1
 8002b4a:	d1d8      	bne.n	8002afe <ADC_Enable+0x52>
 8002b4c:	2300      	movs	r3, #0
 8002b4e:	4618      	mov	r0, r3
 8002b50:	3710      	adds	r7, #16
 8002b52:	46bd      	mov	sp, r7
 8002b54:	bd80      	pop	{r7, pc}
 8002b56:	bf00      	nop
 8002b58:	20000004 	.word	0x20000004
 8002b5c:	431bde83 	.word	0x431bde83

08002b60 <ADC_ConversionStop_Disable>:
 8002b60:	b580      	push	{r7, lr}
 8002b62:	b084      	sub	sp, #16
 8002b64:	af00      	add	r7, sp, #0
 8002b66:	6078      	str	r0, [r7, #4]
 8002b68:	2300      	movs	r3, #0
 8002b6a:	60fb      	str	r3, [r7, #12]
 8002b6c:	687b      	ldr	r3, [r7, #4]
 8002b6e:	681b      	ldr	r3, [r3, #0]
 8002b70:	689b      	ldr	r3, [r3, #8]
 8002b72:	f003 0301 	and.w	r3, r3, #1
 8002b76:	2b01      	cmp	r3, #1
 8002b78:	d12e      	bne.n	8002bd8 <ADC_ConversionStop_Disable+0x78>
 8002b7a:	687b      	ldr	r3, [r7, #4]
 8002b7c:	681b      	ldr	r3, [r3, #0]
 8002b7e:	689a      	ldr	r2, [r3, #8]
 8002b80:	687b      	ldr	r3, [r7, #4]
 8002b82:	681b      	ldr	r3, [r3, #0]
 8002b84:	f022 0201 	bic.w	r2, r2, #1
 8002b88:	609a      	str	r2, [r3, #8]
 8002b8a:	f7ff fbd1 	bl	8002330 <HAL_GetTick>
 8002b8e:	60f8      	str	r0, [r7, #12]
 8002b90:	e01b      	b.n	8002bca <ADC_ConversionStop_Disable+0x6a>
 8002b92:	f7ff fbcd 	bl	8002330 <HAL_GetTick>
 8002b96:	4602      	mov	r2, r0
 8002b98:	68fb      	ldr	r3, [r7, #12]
 8002b9a:	1ad3      	subs	r3, r2, r3
 8002b9c:	2b02      	cmp	r3, #2
 8002b9e:	d914      	bls.n	8002bca <ADC_ConversionStop_Disable+0x6a>
 8002ba0:	687b      	ldr	r3, [r7, #4]
 8002ba2:	681b      	ldr	r3, [r3, #0]
 8002ba4:	689b      	ldr	r3, [r3, #8]
 8002ba6:	f003 0301 	and.w	r3, r3, #1
 8002baa:	2b01      	cmp	r3, #1
 8002bac:	d10d      	bne.n	8002bca <ADC_ConversionStop_Disable+0x6a>
 8002bae:	687b      	ldr	r3, [r7, #4]
 8002bb0:	6a9b      	ldr	r3, [r3, #40]	@ 0x28
 8002bb2:	f043 0210 	orr.w	r2, r3, #16
 8002bb6:	687b      	ldr	r3, [r7, #4]
 8002bb8:	629a      	str	r2, [r3, #40]	@ 0x28
 8002bba:	687b      	ldr	r3, [r7, #4]
 8002bbc:	6adb      	ldr	r3, [r3, #44]	@ 0x2c
 8002bbe:	f043 0201 	orr.w	r2, r3, #1
 8002bc2:	687b      	ldr	r3, [r7, #4]
 8002bc4:	62da      	str	r2, [r3, #44]	@ 0x2c
 8002bc6:	2301      	movs	r3, #1
 8002bc8:	e007      	b.n	8002bda <ADC_ConversionStop_Disable+0x7a>
 8002bca:	687b      	ldr	r3, [r7, #4]
 8002bcc:	681b      	ldr	r3, [r3, #0]
 8002bce:	689b      	ldr	r3, [r3, #8]
 8002bd0:	f003 0301 	and.w	r3, r3, #1
 8002bd4:	2b01      	cmp	r3, #1
 8002bd6:	d0dc      	beq.n	8002b92 <ADC_ConversionStop_Disable+0x32>
 8002bd8:	2300      	movs	r3, #0
 8002bda:	4618      	mov	r0, r3
 8002bdc:	3710      	adds	r7, #16
 8002bde:	46bd      	mov	sp, r7
 8002be0:	bd80      	pop	{r7, pc}
	...

08002be4 <__NVIC_SetPriorityGrouping>:
 8002be4:	b480      	push	{r7}
 8002be6:	b085      	sub	sp, #20
 8002be8:	af00      	add	r7, sp, #0
 8002bea:	6078      	str	r0, [r7, #4]
 8002bec:	687b      	ldr	r3, [r7, #4]
 8002bee:	f003 0307 	and.w	r3, r3, #7
 8002bf2:	60fb      	str	r3, [r7, #12]
 8002bf4:	4b0c      	ldr	r3, [pc, #48]	@ (8002c28 <__NVIC_SetPriorityGrouping+0x44>)
 8002bf6:	68db      	ldr	r3, [r3, #12]
 8002bf8:	60bb      	str	r3, [r7, #8]
 8002bfa:	68ba      	ldr	r2, [r7, #8]
 8002bfc:	f64f 03ff 	movw	r3, #63743	@ 0xf8ff
 8002c00:	4013      	ands	r3, r2
 8002c02:	60bb      	str	r3, [r7, #8]
 8002c04:	68fb      	ldr	r3, [r7, #12]
 8002c06:	021a      	lsls	r2, r3, #8
 8002c08:	68bb      	ldr	r3, [r7, #8]
 8002c0a:	4313      	orrs	r3, r2
 8002c0c:	f043 63bf 	orr.w	r3, r3, #100139008	@ 0x5f80000
 8002c10:	f443 3300 	orr.w	r3, r3, #131072	@ 0x20000
 8002c14:	60bb      	str	r3, [r7, #8]
 8002c16:	4a04      	ldr	r2, [pc, #16]	@ (8002c28 <__NVIC_SetPriorityGrouping+0x44>)
 8002c18:	68bb      	ldr	r3, [r7, #8]
 8002c1a:	60d3      	str	r3, [r2, #12]
 8002c1c:	bf00      	nop
 8002c1e:	3714      	adds	r7, #20
 8002c20:	46bd      	mov	sp, r7
 8002c22:	bc80      	pop	{r7}
 8002c24:	4770      	bx	lr
 8002c26:	bf00      	nop
 8002c28:	e000ed00 	.word	0xe000ed00

08002c2c <__NVIC_GetPriorityGrouping>:
 8002c2c:	b480      	push	{r7}
 8002c2e:	af00      	add	r7, sp, #0
 8002c30:	4b04      	ldr	r3, [pc, #16]	@ (8002c44 <__NVIC_GetPriorityGrouping+0x18>)
 8002c32:	68db      	ldr	r3, [r3, #12]
 8002c34:	0a1b      	lsrs	r3, r3, #8
 8002c36:	f003 0307 	and.w	r3, r3, #7
 8002c3a:	4618      	mov	r0, r3
 8002c3c:	46bd      	mov	sp, r7
 8002c3e:	bc80      	pop	{r7}
 8002c40:	4770      	bx	lr
 8002c42:	bf00      	nop
 8002c44:	e000ed00 	.word	0xe000ed00

08002c48 <__NVIC_EnableIRQ>:
 8002c48:	b480      	push	{r7}
 8002c4a:	b083      	sub	sp, #12
 8002c4c:	af00      	add	r7, sp, #0
 8002c4e:	4603      	mov	r3, r0
 8002c50:	71fb      	strb	r3, [r7, #7]
 8002c52:	f997 3007 	ldrsb.w	r3, [r7, #7]
 8002c56:	2b00      	cmp	r3, #0
 8002c58:	db0b      	blt.n	8002c72 <__NVIC_EnableIRQ+0x2a>
 8002c5a:	79fb      	ldrb	r3, [r7, #7]
 8002c5c:	f003 021f 	and.w	r2, r3, #31
 8002c60:	4906      	ldr	r1, [pc, #24]	@ (8002c7c <__NVIC_EnableIRQ+0x34>)
 8002c62:	f997 3007 	ldrsb.w	r3, [r7, #7]
 8002c66:	095b      	lsrs	r3, r3, #5
 8002c68:	2001      	movs	r0, #1
 8002c6a:	fa00 f202 	lsl.w	r2, r0, r2
 8002c6e:	f841 2023 	str.w	r2, [r1, r3, lsl #2]
 8002c72:	bf00      	nop
 8002c74:	370c      	adds	r7, #12
 8002c76:	46bd      	mov	sp, r7
 8002c78:	bc80      	pop	{r7}
 8002c7a:	4770      	bx	lr
 8002c7c:	e000e100 	.word	0xe000e100

08002c80 <__NVIC_SetPriority>:
 8002c80:	b480      	push	{r7}
 8002c82:	b083      	sub	sp, #12
 8002c84:	af00      	add	r7, sp, #0
 8002c86:	4603      	mov	r3, r0
 8002c88:	6039      	str	r1, [r7, #0]
 8002c8a:	71fb      	strb	r3, [r7, #7]
 8002c8c:	f997 3007 	ldrsb.w	r3, [r7, #7]
 8002c90:	2b00      	cmp	r3, #0
 8002c92:	db0a      	blt.n	8002caa <__NVIC_SetPriority+0x2a>
 8002c94:	683b      	ldr	r3, [r7, #0]
 8002c96:	b2da      	uxtb	r2, r3
 8002c98:	490c      	ldr	r1, [pc, #48]	@ (8002ccc <__NVIC_SetPriority+0x4c>)
 8002c9a:	f997 3007 	ldrsb.w	r3, [r7, #7]
 8002c9e:	0112      	lsls	r2, r2, #4
 8002ca0:	b2d2      	uxtb	r2, r2
 8002ca2:	440b      	add	r3, r1
 8002ca4:	f883 2300 	strb.w	r2, [r3, #768]	@ 0x300
 8002ca8:	e00a      	b.n	8002cc0 <__NVIC_SetPriority+0x40>
 8002caa:	683b      	ldr	r3, [r7, #0]
 8002cac:	b2da      	uxtb	r2, r3
 8002cae:	4908      	ldr	r1, [pc, #32]	@ (8002cd0 <__NVIC_SetPriority+0x50>)
 8002cb0:	79fb      	ldrb	r3, [r7, #7]
 8002cb2:	f003 030f 	and.w	r3, r3, #15
 8002cb6:	3b04      	subs	r3, #4
 8002cb8:	0112      	lsls	r2, r2, #4
 8002cba:	b2d2      	uxtb	r2, r2
 8002cbc:	440b      	add	r3, r1
 8002cbe:	761a      	strb	r2, [r3, #24]
 8002cc0:	bf00      	nop
 8002cc2:	370c      	adds	r7, #12
 8002cc4:	46bd      	mov	sp, r7
 8002cc6:	bc80      	pop	{r7}
 8002cc8:	4770      	bx	lr
 8002cca:	bf00      	nop
 8002ccc:	e000e100 	.word	0xe000e100
 8002cd0:	e000ed00 	.word	0xe000ed00

08002cd4 <NVIC_EncodePriority>:
 8002cd4:	b480      	push	{r7}
 8002cd6:	b089      	sub	sp, #36	@ 0x24
 8002cd8:	af00      	add	r7, sp, #0
 8002cda:	60f8      	str	r0, [r7, #12]
 8002cdc:	60b9      	str	r1, [r7, #8]
 8002cde:	607a      	str	r2, [r7, #4]
 8002ce0:	68fb      	ldr	r3, [r7, #12]
 8002ce2:	f003 0307 	and.w	r3, r3, #7
 8002ce6:	61fb      	str	r3, [r7, #28]
 8002ce8:	69fb      	ldr	r3, [r7, #28]
 8002cea:	f1c3 0307 	rsb	r3, r3, #7
 8002cee:	2b04      	cmp	r3, #4
 8002cf0:	bf28      	it	cs
 8002cf2:	2304      	movcs	r3, #4
 8002cf4:	61bb      	str	r3, [r7, #24]
 8002cf6:	69fb      	ldr	r3, [r7, #28]
 8002cf8:	3304      	adds	r3, #4
 8002cfa:	2b06      	cmp	r3, #6
 8002cfc:	d902      	bls.n	8002d04 <NVIC_EncodePriority+0x30>
 8002cfe:	69fb      	ldr	r3, [r7, #28]
 8002d00:	3b03      	subs	r3, #3
 8002d02:	e000      	b.n	8002d06 <NVIC_EncodePriority+0x32>
 8002d04:	2300      	movs	r3, #0
 8002d06:	617b      	str	r3, [r7, #20]
 8002d08:	f04f 32ff 	mov.w	r2, #4294967295
 8002d0c:	69bb      	ldr	r3, [r7, #24]
 8002d0e:	fa02 f303 	lsl.w	r3, r2, r3
 8002d12:	43da      	mvns	r2, r3
 8002d14:	68bb      	ldr	r3, [r7, #8]
 8002d16:	401a      	ands	r2, r3
 8002d18:	697b      	ldr	r3, [r7, #20]
 8002d1a:	409a      	lsls	r2, r3
 8002d1c:	f04f 31ff 	mov.w	r1, #4294967295
 8002d20:	697b      	ldr	r3, [r7, #20]
 8002d22:	fa01 f303 	lsl.w	r3, r1, r3
 8002d26:	43d9      	mvns	r1, r3
 8002d28:	687b      	ldr	r3, [r7, #4]
 8002d2a:	400b      	ands	r3, r1
 8002d2c:	4313      	orrs	r3, r2
 8002d2e:	4618      	mov	r0, r3
 8002d30:	3724      	adds	r7, #36	@ 0x24
 8002d32:	46bd      	mov	sp, r7
 8002d34:	bc80      	pop	{r7}
 8002d36:	4770      	bx	lr

08002d38 <SysTick_Config>:
 8002d38:	b580      	push	{r7, lr}
 8002d3a:	b082      	sub	sp, #8
 8002d3c:	af00      	add	r7, sp, #0
 8002d3e:	6078      	str	r0, [r7, #4]
 8002d40:	687b      	ldr	r3, [r7, #4]
 8002d42:	3b01      	subs	r3, #1
 8002d44:	f1b3 7f80 	cmp.w	r3, #16777216	@ 0x1000000
 8002d48:	d301      	bcc.n	8002d4e <SysTick_Config+0x16>
 8002d4a:	2301      	movs	r3, #1
 8002d4c:	e00f      	b.n	8002d6e <SysTick_Config+0x36>
 8002d4e:	4a0a      	ldr	r2, [pc, #40]	@ (8002d78 <SysTick_Config+0x40>)
 8002d50:	687b      	ldr	r3, [r7, #4]
 8002d52:	3b01      	subs	r3, #1
 8002d54:	6053      	str	r3, [r2, #4]
 8002d56:	210f      	movs	r1, #15
 8002d58:	f04f 30ff 	mov.w	r0, #4294967295
 8002d5c:	f7ff ff90 	bl	8002c80 <__NVIC_SetPriority>
 8002d60:	4b05      	ldr	r3, [pc, #20]	@ (8002d78 <SysTick_Config+0x40>)
 8002d62:	2200      	movs	r2, #0
 8002d64:	609a      	str	r2, [r3, #8]
 8002d66:	4b04      	ldr	r3, [pc, #16]	@ (8002d78 <SysTick_Config+0x40>)
 8002d68:	2207      	movs	r2, #7
 8002d6a:	601a      	str	r2, [r3, #0]
 8002d6c:	2300      	movs	r3, #0
 8002d6e:	4618      	mov	r0, r3
 8002d70:	3708      	adds	r7, #8
 8002d72:	46bd      	mov	sp, r7
 8002d74:	bd80      	pop	{r7, pc}
 8002d76:	bf00      	nop
 8002d78:	e000e010 	.word	0xe000e010

08002d7c <HAL_NVIC_SetPriorityGrouping>:
 8002d7c:	b580      	push	{r7, lr}
 8002d7e:	b082      	sub	sp, #8
 8002d80:	af00      	add	r7, sp, #0
 8002d82:	6078      	str	r0, [r7, #4]
 8002d84:	6878      	ldr	r0, [r7, #4]
 8002d86:	f7ff ff2d 	bl	8002be4 <__NVIC_SetPriorityGrouping>
 8002d8a:	bf00      	nop
 8002d8c:	3708      	adds	r7, #8
 8002d8e:	46bd      	mov	sp, r7
 8002d90:	bd80      	pop	{r7, pc}

08002d92 <HAL_NVIC_SetPriority>:
 8002d92:	b580      	push	{r7, lr}
 8002d94:	b086      	sub	sp, #24
 8002d96:	af00      	add	r7, sp, #0
 8002d98:	4603      	mov	r3, r0
 8002d9a:	60b9      	str	r1, [r7, #8]
 8002d9c:	607a      	str	r2, [r7, #4]
 8002d9e:	73fb      	strb	r3, [r7, #15]
 8002da0:	2300      	movs	r3, #0
 8002da2:	617b      	str	r3, [r7, #20]
 8002da4:	f7ff ff42 	bl	8002c2c <__NVIC_GetPriorityGrouping>
 8002da8:	6178      	str	r0, [r7, #20]
 8002daa:	687a      	ldr	r2, [r7, #4]
 8002dac:	68b9      	ldr	r1, [r7, #8]
 8002dae:	6978      	ldr	r0, [r7, #20]
 8002db0:	f7ff ff90 	bl	8002cd4 <NVIC_EncodePriority>
 8002db4:	4602      	mov	r2, r0
 8002db6:	f997 300f 	ldrsb.w	r3, [r7, #15]
 8002dba:	4611      	mov	r1, r2
 8002dbc:	4618      	mov	r0, r3
 8002dbe:	f7ff ff5f 	bl	8002c80 <__NVIC_SetPriority>
 8002dc2:	bf00      	nop
 8002dc4:	3718      	adds	r7, #24
 8002dc6:	46bd      	mov	sp, r7
 8002dc8:	bd80      	pop	{r7, pc}

08002dca <HAL_NVIC_EnableIRQ>:
 8002dca:	b580      	push	{r7, lr}
 8002dcc:	b082      	sub	sp, #8
 8002dce:	af00      	add	r7, sp, #0
 8002dd0:	4603      	mov	r3, r0
 8002dd2:	71fb      	strb	r3, [r7, #7]
 8002dd4:	f997 3007 	ldrsb.w	r3, [r7, #7]
 8002dd8:	4618      	mov	r0, r3
 8002dda:	f7ff ff35 	bl	8002c48 <__NVIC_EnableIRQ>
 8002dde:	bf00      	nop
 8002de0:	3708      	adds	r7, #8
 8002de2:	46bd      	mov	sp, r7
 8002de4:	bd80      	pop	{r7, pc}

08002de6 <HAL_SYSTICK_Config>:
 8002de6:	b580      	push	{r7, lr}
 8002de8:	b082      	sub	sp, #8
 8002dea:	af00      	add	r7, sp, #0
 8002dec:	6078      	str	r0, [r7, #4]
 8002dee:	6878      	ldr	r0, [r7, #4]
 8002df0:	f7ff ffa2 	bl	8002d38 <SysTick_Config>
 8002df4:	4603      	mov	r3, r0
 8002df6:	4618      	mov	r0, r3
 8002df8:	3708      	adds	r7, #8
 8002dfa:	46bd      	mov	sp, r7
 8002dfc:	bd80      	pop	{r7, pc}

08002dfe <HAL_DMA_Abort>:
 8002dfe:	b480      	push	{r7}
 8002e00:	b085      	sub	sp, #20
 8002e02:	af00      	add	r7, sp, #0
 8002e04:	6078      	str	r0, [r7, #4]
 8002e06:	2300      	movs	r3, #0
 8002e08:	73fb      	strb	r3, [r7, #15]
 8002e0a:	687b      	ldr	r3, [r7, #4]
 8002e0c:	f893 3021 	ldrb.w	r3, [r3, #33]	@ 0x21
 8002e10:	b2db      	uxtb	r3, r3
 8002e12:	2b02      	cmp	r3, #2
 8002e14:	d008      	beq.n	8002e28 <HAL_DMA_Abort+0x2a>
 8002e16:	687b      	ldr	r3, [r7, #4]
 8002e18:	2204      	movs	r2, #4
 8002e1a:	639a      	str	r2, [r3, #56]	@ 0x38
 8002e1c:	687b      	ldr	r3, [r7, #4]
 8002e1e:	2200      	movs	r2, #0
 8002e20:	f883 2020 	strb.w	r2, [r3, #32]
 8002e24:	2301      	movs	r3, #1
 8002e26:	e020      	b.n	8002e6a <HAL_DMA_Abort+0x6c>
 8002e28:	687b      	ldr	r3, [r7, #4]
 8002e2a:	681b      	ldr	r3, [r3, #0]
 8002e2c:	681a      	ldr	r2, [r3, #0]
 8002e2e:	687b      	ldr	r3, [r7, #4]
 8002e30:	681b      	ldr	r3, [r3, #0]
 8002e32:	f022 020e 	bic.w	r2, r2, #14
 8002e36:	601a      	str	r2, [r3, #0]
 8002e38:	687b      	ldr	r3, [r7, #4]
 8002e3a:	681b      	ldr	r3, [r3, #0]
 8002e3c:	681a      	ldr	r2, [r3, #0]
 8002e3e:	687b      	ldr	r3, [r7, #4]
 8002e40:	681b      	ldr	r3, [r3, #0]
 8002e42:	f022 0201 	bic.w	r2, r2, #1
 8002e46:	601a      	str	r2, [r3, #0]
 8002e48:	687b      	ldr	r3, [r7, #4]
 8002e4a:	6c1a      	ldr	r2, [r3, #64]	@ 0x40
 8002e4c:	687b      	ldr	r3, [r7, #4]
 8002e4e:	6bdb      	ldr	r3, [r3, #60]	@ 0x3c
 8002e50:	2101      	movs	r1, #1
 8002e52:	fa01 f202 	lsl.w	r2, r1, r2
 8002e56:	605a      	str	r2, [r3, #4]
 8002e58:	687b      	ldr	r3, [r7, #4]
 8002e5a:	2201      	movs	r2, #1
 8002e5c:	f883 2021 	strb.w	r2, [r3, #33]	@ 0x21
 8002e60:	687b      	ldr	r3, [r7, #4]
 8002e62:	2200      	movs	r2, #0
 8002e64:	f883 2020 	strb.w	r2, [r3, #32]
 8002e68:	7bfb      	ldrb	r3, [r7, #15]
 8002e6a:	4618      	mov	r0, r3
 8002e6c:	3714      	adds	r7, #20
 8002e6e:	46bd      	mov	sp, r7
 8002e70:	bc80      	pop	{r7}
 8002e72:	4770      	bx	lr

08002e74 <HAL_DMA_Abort_IT>:
 8002e74:	b580      	push	{r7, lr}
 8002e76:	b084      	sub	sp, #16
 8002e78:	af00      	add	r7, sp, #0
 8002e7a:	6078      	str	r0, [r7, #4]
 8002e7c:	2300      	movs	r3, #0
 8002e7e:	73fb      	strb	r3, [r7, #15]
 8002e80:	687b      	ldr	r3, [r7, #4]
 8002e82:	f893 3021 	ldrb.w	r3, [r3, #33]	@ 0x21
 8002e86:	b2db      	uxtb	r3, r3
 8002e88:	2b02      	cmp	r3, #2
 8002e8a:	d005      	beq.n	8002e98 <HAL_DMA_Abort_IT+0x24>
 8002e8c:	687b      	ldr	r3, [r7, #4]
 8002e8e:	2204      	movs	r2, #4
 8002e90:	639a      	str	r2, [r3, #56]	@ 0x38
 8002e92:	2301      	movs	r3, #1
 8002e94:	73fb      	strb	r3, [r7, #15]
 8002e96:	e051      	b.n	8002f3c <HAL_DMA_Abort_IT+0xc8>
 8002e98:	687b      	ldr	r3, [r7, #4]
 8002e9a:	681b      	ldr	r3, [r3, #0]
 8002e9c:	681a      	ldr	r2, [r3, #0]
 8002e9e:	687b      	ldr	r3, [r7, #4]
 8002ea0:	681b      	ldr	r3, [r3, #0]
 8002ea2:	f022 020e 	bic.w	r2, r2, #14
 8002ea6:	601a      	str	r2, [r3, #0]
 8002ea8:	687b      	ldr	r3, [r7, #4]
 8002eaa:	681b      	ldr	r3, [r3, #0]
 8002eac:	681a      	ldr	r2, [r3, #0]
 8002eae:	687b      	ldr	r3, [r7, #4]
 8002eb0:	681b      	ldr	r3, [r3, #0]
 8002eb2:	f022 0201 	bic.w	r2, r2, #1
 8002eb6:	601a      	str	r2, [r3, #0]
 8002eb8:	687b      	ldr	r3, [r7, #4]
 8002eba:	681b      	ldr	r3, [r3, #0]
 8002ebc:	4a22      	ldr	r2, [pc, #136]	@ (8002f48 <HAL_DMA_Abort_IT+0xd4>)
 8002ebe:	4293      	cmp	r3, r2
 8002ec0:	d029      	beq.n	8002f16 <HAL_DMA_Abort_IT+0xa2>
 8002ec2:	687b      	ldr	r3, [r7, #4]
 8002ec4:	681b      	ldr	r3, [r3, #0]
 8002ec6:	4a21      	ldr	r2, [pc, #132]	@ (8002f4c <HAL_DMA_Abort_IT+0xd8>)
 8002ec8:	4293      	cmp	r3, r2
 8002eca:	d022      	beq.n	8002f12 <HAL_DMA_Abort_IT+0x9e>
 8002ecc:	687b      	ldr	r3, [r7, #4]
 8002ece:	681b      	ldr	r3, [r3, #0]
 8002ed0:	4a1f      	ldr	r2, [pc, #124]	@ (8002f50 <HAL_DMA_Abort_IT+0xdc>)
 8002ed2:	4293      	cmp	r3, r2
 8002ed4:	d01a      	beq.n	8002f0c <HAL_DMA_Abort_IT+0x98>
 8002ed6:	687b      	ldr	r3, [r7, #4]
 8002ed8:	681b      	ldr	r3, [r3, #0]
 8002eda:	4a1e      	ldr	r2, [pc, #120]	@ (8002f54 <HAL_DMA_Abort_IT+0xe0>)
 8002edc:	4293      	cmp	r3, r2
 8002ede:	d012      	beq.n	8002f06 <HAL_DMA_Abort_IT+0x92>
 8002ee0:	687b      	ldr	r3, [r7, #4]
 8002ee2:	681b      	ldr	r3, [r3, #0]
 8002ee4:	4a1c      	ldr	r2, [pc, #112]	@ (8002f58 <HAL_DMA_Abort_IT+0xe4>)
 8002ee6:	4293      	cmp	r3, r2
 8002ee8:	d00a      	beq.n	8002f00 <HAL_DMA_Abort_IT+0x8c>
 8002eea:	687b      	ldr	r3, [r7, #4]
 8002eec:	681b      	ldr	r3, [r3, #0]
 8002eee:	4a1b      	ldr	r2, [pc, #108]	@ (8002f5c <HAL_DMA_Abort_IT+0xe8>)
 8002ef0:	4293      	cmp	r3, r2
 8002ef2:	d102      	bne.n	8002efa <HAL_DMA_Abort_IT+0x86>
 8002ef4:	f44f 1380 	mov.w	r3, #1048576	@ 0x100000
 8002ef8:	e00e      	b.n	8002f18 <HAL_DMA_Abort_IT+0xa4>
 8002efa:	f04f 7380 	mov.w	r3, #16777216	@ 0x1000000
 8002efe:	e00b      	b.n	8002f18 <HAL_DMA_Abort_IT+0xa4>
 8002f00:	f44f 3380 	mov.w	r3, #65536	@ 0x10000
 8002f04:	e008      	b.n	8002f18 <HAL_DMA_Abort_IT+0xa4>
 8002f06:	f44f 5380 	mov.w	r3, #4096	@ 0x1000
 8002f0a:	e005      	b.n	8002f18 <HAL_DMA_Abort_IT+0xa4>
 8002f0c:	f44f 7380 	mov.w	r3, #256	@ 0x100
 8002f10:	e002      	b.n	8002f18 <HAL_DMA_Abort_IT+0xa4>
 8002f12:	2310      	movs	r3, #16
 8002f14:	e000      	b.n	8002f18 <HAL_DMA_Abort_IT+0xa4>
 8002f16:	2301      	movs	r3, #1
 8002f18:	4a11      	ldr	r2, [pc, #68]	@ (8002f60 <HAL_DMA_Abort_IT+0xec>)
 8002f1a:	6053      	str	r3, [r2, #4]
 8002f1c:	687b      	ldr	r3, [r7, #4]
 8002f1e:	2201      	movs	r2, #1
 8002f20:	f883 2021 	strb.w	r2, [r3, #33]	@ 0x21
 8002f24:	687b      	ldr	r3, [r7, #4]
 8002f26:	2200      	movs	r2, #0
 8002f28:	f883 2020 	strb.w	r2, [r3, #32]
 8002f2c:	687b      	ldr	r3, [r7, #4]
 8002f2e:	6b5b      	ldr	r3, [r3, #52]	@ 0x34
 8002f30:	2b00      	cmp	r3, #0
 8002f32:	d003      	beq.n	8002f3c <HAL_DMA_Abort_IT+0xc8>
 8002f34:	687b      	ldr	r3, [r7, #4]
 8002f36:	6b5b      	ldr	r3, [r3, #52]	@ 0x34
 8002f38:	6878      	ldr	r0, [r7, #4]
 8002f3a:	4798      	blx	r3
 8002f3c:	7bfb      	ldrb	r3, [r7, #15]
 8002f3e:	4618      	mov	r0, r3
 8002f40:	3710      	adds	r7, #16
 8002f42:	46bd      	mov	sp, r7
 8002f44:	bd80      	pop	{r7, pc}
 8002f46:	bf00      	nop
 8002f48:	40020008 	.word	0x40020008
 8002f4c:	4002001c 	.word	0x4002001c
 8002f50:	40020030 	.word	0x40020030
 8002f54:	40020044 	.word	0x40020044
 8002f58:	40020058 	.word	0x40020058
 8002f5c:	4002006c 	.word	0x4002006c
 8002f60:	40020000 	.word	0x40020000

08002f64 <HAL_GPIO_Init>:
 8002f64:	b480      	push	{r7}
 8002f66:	b08b      	sub	sp, #44	@ 0x2c
 8002f68:	af00      	add	r7, sp, #0
 8002f6a:	6078      	str	r0, [r7, #4]
 8002f6c:	6039      	str	r1, [r7, #0]
 8002f6e:	2300      	movs	r3, #0
 8002f70:	627b      	str	r3, [r7, #36]	@ 0x24
 8002f72:	2300      	movs	r3, #0
 8002f74:	623b      	str	r3, [r7, #32]
 8002f76:	e169      	b.n	800324c <HAL_GPIO_Init+0x2e8>
 8002f78:	2201      	movs	r2, #1
 8002f7a:	6a7b      	ldr	r3, [r7, #36]	@ 0x24
 8002f7c:	fa02 f303 	lsl.w	r3, r2, r3
 8002f80:	61fb      	str	r3, [r7, #28]
 8002f82:	683b      	ldr	r3, [r7, #0]
 8002f84:	681b      	ldr	r3, [r3, #0]
 8002f86:	69fa      	ldr	r2, [r7, #28]
 8002f88:	4013      	ands	r3, r2
 8002f8a:	61bb      	str	r3, [r7, #24]
 8002f8c:	69ba      	ldr	r2, [r7, #24]
 8002f8e:	69fb      	ldr	r3, [r7, #28]
 8002f90:	429a      	cmp	r2, r3
 8002f92:	f040 8158 	bne.w	8003246 <HAL_GPIO_Init+0x2e2>
 8002f96:	683b      	ldr	r3, [r7, #0]
 8002f98:	685b      	ldr	r3, [r3, #4]
 8002f9a:	4a9a      	ldr	r2, [pc, #616]	@ (8003204 <HAL_GPIO_Init+0x2a0>)
 8002f9c:	4293      	cmp	r3, r2
 8002f9e:	d05e      	beq.n	800305e <HAL_GPIO_Init+0xfa>
 8002fa0:	4a98      	ldr	r2, [pc, #608]	@ (8003204 <HAL_GPIO_Init+0x2a0>)
 8002fa2:	4293      	cmp	r3, r2
 8002fa4:	d875      	bhi.n	8003092 <HAL_GPIO_Init+0x12e>
 8002fa6:	4a98      	ldr	r2, [pc, #608]	@ (8003208 <HAL_GPIO_Init+0x2a4>)
 8002fa8:	4293      	cmp	r3, r2
 8002faa:	d058      	beq.n	800305e <HAL_GPIO_Init+0xfa>
 8002fac:	4a96      	ldr	r2, [pc, #600]	@ (8003208 <HAL_GPIO_Init+0x2a4>)
 8002fae:	4293      	cmp	r3, r2
 8002fb0:	d86f      	bhi.n	8003092 <HAL_GPIO_Init+0x12e>
 8002fb2:	4a96      	ldr	r2, [pc, #600]	@ (800320c <HAL_GPIO_Init+0x2a8>)
 8002fb4:	4293      	cmp	r3, r2
 8002fb6:	d052      	beq.n	800305e <HAL_GPIO_Init+0xfa>
 8002fb8:	4a94      	ldr	r2, [pc, #592]	@ (800320c <HAL_GPIO_Init+0x2a8>)
 8002fba:	4293      	cmp	r3, r2
 8002fbc:	d869      	bhi.n	8003092 <HAL_GPIO_Init+0x12e>
 8002fbe:	4a94      	ldr	r2, [pc, #592]	@ (8003210 <HAL_GPIO_Init+0x2ac>)
 8002fc0:	4293      	cmp	r3, r2
 8002fc2:	d04c      	beq.n	800305e <HAL_GPIO_Init+0xfa>
 8002fc4:	4a92      	ldr	r2, [pc, #584]	@ (8003210 <HAL_GPIO_Init+0x2ac>)
 8002fc6:	4293      	cmp	r3, r2
 8002fc8:	d863      	bhi.n	8003092 <HAL_GPIO_Init+0x12e>
 8002fca:	4a92      	ldr	r2, [pc, #584]	@ (8003214 <HAL_GPIO_Init+0x2b0>)
 8002fcc:	4293      	cmp	r3, r2
 8002fce:	d046      	beq.n	800305e <HAL_GPIO_Init+0xfa>
 8002fd0:	4a90      	ldr	r2, [pc, #576]	@ (8003214 <HAL_GPIO_Init+0x2b0>)
 8002fd2:	4293      	cmp	r3, r2
 8002fd4:	d85d      	bhi.n	8003092 <HAL_GPIO_Init+0x12e>
 8002fd6:	2b12      	cmp	r3, #18
 8002fd8:	d82a      	bhi.n	8003030 <HAL_GPIO_Init+0xcc>
 8002fda:	2b12      	cmp	r3, #18
 8002fdc:	d859      	bhi.n	8003092 <HAL_GPIO_Init+0x12e>
 8002fde:	a201      	add	r2, pc, #4	@ (adr r2, 8002fe4 <HAL_GPIO_Init+0x80>)
 8002fe0:	f852 f023 	ldr.w	pc, [r2, r3, lsl #2]
 8002fe4:	0800305f 	.word	0x0800305f
 8002fe8:	08003039 	.word	0x08003039
 8002fec:	0800304b 	.word	0x0800304b
 8002ff0:	0800308d 	.word	0x0800308d
 8002ff4:	08003093 	.word	0x08003093
 8002ff8:	08003093 	.word	0x08003093
 8002ffc:	08003093 	.word	0x08003093
 8003000:	08003093 	.word	0x08003093
 8003004:	08003093 	.word	0x08003093
 8003008:	08003093 	.word	0x08003093
 800300c:	08003093 	.word	0x08003093
 8003010:	08003093 	.word	0x08003093
 8003014:	08003093 	.word	0x08003093
 8003018:	08003093 	.word	0x08003093
 800301c:	08003093 	.word	0x08003093
 8003020:	08003093 	.word	0x08003093
 8003024:	08003093 	.word	0x08003093
 8003028:	08003041 	.word	0x08003041
 800302c:	08003055 	.word	0x08003055
 8003030:	4a79      	ldr	r2, [pc, #484]	@ (8003218 <HAL_GPIO_Init+0x2b4>)
 8003032:	4293      	cmp	r3, r2
 8003034:	d013      	beq.n	800305e <HAL_GPIO_Init+0xfa>
 8003036:	e02c      	b.n	8003092 <HAL_GPIO_Init+0x12e>
 8003038:	683b      	ldr	r3, [r7, #0]
 800303a:	68db      	ldr	r3, [r3, #12]
 800303c:	623b      	str	r3, [r7, #32]
 800303e:	e029      	b.n	8003094 <HAL_GPIO_Init+0x130>
 8003040:	683b      	ldr	r3, [r7, #0]
 8003042:	68db      	ldr	r3, [r3, #12]
 8003044:	3304      	adds	r3, #4
 8003046:	623b      	str	r3, [r7, #32]
 8003048:	e024      	b.n	8003094 <HAL_GPIO_Init+0x130>
 800304a:	683b      	ldr	r3, [r7, #0]
 800304c:	68db      	ldr	r3, [r3, #12]
 800304e:	3308      	adds	r3, #8
 8003050:	623b      	str	r3, [r7, #32]
 8003052:	e01f      	b.n	8003094 <HAL_GPIO_Init+0x130>
 8003054:	683b      	ldr	r3, [r7, #0]
 8003056:	68db      	ldr	r3, [r3, #12]
 8003058:	330c      	adds	r3, #12
 800305a:	623b      	str	r3, [r7, #32]
 800305c:	e01a      	b.n	8003094 <HAL_GPIO_Init+0x130>
 800305e:	683b      	ldr	r3, [r7, #0]
 8003060:	689b      	ldr	r3, [r3, #8]
 8003062:	2b00      	cmp	r3, #0
 8003064:	d102      	bne.n	800306c <HAL_GPIO_Init+0x108>
 8003066:	2304      	movs	r3, #4
 8003068:	623b      	str	r3, [r7, #32]
 800306a:	e013      	b.n	8003094 <HAL_GPIO_Init+0x130>
 800306c:	683b      	ldr	r3, [r7, #0]
 800306e:	689b      	ldr	r3, [r3, #8]
 8003070:	2b01      	cmp	r3, #1
 8003072:	d105      	bne.n	8003080 <HAL_GPIO_Init+0x11c>
 8003074:	2308      	movs	r3, #8
 8003076:	623b      	str	r3, [r7, #32]
 8003078:	687b      	ldr	r3, [r7, #4]
 800307a:	69fa      	ldr	r2, [r7, #28]
 800307c:	611a      	str	r2, [r3, #16]
 800307e:	e009      	b.n	8003094 <HAL_GPIO_Init+0x130>
 8003080:	2308      	movs	r3, #8
 8003082:	623b      	str	r3, [r7, #32]
 8003084:	687b      	ldr	r3, [r7, #4]
 8003086:	69fa      	ldr	r2, [r7, #28]
 8003088:	615a      	str	r2, [r3, #20]
 800308a:	e003      	b.n	8003094 <HAL_GPIO_Init+0x130>
 800308c:	2300      	movs	r3, #0
 800308e:	623b      	str	r3, [r7, #32]
 8003090:	e000      	b.n	8003094 <HAL_GPIO_Init+0x130>
 8003092:	bf00      	nop
 8003094:	69bb      	ldr	r3, [r7, #24]
 8003096:	2bff      	cmp	r3, #255	@ 0xff
 8003098:	d801      	bhi.n	800309e <HAL_GPIO_Init+0x13a>
 800309a:	687b      	ldr	r3, [r7, #4]
 800309c:	e001      	b.n	80030a2 <HAL_GPIO_Init+0x13e>
 800309e:	687b      	ldr	r3, [r7, #4]
 80030a0:	3304      	adds	r3, #4
 80030a2:	617b      	str	r3, [r7, #20]
 80030a4:	69bb      	ldr	r3, [r7, #24]
 80030a6:	2bff      	cmp	r3, #255	@ 0xff
 80030a8:	d802      	bhi.n	80030b0 <HAL_GPIO_Init+0x14c>
 80030aa:	6a7b      	ldr	r3, [r7, #36]	@ 0x24
 80030ac:	009b      	lsls	r3, r3, #2
 80030ae:	e002      	b.n	80030b6 <HAL_GPIO_Init+0x152>
 80030b0:	6a7b      	ldr	r3, [r7, #36]	@ 0x24
 80030b2:	3b08      	subs	r3, #8
 80030b4:	009b      	lsls	r3, r3, #2
 80030b6:	613b      	str	r3, [r7, #16]
 80030b8:	697b      	ldr	r3, [r7, #20]
 80030ba:	681a      	ldr	r2, [r3, #0]
 80030bc:	210f      	movs	r1, #15
 80030be:	693b      	ldr	r3, [r7, #16]
 80030c0:	fa01 f303 	lsl.w	r3, r1, r3
 80030c4:	43db      	mvns	r3, r3
 80030c6:	401a      	ands	r2, r3
 80030c8:	6a39      	ldr	r1, [r7, #32]
 80030ca:	693b      	ldr	r3, [r7, #16]
 80030cc:	fa01 f303 	lsl.w	r3, r1, r3
 80030d0:	431a      	orrs	r2, r3
 80030d2:	697b      	ldr	r3, [r7, #20]
 80030d4:	601a      	str	r2, [r3, #0]
 80030d6:	683b      	ldr	r3, [r7, #0]
 80030d8:	685b      	ldr	r3, [r3, #4]
 80030da:	f003 5380 	and.w	r3, r3, #268435456	@ 0x10000000
 80030de:	2b00      	cmp	r3, #0
 80030e0:	f000 80b1 	beq.w	8003246 <HAL_GPIO_Init+0x2e2>
 80030e4:	4b4d      	ldr	r3, [pc, #308]	@ (800321c <HAL_GPIO_Init+0x2b8>)
 80030e6:	699b      	ldr	r3, [r3, #24]
 80030e8:	4a4c      	ldr	r2, [pc, #304]	@ (800321c <HAL_GPIO_Init+0x2b8>)
 80030ea:	f043 0301 	orr.w	r3, r3, #1
 80030ee:	6193      	str	r3, [r2, #24]
 80030f0:	4b4a      	ldr	r3, [pc, #296]	@ (800321c <HAL_GPIO_Init+0x2b8>)
 80030f2:	699b      	ldr	r3, [r3, #24]
 80030f4:	f003 0301 	and.w	r3, r3, #1
 80030f8:	60bb      	str	r3, [r7, #8]
 80030fa:	68bb      	ldr	r3, [r7, #8]
 80030fc:	4a48      	ldr	r2, [pc, #288]	@ (8003220 <HAL_GPIO_Init+0x2bc>)
 80030fe:	6a7b      	ldr	r3, [r7, #36]	@ 0x24
 8003100:	089b      	lsrs	r3, r3, #2
 8003102:	3302      	adds	r3, #2
 8003104:	f852 3023 	ldr.w	r3, [r2, r3, lsl #2]
 8003108:	60fb      	str	r3, [r7, #12]
 800310a:	6a7b      	ldr	r3, [r7, #36]	@ 0x24
 800310c:	f003 0303 	and.w	r3, r3, #3
 8003110:	009b      	lsls	r3, r3, #2
 8003112:	220f      	movs	r2, #15
 8003114:	fa02 f303 	lsl.w	r3, r2, r3
 8003118:	43db      	mvns	r3, r3
 800311a:	68fa      	ldr	r2, [r7, #12]
 800311c:	4013      	ands	r3, r2
 800311e:	60fb      	str	r3, [r7, #12]
 8003120:	687b      	ldr	r3, [r7, #4]
 8003122:	4a40      	ldr	r2, [pc, #256]	@ (8003224 <HAL_GPIO_Init+0x2c0>)
 8003124:	4293      	cmp	r3, r2
 8003126:	d013      	beq.n	8003150 <HAL_GPIO_Init+0x1ec>
 8003128:	687b      	ldr	r3, [r7, #4]
 800312a:	4a3f      	ldr	r2, [pc, #252]	@ (8003228 <HAL_GPIO_Init+0x2c4>)
 800312c:	4293      	cmp	r3, r2
 800312e:	d00d      	beq.n	800314c <HAL_GPIO_Init+0x1e8>
 8003130:	687b      	ldr	r3, [r7, #4]
 8003132:	4a3e      	ldr	r2, [pc, #248]	@ (800322c <HAL_GPIO_Init+0x2c8>)
 8003134:	4293      	cmp	r3, r2
 8003136:	d007      	beq.n	8003148 <HAL_GPIO_Init+0x1e4>
 8003138:	687b      	ldr	r3, [r7, #4]
 800313a:	4a3d      	ldr	r2, [pc, #244]	@ (8003230 <HAL_GPIO_Init+0x2cc>)
 800313c:	4293      	cmp	r3, r2
 800313e:	d101      	bne.n	8003144 <HAL_GPIO_Init+0x1e0>
 8003140:	2303      	movs	r3, #3
 8003142:	e006      	b.n	8003152 <HAL_GPIO_Init+0x1ee>
 8003144:	2304      	movs	r3, #4
 8003146:	e004      	b.n	8003152 <HAL_GPIO_Init+0x1ee>
 8003148:	2302      	movs	r3, #2
 800314a:	e002      	b.n	8003152 <HAL_GPIO_Init+0x1ee>
 800314c:	2301      	movs	r3, #1
 800314e:	e000      	b.n	8003152 <HAL_GPIO_Init+0x1ee>
 8003150:	2300      	movs	r3, #0
 8003152:	6a7a      	ldr	r2, [r7, #36]	@ 0x24
 8003154:	f002 0203 	and.w	r2, r2, #3
 8003158:	0092      	lsls	r2, r2, #2
 800315a:	4093      	lsls	r3, r2
 800315c:	68fa      	ldr	r2, [r7, #12]
 800315e:	4313      	orrs	r3, r2
 8003160:	60fb      	str	r3, [r7, #12]
 8003162:	492f      	ldr	r1, [pc, #188]	@ (8003220 <HAL_GPIO_Init+0x2bc>)
 8003164:	6a7b      	ldr	r3, [r7, #36]	@ 0x24
 8003166:	089b      	lsrs	r3, r3, #2
 8003168:	3302      	adds	r3, #2
 800316a:	68fa      	ldr	r2, [r7, #12]
 800316c:	f841 2023 	str.w	r2, [r1, r3, lsl #2]
 8003170:	683b      	ldr	r3, [r7, #0]
 8003172:	685b      	ldr	r3, [r3, #4]
 8003174:	f403 1380 	and.w	r3, r3, #1048576	@ 0x100000
 8003178:	2b00      	cmp	r3, #0
 800317a:	d006      	beq.n	800318a <HAL_GPIO_Init+0x226>
 800317c:	4b2d      	ldr	r3, [pc, #180]	@ (8003234 <HAL_GPIO_Init+0x2d0>)
 800317e:	689a      	ldr	r2, [r3, #8]
 8003180:	492c      	ldr	r1, [pc, #176]	@ (8003234 <HAL_GPIO_Init+0x2d0>)
 8003182:	69bb      	ldr	r3, [r7, #24]
 8003184:	4313      	orrs	r3, r2
 8003186:	608b      	str	r3, [r1, #8]
 8003188:	e006      	b.n	8003198 <HAL_GPIO_Init+0x234>
 800318a:	4b2a      	ldr	r3, [pc, #168]	@ (8003234 <HAL_GPIO_Init+0x2d0>)
 800318c:	689a      	ldr	r2, [r3, #8]
 800318e:	69bb      	ldr	r3, [r7, #24]
 8003190:	43db      	mvns	r3, r3
 8003192:	4928      	ldr	r1, [pc, #160]	@ (8003234 <HAL_GPIO_Init+0x2d0>)
 8003194:	4013      	ands	r3, r2
 8003196:	608b      	str	r3, [r1, #8]
 8003198:	683b      	ldr	r3, [r7, #0]
 800319a:	685b      	ldr	r3, [r3, #4]
 800319c:	f403 1300 	and.w	r3, r3, #2097152	@ 0x200000
 80031a0:	2b00      	cmp	r3, #0
 80031a2:	d006      	beq.n	80031b2 <HAL_GPIO_Init+0x24e>
 80031a4:	4b23      	ldr	r3, [pc, #140]	@ (8003234 <HAL_GPIO_Init+0x2d0>)
 80031a6:	68da      	ldr	r2, [r3, #12]
 80031a8:	4922      	ldr	r1, [pc, #136]	@ (8003234 <HAL_GPIO_Init+0x2d0>)
 80031aa:	69bb      	ldr	r3, [r7, #24]
 80031ac:	4313      	orrs	r3, r2
 80031ae:	60cb      	str	r3, [r1, #12]
 80031b0:	e006      	b.n	80031c0 <HAL_GPIO_Init+0x25c>
 80031b2:	4b20      	ldr	r3, [pc, #128]	@ (8003234 <HAL_GPIO_Init+0x2d0>)
 80031b4:	68da      	ldr	r2, [r3, #12]
 80031b6:	69bb      	ldr	r3, [r7, #24]
 80031b8:	43db      	mvns	r3, r3
 80031ba:	491e      	ldr	r1, [pc, #120]	@ (8003234 <HAL_GPIO_Init+0x2d0>)
 80031bc:	4013      	ands	r3, r2
 80031be:	60cb      	str	r3, [r1, #12]
 80031c0:	683b      	ldr	r3, [r7, #0]
 80031c2:	685b      	ldr	r3, [r3, #4]
 80031c4:	f403 3300 	and.w	r3, r3, #131072	@ 0x20000
 80031c8:	2b00      	cmp	r3, #0
 80031ca:	d006      	beq.n	80031da <HAL_GPIO_Init+0x276>
 80031cc:	4b19      	ldr	r3, [pc, #100]	@ (8003234 <HAL_GPIO_Init+0x2d0>)
 80031ce:	685a      	ldr	r2, [r3, #4]
 80031d0:	4918      	ldr	r1, [pc, #96]	@ (8003234 <HAL_GPIO_Init+0x2d0>)
 80031d2:	69bb      	ldr	r3, [r7, #24]
 80031d4:	4313      	orrs	r3, r2
 80031d6:	604b      	str	r3, [r1, #4]
 80031d8:	e006      	b.n	80031e8 <HAL_GPIO_Init+0x284>
 80031da:	4b16      	ldr	r3, [pc, #88]	@ (8003234 <HAL_GPIO_Init+0x2d0>)
 80031dc:	685a      	ldr	r2, [r3, #4]
 80031de:	69bb      	ldr	r3, [r7, #24]
 80031e0:	43db      	mvns	r3, r3
 80031e2:	4914      	ldr	r1, [pc, #80]	@ (8003234 <HAL_GPIO_Init+0x2d0>)
 80031e4:	4013      	ands	r3, r2
 80031e6:	604b      	str	r3, [r1, #4]
 80031e8:	683b      	ldr	r3, [r7, #0]
 80031ea:	685b      	ldr	r3, [r3, #4]
 80031ec:	f403 3380 	and.w	r3, r3, #65536	@ 0x10000
 80031f0:	2b00      	cmp	r3, #0
 80031f2:	d021      	beq.n	8003238 <HAL_GPIO_Init+0x2d4>
 80031f4:	4b0f      	ldr	r3, [pc, #60]	@ (8003234 <HAL_GPIO_Init+0x2d0>)
 80031f6:	681a      	ldr	r2, [r3, #0]
 80031f8:	490e      	ldr	r1, [pc, #56]	@ (8003234 <HAL_GPIO_Init+0x2d0>)
 80031fa:	69bb      	ldr	r3, [r7, #24]
 80031fc:	4313      	orrs	r3, r2
 80031fe:	600b      	str	r3, [r1, #0]
 8003200:	e021      	b.n	8003246 <HAL_GPIO_Init+0x2e2>
 8003202:	bf00      	nop
 8003204:	10320000 	.word	0x10320000
 8003208:	10310000 	.word	0x10310000
 800320c:	10220000 	.word	0x10220000
 8003210:	10210000 	.word	0x10210000
 8003214:	10120000 	.word	0x10120000
 8003218:	10110000 	.word	0x10110000
 800321c:	40021000 	.word	0x40021000
 8003220:	40010000 	.word	0x40010000
 8003224:	40010800 	.word	0x40010800
 8003228:	40010c00 	.word	0x40010c00
 800322c:	40011000 	.word	0x40011000
 8003230:	40011400 	.word	0x40011400
 8003234:	40010400 	.word	0x40010400
 8003238:	4b0b      	ldr	r3, [pc, #44]	@ (8003268 <HAL_GPIO_Init+0x304>)
 800323a:	681a      	ldr	r2, [r3, #0]
 800323c:	69bb      	ldr	r3, [r7, #24]
 800323e:	43db      	mvns	r3, r3
 8003240:	4909      	ldr	r1, [pc, #36]	@ (8003268 <HAL_GPIO_Init+0x304>)
 8003242:	4013      	ands	r3, r2
 8003244:	600b      	str	r3, [r1, #0]
 8003246:	6a7b      	ldr	r3, [r7, #36]	@ 0x24
 8003248:	3301      	adds	r3, #1
 800324a:	627b      	str	r3, [r7, #36]	@ 0x24
 800324c:	683b      	ldr	r3, [r7, #0]
 800324e:	681a      	ldr	r2, [r3, #0]
 8003250:	6a7b      	ldr	r3, [r7, #36]	@ 0x24
 8003252:	fa22 f303 	lsr.w	r3, r2, r3
 8003256:	2b00      	cmp	r3, #0
 8003258:	f47f ae8e 	bne.w	8002f78 <HAL_GPIO_Init+0x14>
 800325c:	bf00      	nop
 800325e:	bf00      	nop
 8003260:	372c      	adds	r7, #44	@ 0x2c
 8003262:	46bd      	mov	sp, r7
 8003264:	bc80      	pop	{r7}
 8003266:	4770      	bx	lr
 8003268:	40010400 	.word	0x40010400

0800326c <HAL_GPIO_ReadPin>:
 800326c:	b480      	push	{r7}
 800326e:	b085      	sub	sp, #20
 8003270:	af00      	add	r7, sp, #0
 8003272:	6078      	str	r0, [r7, #4]
 8003274:	460b      	mov	r3, r1
 8003276:	807b      	strh	r3, [r7, #2]
 8003278:	687b      	ldr	r3, [r7, #4]
 800327a:	689a      	ldr	r2, [r3, #8]
 800327c:	887b      	ldrh	r3, [r7, #2]
 800327e:	4013      	ands	r3, r2
 8003280:	2b00      	cmp	r3, #0
 8003282:	d002      	beq.n	800328a <HAL_GPIO_ReadPin+0x1e>
 8003284:	2301      	movs	r3, #1
 8003286:	73fb      	strb	r3, [r7, #15]
 8003288:	e001      	b.n	800328e <HAL_GPIO_ReadPin+0x22>
 800328a:	2300      	movs	r3, #0
 800328c:	73fb      	strb	r3, [r7, #15]
 800328e:	7bfb      	ldrb	r3, [r7, #15]
 8003290:	4618      	mov	r0, r3
 8003292:	3714      	adds	r7, #20
 8003294:	46bd      	mov	sp, r7
 8003296:	bc80      	pop	{r7}
 8003298:	4770      	bx	lr

0800329a <HAL_GPIO_WritePin>:
 800329a:	b480      	push	{r7}
 800329c:	b083      	sub	sp, #12
 800329e:	af00      	add	r7, sp, #0
 80032a0:	6078      	str	r0, [r7, #4]
 80032a2:	460b      	mov	r3, r1
 80032a4:	807b      	strh	r3, [r7, #2]
 80032a6:	4613      	mov	r3, r2
 80032a8:	707b      	strb	r3, [r7, #1]
 80032aa:	787b      	ldrb	r3, [r7, #1]
 80032ac:	2b00      	cmp	r3, #0
 80032ae:	d003      	beq.n	80032b8 <HAL_GPIO_WritePin+0x1e>
 80032b0:	887a      	ldrh	r2, [r7, #2]
 80032b2:	687b      	ldr	r3, [r7, #4]
 80032b4:	611a      	str	r2, [r3, #16]
 80032b6:	e003      	b.n	80032c0 <HAL_GPIO_WritePin+0x26>
 80032b8:	887b      	ldrh	r3, [r7, #2]
 80032ba:	041a      	lsls	r2, r3, #16
 80032bc:	687b      	ldr	r3, [r7, #4]
 80032be:	611a      	str	r2, [r3, #16]
 80032c0:	bf00      	nop
 80032c2:	370c      	adds	r7, #12
 80032c4:	46bd      	mov	sp, r7
 80032c6:	bc80      	pop	{r7}
 80032c8:	4770      	bx	lr
	...

080032cc <HAL_I2C_Init>:
 80032cc:	b580      	push	{r7, lr}
 80032ce:	b084      	sub	sp, #16
 80032d0:	af00      	add	r7, sp, #0
 80032d2:	6078      	str	r0, [r7, #4]
 80032d4:	687b      	ldr	r3, [r7, #4]
 80032d6:	2b00      	cmp	r3, #0
 80032d8:	d101      	bne.n	80032de <HAL_I2C_Init+0x12>
 80032da:	2301      	movs	r3, #1
 80032dc:	e12b      	b.n	8003536 <HAL_I2C_Init+0x26a>
 80032de:	687b      	ldr	r3, [r7, #4]
 80032e0:	f893 303d 	ldrb.w	r3, [r3, #61]	@ 0x3d
 80032e4:	b2db      	uxtb	r3, r3
 80032e6:	2b00      	cmp	r3, #0
 80032e8:	d106      	bne.n	80032f8 <HAL_I2C_Init+0x2c>
 80032ea:	687b      	ldr	r3, [r7, #4]
 80032ec:	2200      	movs	r2, #0
 80032ee:	f883 203c 	strb.w	r2, [r3, #60]	@ 0x3c
 80032f2:	6878      	ldr	r0, [r7, #4]
 80032f4:	f7fe fc50 	bl	8001b98 <HAL_I2C_MspInit>
 80032f8:	687b      	ldr	r3, [r7, #4]
 80032fa:	2224      	movs	r2, #36	@ 0x24
 80032fc:	f883 203d 	strb.w	r2, [r3, #61]	@ 0x3d
 8003300:	687b      	ldr	r3, [r7, #4]
 8003302:	681b      	ldr	r3, [r3, #0]
 8003304:	681a      	ldr	r2, [r3, #0]
 8003306:	687b      	ldr	r3, [r7, #4]
 8003308:	681b      	ldr	r3, [r3, #0]
 800330a:	f022 0201 	bic.w	r2, r2, #1
 800330e:	601a      	str	r2, [r3, #0]
 8003310:	687b      	ldr	r3, [r7, #4]
 8003312:	681b      	ldr	r3, [r3, #0]
 8003314:	681a      	ldr	r2, [r3, #0]
 8003316:	687b      	ldr	r3, [r7, #4]
 8003318:	681b      	ldr	r3, [r3, #0]
 800331a:	f442 4200 	orr.w	r2, r2, #32768	@ 0x8000
 800331e:	601a      	str	r2, [r3, #0]
 8003320:	687b      	ldr	r3, [r7, #4]
 8003322:	681b      	ldr	r3, [r3, #0]
 8003324:	681a      	ldr	r2, [r3, #0]
 8003326:	687b      	ldr	r3, [r7, #4]
 8003328:	681b      	ldr	r3, [r3, #0]
 800332a:	f422 4200 	bic.w	r2, r2, #32768	@ 0x8000
 800332e:	601a      	str	r2, [r3, #0]
 8003330:	f001 fcf8 	bl	8004d24 <HAL_RCC_GetPCLK1Freq>
 8003334:	60f8      	str	r0, [r7, #12]
 8003336:	687b      	ldr	r3, [r7, #4]
 8003338:	685b      	ldr	r3, [r3, #4]
 800333a:	4a81      	ldr	r2, [pc, #516]	@ (8003540 <HAL_I2C_Init+0x274>)
 800333c:	4293      	cmp	r3, r2
 800333e:	d807      	bhi.n	8003350 <HAL_I2C_Init+0x84>
 8003340:	68fb      	ldr	r3, [r7, #12]
 8003342:	4a80      	ldr	r2, [pc, #512]	@ (8003544 <HAL_I2C_Init+0x278>)
 8003344:	4293      	cmp	r3, r2
 8003346:	bf94      	ite	ls
 8003348:	2301      	movls	r3, #1
 800334a:	2300      	movhi	r3, #0
 800334c:	b2db      	uxtb	r3, r3
 800334e:	e006      	b.n	800335e <HAL_I2C_Init+0x92>
 8003350:	68fb      	ldr	r3, [r7, #12]
 8003352:	4a7d      	ldr	r2, [pc, #500]	@ (8003548 <HAL_I2C_Init+0x27c>)
 8003354:	4293      	cmp	r3, r2
 8003356:	bf94      	ite	ls
 8003358:	2301      	movls	r3, #1
 800335a:	2300      	movhi	r3, #0
 800335c:	b2db      	uxtb	r3, r3
 800335e:	2b00      	cmp	r3, #0
 8003360:	d001      	beq.n	8003366 <HAL_I2C_Init+0x9a>
 8003362:	2301      	movs	r3, #1
 8003364:	e0e7      	b.n	8003536 <HAL_I2C_Init+0x26a>
 8003366:	68fb      	ldr	r3, [r7, #12]
 8003368:	4a78      	ldr	r2, [pc, #480]	@ (800354c <HAL_I2C_Init+0x280>)
 800336a:	fba2 2303 	umull	r2, r3, r2, r3
 800336e:	0c9b      	lsrs	r3, r3, #18
 8003370:	60bb      	str	r3, [r7, #8]
 8003372:	687b      	ldr	r3, [r7, #4]
 8003374:	681b      	ldr	r3, [r3, #0]
 8003376:	685b      	ldr	r3, [r3, #4]
 8003378:	f023 013f 	bic.w	r1, r3, #63	@ 0x3f
 800337c:	687b      	ldr	r3, [r7, #4]
 800337e:	681b      	ldr	r3, [r3, #0]
 8003380:	68ba      	ldr	r2, [r7, #8]
 8003382:	430a      	orrs	r2, r1
 8003384:	605a      	str	r2, [r3, #4]
 8003386:	687b      	ldr	r3, [r7, #4]
 8003388:	681b      	ldr	r3, [r3, #0]
 800338a:	6a1b      	ldr	r3, [r3, #32]
 800338c:	f023 013f 	bic.w	r1, r3, #63	@ 0x3f
 8003390:	687b      	ldr	r3, [r7, #4]
 8003392:	685b      	ldr	r3, [r3, #4]
 8003394:	4a6a      	ldr	r2, [pc, #424]	@ (8003540 <HAL_I2C_Init+0x274>)
 8003396:	4293      	cmp	r3, r2
 8003398:	d802      	bhi.n	80033a0 <HAL_I2C_Init+0xd4>
 800339a:	68bb      	ldr	r3, [r7, #8]
 800339c:	3301      	adds	r3, #1
 800339e:	e009      	b.n	80033b4 <HAL_I2C_Init+0xe8>
 80033a0:	68bb      	ldr	r3, [r7, #8]
 80033a2:	f44f 7296 	mov.w	r2, #300	@ 0x12c
 80033a6:	fb02 f303 	mul.w	r3, r2, r3
 80033aa:	4a69      	ldr	r2, [pc, #420]	@ (8003550 <HAL_I2C_Init+0x284>)
 80033ac:	fba2 2303 	umull	r2, r3, r2, r3
 80033b0:	099b      	lsrs	r3, r3, #6
 80033b2:	3301      	adds	r3, #1
 80033b4:	687a      	ldr	r2, [r7, #4]
 80033b6:	6812      	ldr	r2, [r2, #0]
 80033b8:	430b      	orrs	r3, r1
 80033ba:	6213      	str	r3, [r2, #32]
 80033bc:	687b      	ldr	r3, [r7, #4]
 80033be:	681b      	ldr	r3, [r3, #0]
 80033c0:	69db      	ldr	r3, [r3, #28]
 80033c2:	f423 424f 	bic.w	r2, r3, #52992	@ 0xcf00
 80033c6:	f022 02ff 	bic.w	r2, r2, #255	@ 0xff
 80033ca:	687b      	ldr	r3, [r7, #4]
 80033cc:	685b      	ldr	r3, [r3, #4]
 80033ce:	495c      	ldr	r1, [pc, #368]	@ (8003540 <HAL_I2C_Init+0x274>)
 80033d0:	428b      	cmp	r3, r1
 80033d2:	d819      	bhi.n	8003408 <HAL_I2C_Init+0x13c>
 80033d4:	68fb      	ldr	r3, [r7, #12]
 80033d6:	1e59      	subs	r1, r3, #1
 80033d8:	687b      	ldr	r3, [r7, #4]
 80033da:	685b      	ldr	r3, [r3, #4]
 80033dc:	005b      	lsls	r3, r3, #1
 80033de:	fbb1 f3f3 	udiv	r3, r1, r3
 80033e2:	1c59      	adds	r1, r3, #1
 80033e4:	f640 73fc 	movw	r3, #4092	@ 0xffc
 80033e8:	400b      	ands	r3, r1
 80033ea:	2b00      	cmp	r3, #0
 80033ec:	d00a      	beq.n	8003404 <HAL_I2C_Init+0x138>
 80033ee:	68fb      	ldr	r3, [r7, #12]
 80033f0:	1e59      	subs	r1, r3, #1
 80033f2:	687b      	ldr	r3, [r7, #4]
 80033f4:	685b      	ldr	r3, [r3, #4]
 80033f6:	005b      	lsls	r3, r3, #1
 80033f8:	fbb1 f3f3 	udiv	r3, r1, r3
 80033fc:	3301      	adds	r3, #1
 80033fe:	f3c3 030b 	ubfx	r3, r3, #0, #12
 8003402:	e051      	b.n	80034a8 <HAL_I2C_Init+0x1dc>
 8003404:	2304      	movs	r3, #4
 8003406:	e04f      	b.n	80034a8 <HAL_I2C_Init+0x1dc>
 8003408:	687b      	ldr	r3, [r7, #4]
 800340a:	689b      	ldr	r3, [r3, #8]
 800340c:	2b00      	cmp	r3, #0
 800340e:	d111      	bne.n	8003434 <HAL_I2C_Init+0x168>
 8003410:	68fb      	ldr	r3, [r7, #12]
 8003412:	1e58      	subs	r0, r3, #1
 8003414:	687b      	ldr	r3, [r7, #4]
 8003416:	6859      	ldr	r1, [r3, #4]
 8003418:	460b      	mov	r3, r1
 800341a:	005b      	lsls	r3, r3, #1
 800341c:	440b      	add	r3, r1
 800341e:	fbb0 f3f3 	udiv	r3, r0, r3
 8003422:	3301      	adds	r3, #1
 8003424:	f3c3 030b 	ubfx	r3, r3, #0, #12
 8003428:	2b00      	cmp	r3, #0
 800342a:	bf0c      	ite	eq
 800342c:	2301      	moveq	r3, #1
 800342e:	2300      	movne	r3, #0
 8003430:	b2db      	uxtb	r3, r3
 8003432:	e012      	b.n	800345a <HAL_I2C_Init+0x18e>
 8003434:	68fb      	ldr	r3, [r7, #12]
 8003436:	1e58      	subs	r0, r3, #1
 8003438:	687b      	ldr	r3, [r7, #4]
 800343a:	6859      	ldr	r1, [r3, #4]
 800343c:	460b      	mov	r3, r1
 800343e:	009b      	lsls	r3, r3, #2
 8003440:	440b      	add	r3, r1
 8003442:	0099      	lsls	r1, r3, #2
 8003444:	440b      	add	r3, r1
 8003446:	fbb0 f3f3 	udiv	r3, r0, r3
 800344a:	3301      	adds	r3, #1
 800344c:	f3c3 030b 	ubfx	r3, r3, #0, #12
 8003450:	2b00      	cmp	r3, #0
 8003452:	bf0c      	ite	eq
 8003454:	2301      	moveq	r3, #1
 8003456:	2300      	movne	r3, #0
 8003458:	b2db      	uxtb	r3, r3
 800345a:	2b00      	cmp	r3, #0
 800345c:	d001      	beq.n	8003462 <HAL_I2C_Init+0x196>
 800345e:	2301      	movs	r3, #1
 8003460:	e022      	b.n	80034a8 <HAL_I2C_Init+0x1dc>
 8003462:	687b      	ldr	r3, [r7, #4]
 8003464:	689b      	ldr	r3, [r3, #8]
 8003466:	2b00      	cmp	r3, #0
 8003468:	d10e      	bne.n	8003488 <HAL_I2C_Init+0x1bc>
 800346a:	68fb      	ldr	r3, [r7, #12]
 800346c:	1e58      	subs	r0, r3, #1
 800346e:	687b      	ldr	r3, [r7, #4]
 8003470:	6859      	ldr	r1, [r3, #4]
 8003472:	460b      	mov	r3, r1
 8003474:	005b      	lsls	r3, r3, #1
 8003476:	440b      	add	r3, r1
 8003478:	fbb0 f3f3 	udiv	r3, r0, r3
 800347c:	3301      	adds	r3, #1
 800347e:	f3c3 030b 	ubfx	r3, r3, #0, #12
 8003482:	f443 4300 	orr.w	r3, r3, #32768	@ 0x8000
 8003486:	e00f      	b.n	80034a8 <HAL_I2C_Init+0x1dc>
 8003488:	68fb      	ldr	r3, [r7, #12]
 800348a:	1e58      	subs	r0, r3, #1
 800348c:	687b      	ldr	r3, [r7, #4]
 800348e:	6859      	ldr	r1, [r3, #4]
 8003490:	460b      	mov	r3, r1
 8003492:	009b      	lsls	r3, r3, #2
 8003494:	440b      	add	r3, r1
 8003496:	0099      	lsls	r1, r3, #2
 8003498:	440b      	add	r3, r1
 800349a:	fbb0 f3f3 	udiv	r3, r0, r3
 800349e:	3301      	adds	r3, #1
 80034a0:	f3c3 030b 	ubfx	r3, r3, #0, #12
 80034a4:	f443 4340 	orr.w	r3, r3, #49152	@ 0xc000
 80034a8:	6879      	ldr	r1, [r7, #4]
 80034aa:	6809      	ldr	r1, [r1, #0]
 80034ac:	4313      	orrs	r3, r2
 80034ae:	61cb      	str	r3, [r1, #28]
 80034b0:	687b      	ldr	r3, [r7, #4]
 80034b2:	681b      	ldr	r3, [r3, #0]
 80034b4:	681b      	ldr	r3, [r3, #0]
 80034b6:	f023 01c0 	bic.w	r1, r3, #192	@ 0xc0
 80034ba:	687b      	ldr	r3, [r7, #4]
 80034bc:	69da      	ldr	r2, [r3, #28]
 80034be:	687b      	ldr	r3, [r7, #4]
 80034c0:	6a1b      	ldr	r3, [r3, #32]
 80034c2:	431a      	orrs	r2, r3
 80034c4:	687b      	ldr	r3, [r7, #4]
 80034c6:	681b      	ldr	r3, [r3, #0]
 80034c8:	430a      	orrs	r2, r1
 80034ca:	601a      	str	r2, [r3, #0]
 80034cc:	687b      	ldr	r3, [r7, #4]
 80034ce:	681b      	ldr	r3, [r3, #0]
 80034d0:	689b      	ldr	r3, [r3, #8]
 80034d2:	f423 4303 	bic.w	r3, r3, #33536	@ 0x8300
 80034d6:	f023 03ff 	bic.w	r3, r3, #255	@ 0xff
 80034da:	687a      	ldr	r2, [r7, #4]
 80034dc:	6911      	ldr	r1, [r2, #16]
 80034de:	687a      	ldr	r2, [r7, #4]
 80034e0:	68d2      	ldr	r2, [r2, #12]
 80034e2:	4311      	orrs	r1, r2
 80034e4:	687a      	ldr	r2, [r7, #4]
 80034e6:	6812      	ldr	r2, [r2, #0]
 80034e8:	430b      	orrs	r3, r1
 80034ea:	6093      	str	r3, [r2, #8]
 80034ec:	687b      	ldr	r3, [r7, #4]
 80034ee:	681b      	ldr	r3, [r3, #0]
 80034f0:	68db      	ldr	r3, [r3, #12]
 80034f2:	f023 01ff 	bic.w	r1, r3, #255	@ 0xff
 80034f6:	687b      	ldr	r3, [r7, #4]
 80034f8:	695a      	ldr	r2, [r3, #20]
 80034fa:	687b      	ldr	r3, [r7, #4]
 80034fc:	699b      	ldr	r3, [r3, #24]
 80034fe:	431a      	orrs	r2, r3
 8003500:	687b      	ldr	r3, [r7, #4]
 8003502:	681b      	ldr	r3, [r3, #0]
 8003504:	430a      	orrs	r2, r1
 8003506:	60da      	str	r2, [r3, #12]
 8003508:	687b      	ldr	r3, [r7, #4]
 800350a:	681b      	ldr	r3, [r3, #0]
 800350c:	681a      	ldr	r2, [r3, #0]
 800350e:	687b      	ldr	r3, [r7, #4]
 8003510:	681b      	ldr	r3, [r3, #0]
 8003512:	f042 0201 	orr.w	r2, r2, #1
 8003516:	601a      	str	r2, [r3, #0]
 8003518:	687b      	ldr	r3, [r7, #4]
 800351a:	2200      	movs	r2, #0
 800351c:	641a      	str	r2, [r3, #64]	@ 0x40
 800351e:	687b      	ldr	r3, [r7, #4]
 8003520:	2220      	movs	r2, #32
 8003522:	f883 203d 	strb.w	r2, [r3, #61]	@ 0x3d
 8003526:	687b      	ldr	r3, [r7, #4]
 8003528:	2200      	movs	r2, #0
 800352a:	631a      	str	r2, [r3, #48]	@ 0x30
 800352c:	687b      	ldr	r3, [r7, #4]
 800352e:	2200      	movs	r2, #0
 8003530:	f883 203e 	strb.w	r2, [r3, #62]	@ 0x3e
 8003534:	2300      	movs	r3, #0
 8003536:	4618      	mov	r0, r3
 8003538:	3710      	adds	r7, #16
 800353a:	46bd      	mov	sp, r7
 800353c:	bd80      	pop	{r7, pc}
 800353e:	bf00      	nop
 8003540:	000186a0 	.word	0x000186a0
 8003544:	001e847f 	.word	0x001e847f
 8003548:	003d08ff 	.word	0x003d08ff
 800354c:	431bde83 	.word	0x431bde83
 8003550:	10624dd3 	.word	0x10624dd3

08003554 <HAL_I2C_Master_Transmit>:
 8003554:	b580      	push	{r7, lr}
 8003556:	b088      	sub	sp, #32
 8003558:	af02      	add	r7, sp, #8
 800355a:	60f8      	str	r0, [r7, #12]
 800355c:	607a      	str	r2, [r7, #4]
 800355e:	461a      	mov	r2, r3
 8003560:	460b      	mov	r3, r1
 8003562:	817b      	strh	r3, [r7, #10]
 8003564:	4613      	mov	r3, r2
 8003566:	813b      	strh	r3, [r7, #8]
 8003568:	f7fe fee2 	bl	8002330 <HAL_GetTick>
 800356c:	6178      	str	r0, [r7, #20]
 800356e:	68fb      	ldr	r3, [r7, #12]
 8003570:	f893 303d 	ldrb.w	r3, [r3, #61]	@ 0x3d
 8003574:	b2db      	uxtb	r3, r3
 8003576:	2b20      	cmp	r3, #32
 8003578:	f040 80e0 	bne.w	800373c <HAL_I2C_Master_Transmit+0x1e8>
 800357c:	697b      	ldr	r3, [r7, #20]
 800357e:	9300      	str	r3, [sp, #0]
 8003580:	2319      	movs	r3, #25
 8003582:	2201      	movs	r2, #1
 8003584:	4970      	ldr	r1, [pc, #448]	@ (8003748 <HAL_I2C_Master_Transmit+0x1f4>)
 8003586:	68f8      	ldr	r0, [r7, #12]
 8003588:	f000 fdcc 	bl	8004124 <I2C_WaitOnFlagUntilTimeout>
 800358c:	4603      	mov	r3, r0
 800358e:	2b00      	cmp	r3, #0
 8003590:	d001      	beq.n	8003596 <HAL_I2C_Master_Transmit+0x42>
 8003592:	2302      	movs	r3, #2
 8003594:	e0d3      	b.n	800373e <HAL_I2C_Master_Transmit+0x1ea>
 8003596:	68fb      	ldr	r3, [r7, #12]
 8003598:	f893 303c 	ldrb.w	r3, [r3, #60]	@ 0x3c
 800359c:	2b01      	cmp	r3, #1
 800359e:	d101      	bne.n	80035a4 <HAL_I2C_Master_Transmit+0x50>
 80035a0:	2302      	movs	r3, #2
 80035a2:	e0cc      	b.n	800373e <HAL_I2C_Master_Transmit+0x1ea>
 80035a4:	68fb      	ldr	r3, [r7, #12]
 80035a6:	2201      	movs	r2, #1
 80035a8:	f883 203c 	strb.w	r2, [r3, #60]	@ 0x3c
 80035ac:	68fb      	ldr	r3, [r7, #12]
 80035ae:	681b      	ldr	r3, [r3, #0]
 80035b0:	681b      	ldr	r3, [r3, #0]
 80035b2:	f003 0301 	and.w	r3, r3, #1
 80035b6:	2b01      	cmp	r3, #1
 80035b8:	d007      	beq.n	80035ca <HAL_I2C_Master_Transmit+0x76>
 80035ba:	68fb      	ldr	r3, [r7, #12]
 80035bc:	681b      	ldr	r3, [r3, #0]
 80035be:	681a      	ldr	r2, [r3, #0]
 80035c0:	68fb      	ldr	r3, [r7, #12]
 80035c2:	681b      	ldr	r3, [r3, #0]
 80035c4:	f042 0201 	orr.w	r2, r2, #1
 80035c8:	601a      	str	r2, [r3, #0]
 80035ca:	68fb      	ldr	r3, [r7, #12]
 80035cc:	681b      	ldr	r3, [r3, #0]
 80035ce:	681a      	ldr	r2, [r3, #0]
 80035d0:	68fb      	ldr	r3, [r7, #12]
 80035d2:	681b      	ldr	r3, [r3, #0]
 80035d4:	f422 6200 	bic.w	r2, r2, #2048	@ 0x800
 80035d8:	601a      	str	r2, [r3, #0]
 80035da:	68fb      	ldr	r3, [r7, #12]
 80035dc:	2221      	movs	r2, #33	@ 0x21
 80035de:	f883 203d 	strb.w	r2, [r3, #61]	@ 0x3d
 80035e2:	68fb      	ldr	r3, [r7, #12]
 80035e4:	2210      	movs	r2, #16
 80035e6:	f883 203e 	strb.w	r2, [r3, #62]	@ 0x3e
 80035ea:	68fb      	ldr	r3, [r7, #12]
 80035ec:	2200      	movs	r2, #0
 80035ee:	641a      	str	r2, [r3, #64]	@ 0x40
 80035f0:	68fb      	ldr	r3, [r7, #12]
 80035f2:	687a      	ldr	r2, [r7, #4]
 80035f4:	625a      	str	r2, [r3, #36]	@ 0x24
 80035f6:	68fb      	ldr	r3, [r7, #12]
 80035f8:	893a      	ldrh	r2, [r7, #8]
 80035fa:	855a      	strh	r2, [r3, #42]	@ 0x2a
 80035fc:	68fb      	ldr	r3, [r7, #12]
 80035fe:	8d5b      	ldrh	r3, [r3, #42]	@ 0x2a
 8003600:	b29a      	uxth	r2, r3
 8003602:	68fb      	ldr	r3, [r7, #12]
 8003604:	851a      	strh	r2, [r3, #40]	@ 0x28
 8003606:	68fb      	ldr	r3, [r7, #12]
 8003608:	4a50      	ldr	r2, [pc, #320]	@ (800374c <HAL_I2C_Master_Transmit+0x1f8>)
 800360a:	62da      	str	r2, [r3, #44]	@ 0x2c
 800360c:	8979      	ldrh	r1, [r7, #10]
 800360e:	697b      	ldr	r3, [r7, #20]
 8003610:	6a3a      	ldr	r2, [r7, #32]
 8003612:	68f8      	ldr	r0, [r7, #12]
 8003614:	f000 fc36 	bl	8003e84 <I2C_MasterRequestWrite>
 8003618:	4603      	mov	r3, r0
 800361a:	2b00      	cmp	r3, #0
 800361c:	d001      	beq.n	8003622 <HAL_I2C_Master_Transmit+0xce>
 800361e:	2301      	movs	r3, #1
 8003620:	e08d      	b.n	800373e <HAL_I2C_Master_Transmit+0x1ea>
 8003622:	2300      	movs	r3, #0
 8003624:	613b      	str	r3, [r7, #16]
 8003626:	68fb      	ldr	r3, [r7, #12]
 8003628:	681b      	ldr	r3, [r3, #0]
 800362a:	695b      	ldr	r3, [r3, #20]
 800362c:	613b      	str	r3, [r7, #16]
 800362e:	68fb      	ldr	r3, [r7, #12]
 8003630:	681b      	ldr	r3, [r3, #0]
 8003632:	699b      	ldr	r3, [r3, #24]
 8003634:	613b      	str	r3, [r7, #16]
 8003636:	693b      	ldr	r3, [r7, #16]
 8003638:	e066      	b.n	8003708 <HAL_I2C_Master_Transmit+0x1b4>
 800363a:	697a      	ldr	r2, [r7, #20]
 800363c:	6a39      	ldr	r1, [r7, #32]
 800363e:	68f8      	ldr	r0, [r7, #12]
 8003640:	f000 fe8a 	bl	8004358 <I2C_WaitOnTXEFlagUntilTimeout>
 8003644:	4603      	mov	r3, r0
 8003646:	2b00      	cmp	r3, #0
 8003648:	d00d      	beq.n	8003666 <HAL_I2C_Master_Transmit+0x112>
 800364a:	68fb      	ldr	r3, [r7, #12]
 800364c:	6c1b      	ldr	r3, [r3, #64]	@ 0x40
 800364e:	2b04      	cmp	r3, #4
 8003650:	d107      	bne.n	8003662 <HAL_I2C_Master_Transmit+0x10e>
 8003652:	68fb      	ldr	r3, [r7, #12]
 8003654:	681b      	ldr	r3, [r3, #0]
 8003656:	681a      	ldr	r2, [r3, #0]
 8003658:	68fb      	ldr	r3, [r7, #12]
 800365a:	681b      	ldr	r3, [r3, #0]
 800365c:	f442 7200 	orr.w	r2, r2, #512	@ 0x200
 8003660:	601a      	str	r2, [r3, #0]
 8003662:	2301      	movs	r3, #1
 8003664:	e06b      	b.n	800373e <HAL_I2C_Master_Transmit+0x1ea>
 8003666:	68fb      	ldr	r3, [r7, #12]
 8003668:	6a5b      	ldr	r3, [r3, #36]	@ 0x24
 800366a:	781a      	ldrb	r2, [r3, #0]
 800366c:	68fb      	ldr	r3, [r7, #12]
 800366e:	681b      	ldr	r3, [r3, #0]
 8003670:	611a      	str	r2, [r3, #16]
 8003672:	68fb      	ldr	r3, [r7, #12]
 8003674:	6a5b      	ldr	r3, [r3, #36]	@ 0x24
 8003676:	1c5a      	adds	r2, r3, #1
 8003678:	68fb      	ldr	r3, [r7, #12]
 800367a:	625a      	str	r2, [r3, #36]	@ 0x24
 800367c:	68fb      	ldr	r3, [r7, #12]
 800367e:	8d5b      	ldrh	r3, [r3, #42]	@ 0x2a
 8003680:	b29b      	uxth	r3, r3
 8003682:	3b01      	subs	r3, #1
 8003684:	b29a      	uxth	r2, r3
 8003686:	68fb      	ldr	r3, [r7, #12]
 8003688:	855a      	strh	r2, [r3, #42]	@ 0x2a
 800368a:	68fb      	ldr	r3, [r7, #12]
 800368c:	8d1b      	ldrh	r3, [r3, #40]	@ 0x28
 800368e:	3b01      	subs	r3, #1
 8003690:	b29a      	uxth	r2, r3
 8003692:	68fb      	ldr	r3, [r7, #12]
 8003694:	851a      	strh	r2, [r3, #40]	@ 0x28
 8003696:	68fb      	ldr	r3, [r7, #12]
 8003698:	681b      	ldr	r3, [r3, #0]
 800369a:	695b      	ldr	r3, [r3, #20]
 800369c:	f003 0304 	and.w	r3, r3, #4
 80036a0:	2b04      	cmp	r3, #4
 80036a2:	d11b      	bne.n	80036dc <HAL_I2C_Master_Transmit+0x188>
 80036a4:	68fb      	ldr	r3, [r7, #12]
 80036a6:	8d1b      	ldrh	r3, [r3, #40]	@ 0x28
 80036a8:	2b00      	cmp	r3, #0
 80036aa:	d017      	beq.n	80036dc <HAL_I2C_Master_Transmit+0x188>
 80036ac:	68fb      	ldr	r3, [r7, #12]
 80036ae:	6a5b      	ldr	r3, [r3, #36]	@ 0x24
 80036b0:	781a      	ldrb	r2, [r3, #0]
 80036b2:	68fb      	ldr	r3, [r7, #12]
 80036b4:	681b      	ldr	r3, [r3, #0]
 80036b6:	611a      	str	r2, [r3, #16]
 80036b8:	68fb      	ldr	r3, [r7, #12]
 80036ba:	6a5b      	ldr	r3, [r3, #36]	@ 0x24
 80036bc:	1c5a      	adds	r2, r3, #1
 80036be:	68fb      	ldr	r3, [r7, #12]
 80036c0:	625a      	str	r2, [r3, #36]	@ 0x24
 80036c2:	68fb      	ldr	r3, [r7, #12]
 80036c4:	8d5b      	ldrh	r3, [r3, #42]	@ 0x2a
 80036c6:	b29b      	uxth	r3, r3
 80036c8:	3b01      	subs	r3, #1
 80036ca:	b29a      	uxth	r2, r3
 80036cc:	68fb      	ldr	r3, [r7, #12]
 80036ce:	855a      	strh	r2, [r3, #42]	@ 0x2a
 80036d0:	68fb      	ldr	r3, [r7, #12]
 80036d2:	8d1b      	ldrh	r3, [r3, #40]	@ 0x28
 80036d4:	3b01      	subs	r3, #1
 80036d6:	b29a      	uxth	r2, r3
 80036d8:	68fb      	ldr	r3, [r7, #12]
 80036da:	851a      	strh	r2, [r3, #40]	@ 0x28
 80036dc:	697a      	ldr	r2, [r7, #20]
 80036de:	6a39      	ldr	r1, [r7, #32]
 80036e0:	68f8      	ldr	r0, [r7, #12]
 80036e2:	f000 fe81 	bl	80043e8 <I2C_WaitOnBTFFlagUntilTimeout>
 80036e6:	4603      	mov	r3, r0
 80036e8:	2b00      	cmp	r3, #0
 80036ea:	d00d      	beq.n	8003708 <HAL_I2C_Master_Transmit+0x1b4>
 80036ec:	68fb      	ldr	r3, [r7, #12]
 80036ee:	6c1b      	ldr	r3, [r3, #64]	@ 0x40
 80036f0:	2b04      	cmp	r3, #4
 80036f2:	d107      	bne.n	8003704 <HAL_I2C_Master_Transmit+0x1b0>
 80036f4:	68fb      	ldr	r3, [r7, #12]
 80036f6:	681b      	ldr	r3, [r3, #0]
 80036f8:	681a      	ldr	r2, [r3, #0]
 80036fa:	68fb      	ldr	r3, [r7, #12]
 80036fc:	681b      	ldr	r3, [r3, #0]
 80036fe:	f442 7200 	orr.w	r2, r2, #512	@ 0x200
 8003702:	601a      	str	r2, [r3, #0]
 8003704:	2301      	movs	r3, #1
 8003706:	e01a      	b.n	800373e <HAL_I2C_Master_Transmit+0x1ea>
 8003708:	68fb      	ldr	r3, [r7, #12]
 800370a:	8d1b      	ldrh	r3, [r3, #40]	@ 0x28
 800370c:	2b00      	cmp	r3, #0
 800370e:	d194      	bne.n	800363a <HAL_I2C_Master_Transmit+0xe6>
 8003710:	68fb      	ldr	r3, [r7, #12]
 8003712:	681b      	ldr	r3, [r3, #0]
 8003714:	681a      	ldr	r2, [r3, #0]
 8003716:	68fb      	ldr	r3, [r7, #12]
 8003718:	681b      	ldr	r3, [r3, #0]
 800371a:	f442 7200 	orr.w	r2, r2, #512	@ 0x200
 800371e:	601a      	str	r2, [r3, #0]
 8003720:	68fb      	ldr	r3, [r7, #12]
 8003722:	2220      	movs	r2, #32
 8003724:	f883 203d 	strb.w	r2, [r3, #61]	@ 0x3d
 8003728:	68fb      	ldr	r3, [r7, #12]
 800372a:	2200      	movs	r2, #0
 800372c:	f883 203e 	strb.w	r2, [r3, #62]	@ 0x3e
 8003730:	68fb      	ldr	r3, [r7, #12]
 8003732:	2200      	movs	r2, #0
 8003734:	f883 203c 	strb.w	r2, [r3, #60]	@ 0x3c
 8003738:	2300      	movs	r3, #0
 800373a:	e000      	b.n	800373e <HAL_I2C_Master_Transmit+0x1ea>
 800373c:	2302      	movs	r3, #2
 800373e:	4618      	mov	r0, r3
 8003740:	3718      	adds	r7, #24
 8003742:	46bd      	mov	sp, r7
 8003744:	bd80      	pop	{r7, pc}
 8003746:	bf00      	nop
 8003748:	00100002 	.word	0x00100002
 800374c:	ffff0000 	.word	0xffff0000

08003750 <HAL_I2C_Master_Receive>:
 8003750:	b580      	push	{r7, lr}
 8003752:	b08c      	sub	sp, #48	@ 0x30
 8003754:	af02      	add	r7, sp, #8
 8003756:	60f8      	str	r0, [r7, #12]
 8003758:	607a      	str	r2, [r7, #4]
 800375a:	461a      	mov	r2, r3
 800375c:	460b      	mov	r3, r1
 800375e:	817b      	strh	r3, [r7, #10]
 8003760:	4613      	mov	r3, r2
 8003762:	813b      	strh	r3, [r7, #8]
 8003764:	2300      	movs	r3, #0
 8003766:	623b      	str	r3, [r7, #32]
 8003768:	f7fe fde2 	bl	8002330 <HAL_GetTick>
 800376c:	6278      	str	r0, [r7, #36]	@ 0x24
 800376e:	68fb      	ldr	r3, [r7, #12]
 8003770:	f893 303d 	ldrb.w	r3, [r3, #61]	@ 0x3d
 8003774:	b2db      	uxtb	r3, r3
 8003776:	2b20      	cmp	r3, #32
 8003778:	f040 824b 	bne.w	8003c12 <HAL_I2C_Master_Receive+0x4c2>
 800377c:	6a7b      	ldr	r3, [r7, #36]	@ 0x24
 800377e:	9300      	str	r3, [sp, #0]
 8003780:	2319      	movs	r3, #25
 8003782:	2201      	movs	r2, #1
 8003784:	497f      	ldr	r1, [pc, #508]	@ (8003984 <HAL_I2C_Master_Receive+0x234>)
 8003786:	68f8      	ldr	r0, [r7, #12]
 8003788:	f000 fccc 	bl	8004124 <I2C_WaitOnFlagUntilTimeout>
 800378c:	4603      	mov	r3, r0
 800378e:	2b00      	cmp	r3, #0
 8003790:	d001      	beq.n	8003796 <HAL_I2C_Master_Receive+0x46>
 8003792:	2302      	movs	r3, #2
 8003794:	e23e      	b.n	8003c14 <HAL_I2C_Master_Receive+0x4c4>
 8003796:	68fb      	ldr	r3, [r7, #12]
 8003798:	f893 303c 	ldrb.w	r3, [r3, #60]	@ 0x3c
 800379c:	2b01      	cmp	r3, #1
 800379e:	d101      	bne.n	80037a4 <HAL_I2C_Master_Receive+0x54>
 80037a0:	2302      	movs	r3, #2
 80037a2:	e237      	b.n	8003c14 <HAL_I2C_Master_Receive+0x4c4>
 80037a4:	68fb      	ldr	r3, [r7, #12]
 80037a6:	2201      	movs	r2, #1
 80037a8:	f883 203c 	strb.w	r2, [r3, #60]	@ 0x3c
 80037ac:	68fb      	ldr	r3, [r7, #12]
 80037ae:	681b      	ldr	r3, [r3, #0]
 80037b0:	681b      	ldr	r3, [r3, #0]
 80037b2:	f003 0301 	and.w	r3, r3, #1
 80037b6:	2b01      	cmp	r3, #1
 80037b8:	d007      	beq.n	80037ca <HAL_I2C_Master_Receive+0x7a>
 80037ba:	68fb      	ldr	r3, [r7, #12]
 80037bc:	681b      	ldr	r3, [r3, #0]
 80037be:	681a      	ldr	r2, [r3, #0]
 80037c0:	68fb      	ldr	r3, [r7, #12]
 80037c2:	681b      	ldr	r3, [r3, #0]
 80037c4:	f042 0201 	orr.w	r2, r2, #1
 80037c8:	601a      	str	r2, [r3, #0]
 80037ca:	68fb      	ldr	r3, [r7, #12]
 80037cc:	681b      	ldr	r3, [r3, #0]
 80037ce:	681a      	ldr	r2, [r3, #0]
 80037d0:	68fb      	ldr	r3, [r7, #12]
 80037d2:	681b      	ldr	r3, [r3, #0]
 80037d4:	f422 6200 	bic.w	r2, r2, #2048	@ 0x800
 80037d8:	601a      	str	r2, [r3, #0]
 80037da:	68fb      	ldr	r3, [r7, #12]
 80037dc:	2222      	movs	r2, #34	@ 0x22
 80037de:	f883 203d 	strb.w	r2, [r3, #61]	@ 0x3d
 80037e2:	68fb      	ldr	r3, [r7, #12]
 80037e4:	2210      	movs	r2, #16
 80037e6:	f883 203e 	strb.w	r2, [r3, #62]	@ 0x3e
 80037ea:	68fb      	ldr	r3, [r7, #12]
 80037ec:	2200      	movs	r2, #0
 80037ee:	641a      	str	r2, [r3, #64]	@ 0x40
 80037f0:	68fb      	ldr	r3, [r7, #12]
 80037f2:	687a      	ldr	r2, [r7, #4]
 80037f4:	625a      	str	r2, [r3, #36]	@ 0x24
 80037f6:	68fb      	ldr	r3, [r7, #12]
 80037f8:	893a      	ldrh	r2, [r7, #8]
 80037fa:	855a      	strh	r2, [r3, #42]	@ 0x2a
 80037fc:	68fb      	ldr	r3, [r7, #12]
 80037fe:	8d5b      	ldrh	r3, [r3, #42]	@ 0x2a
 8003800:	b29a      	uxth	r2, r3
 8003802:	68fb      	ldr	r3, [r7, #12]
 8003804:	851a      	strh	r2, [r3, #40]	@ 0x28
 8003806:	68fb      	ldr	r3, [r7, #12]
 8003808:	4a5f      	ldr	r2, [pc, #380]	@ (8003988 <HAL_I2C_Master_Receive+0x238>)
 800380a:	62da      	str	r2, [r3, #44]	@ 0x2c
 800380c:	8979      	ldrh	r1, [r7, #10]
 800380e:	6a7b      	ldr	r3, [r7, #36]	@ 0x24
 8003810:	6b3a      	ldr	r2, [r7, #48]	@ 0x30
 8003812:	68f8      	ldr	r0, [r7, #12]
 8003814:	f000 fbb8 	bl	8003f88 <I2C_MasterRequestRead>
 8003818:	4603      	mov	r3, r0
 800381a:	2b00      	cmp	r3, #0
 800381c:	d001      	beq.n	8003822 <HAL_I2C_Master_Receive+0xd2>
 800381e:	2301      	movs	r3, #1
 8003820:	e1f8      	b.n	8003c14 <HAL_I2C_Master_Receive+0x4c4>
 8003822:	68fb      	ldr	r3, [r7, #12]
 8003824:	8d1b      	ldrh	r3, [r3, #40]	@ 0x28
 8003826:	2b00      	cmp	r3, #0
 8003828:	d113      	bne.n	8003852 <HAL_I2C_Master_Receive+0x102>
 800382a:	2300      	movs	r3, #0
 800382c:	61fb      	str	r3, [r7, #28]
 800382e:	68fb      	ldr	r3, [r7, #12]
 8003830:	681b      	ldr	r3, [r3, #0]
 8003832:	695b      	ldr	r3, [r3, #20]
 8003834:	61fb      	str	r3, [r7, #28]
 8003836:	68fb      	ldr	r3, [r7, #12]
 8003838:	681b      	ldr	r3, [r3, #0]
 800383a:	699b      	ldr	r3, [r3, #24]
 800383c:	61fb      	str	r3, [r7, #28]
 800383e:	69fb      	ldr	r3, [r7, #28]
 8003840:	68fb      	ldr	r3, [r7, #12]
 8003842:	681b      	ldr	r3, [r3, #0]
 8003844:	681a      	ldr	r2, [r3, #0]
 8003846:	68fb      	ldr	r3, [r7, #12]
 8003848:	681b      	ldr	r3, [r3, #0]
 800384a:	f442 7200 	orr.w	r2, r2, #512	@ 0x200
 800384e:	601a      	str	r2, [r3, #0]
 8003850:	e1cc      	b.n	8003bec <HAL_I2C_Master_Receive+0x49c>
 8003852:	68fb      	ldr	r3, [r7, #12]
 8003854:	8d1b      	ldrh	r3, [r3, #40]	@ 0x28
 8003856:	2b01      	cmp	r3, #1
 8003858:	d11e      	bne.n	8003898 <HAL_I2C_Master_Receive+0x148>
 800385a:	68fb      	ldr	r3, [r7, #12]
 800385c:	681b      	ldr	r3, [r3, #0]
 800385e:	681a      	ldr	r2, [r3, #0]
 8003860:	68fb      	ldr	r3, [r7, #12]
 8003862:	681b      	ldr	r3, [r3, #0]
 8003864:	f422 6280 	bic.w	r2, r2, #1024	@ 0x400
 8003868:	601a      	str	r2, [r3, #0]
 800386a:	b672      	cpsid	i
 800386c:	bf00      	nop
 800386e:	2300      	movs	r3, #0
 8003870:	61bb      	str	r3, [r7, #24]
 8003872:	68fb      	ldr	r3, [r7, #12]
 8003874:	681b      	ldr	r3, [r3, #0]
 8003876:	695b      	ldr	r3, [r3, #20]
 8003878:	61bb      	str	r3, [r7, #24]
 800387a:	68fb      	ldr	r3, [r7, #12]
 800387c:	681b      	ldr	r3, [r3, #0]
 800387e:	699b      	ldr	r3, [r3, #24]
 8003880:	61bb      	str	r3, [r7, #24]
 8003882:	69bb      	ldr	r3, [r7, #24]
 8003884:	68fb      	ldr	r3, [r7, #12]
 8003886:	681b      	ldr	r3, [r3, #0]
 8003888:	681a      	ldr	r2, [r3, #0]
 800388a:	68fb      	ldr	r3, [r7, #12]
 800388c:	681b      	ldr	r3, [r3, #0]
 800388e:	f442 7200 	orr.w	r2, r2, #512	@ 0x200
 8003892:	601a      	str	r2, [r3, #0]
 8003894:	b662      	cpsie	i
 8003896:	e035      	b.n	8003904 <HAL_I2C_Master_Receive+0x1b4>
 8003898:	68fb      	ldr	r3, [r7, #12]
 800389a:	8d1b      	ldrh	r3, [r3, #40]	@ 0x28
 800389c:	2b02      	cmp	r3, #2
 800389e:	d11e      	bne.n	80038de <HAL_I2C_Master_Receive+0x18e>
 80038a0:	68fb      	ldr	r3, [r7, #12]
 80038a2:	681b      	ldr	r3, [r3, #0]
 80038a4:	681a      	ldr	r2, [r3, #0]
 80038a6:	68fb      	ldr	r3, [r7, #12]
 80038a8:	681b      	ldr	r3, [r3, #0]
 80038aa:	f442 6200 	orr.w	r2, r2, #2048	@ 0x800
 80038ae:	601a      	str	r2, [r3, #0]
 80038b0:	b672      	cpsid	i
 80038b2:	bf00      	nop
 80038b4:	2300      	movs	r3, #0
 80038b6:	617b      	str	r3, [r7, #20]
 80038b8:	68fb      	ldr	r3, [r7, #12]
 80038ba:	681b      	ldr	r3, [r3, #0]
 80038bc:	695b      	ldr	r3, [r3, #20]
 80038be:	617b      	str	r3, [r7, #20]
 80038c0:	68fb      	ldr	r3, [r7, #12]
 80038c2:	681b      	ldr	r3, [r3, #0]
 80038c4:	699b      	ldr	r3, [r3, #24]
 80038c6:	617b      	str	r3, [r7, #20]
 80038c8:	697b      	ldr	r3, [r7, #20]
 80038ca:	68fb      	ldr	r3, [r7, #12]
 80038cc:	681b      	ldr	r3, [r3, #0]
 80038ce:	681a      	ldr	r2, [r3, #0]
 80038d0:	68fb      	ldr	r3, [r7, #12]
 80038d2:	681b      	ldr	r3, [r3, #0]
 80038d4:	f422 6280 	bic.w	r2, r2, #1024	@ 0x400
 80038d8:	601a      	str	r2, [r3, #0]
 80038da:	b662      	cpsie	i
 80038dc:	e012      	b.n	8003904 <HAL_I2C_Master_Receive+0x1b4>
 80038de:	68fb      	ldr	r3, [r7, #12]
 80038e0:	681b      	ldr	r3, [r3, #0]
 80038e2:	681a      	ldr	r2, [r3, #0]
 80038e4:	68fb      	ldr	r3, [r7, #12]
 80038e6:	681b      	ldr	r3, [r3, #0]
 80038e8:	f442 6280 	orr.w	r2, r2, #1024	@ 0x400
 80038ec:	601a      	str	r2, [r3, #0]
 80038ee:	2300      	movs	r3, #0
 80038f0:	613b      	str	r3, [r7, #16]
 80038f2:	68fb      	ldr	r3, [r7, #12]
 80038f4:	681b      	ldr	r3, [r3, #0]
 80038f6:	695b      	ldr	r3, [r3, #20]
 80038f8:	613b      	str	r3, [r7, #16]
 80038fa:	68fb      	ldr	r3, [r7, #12]
 80038fc:	681b      	ldr	r3, [r3, #0]
 80038fe:	699b      	ldr	r3, [r3, #24]
 8003900:	613b      	str	r3, [r7, #16]
 8003902:	693b      	ldr	r3, [r7, #16]
 8003904:	e172      	b.n	8003bec <HAL_I2C_Master_Receive+0x49c>
 8003906:	68fb      	ldr	r3, [r7, #12]
 8003908:	8d1b      	ldrh	r3, [r3, #40]	@ 0x28
 800390a:	2b03      	cmp	r3, #3
 800390c:	f200 811f 	bhi.w	8003b4e <HAL_I2C_Master_Receive+0x3fe>
 8003910:	68fb      	ldr	r3, [r7, #12]
 8003912:	8d1b      	ldrh	r3, [r3, #40]	@ 0x28
 8003914:	2b01      	cmp	r3, #1
 8003916:	d123      	bne.n	8003960 <HAL_I2C_Master_Receive+0x210>
 8003918:	6a7a      	ldr	r2, [r7, #36]	@ 0x24
 800391a:	6b39      	ldr	r1, [r7, #48]	@ 0x30
 800391c:	68f8      	ldr	r0, [r7, #12]
 800391e:	f000 fdab 	bl	8004478 <I2C_WaitOnRXNEFlagUntilTimeout>
 8003922:	4603      	mov	r3, r0
 8003924:	2b00      	cmp	r3, #0
 8003926:	d001      	beq.n	800392c <HAL_I2C_Master_Receive+0x1dc>
 8003928:	2301      	movs	r3, #1
 800392a:	e173      	b.n	8003c14 <HAL_I2C_Master_Receive+0x4c4>
 800392c:	68fb      	ldr	r3, [r7, #12]
 800392e:	681b      	ldr	r3, [r3, #0]
 8003930:	691a      	ldr	r2, [r3, #16]
 8003932:	68fb      	ldr	r3, [r7, #12]
 8003934:	6a5b      	ldr	r3, [r3, #36]	@ 0x24
 8003936:	b2d2      	uxtb	r2, r2
 8003938:	701a      	strb	r2, [r3, #0]
 800393a:	68fb      	ldr	r3, [r7, #12]
 800393c:	6a5b      	ldr	r3, [r3, #36]	@ 0x24
 800393e:	1c5a      	adds	r2, r3, #1
 8003940:	68fb      	ldr	r3, [r7, #12]
 8003942:	625a      	str	r2, [r3, #36]	@ 0x24
 8003944:	68fb      	ldr	r3, [r7, #12]
 8003946:	8d1b      	ldrh	r3, [r3, #40]	@ 0x28
 8003948:	3b01      	subs	r3, #1
 800394a:	b29a      	uxth	r2, r3
 800394c:	68fb      	ldr	r3, [r7, #12]
 800394e:	851a      	strh	r2, [r3, #40]	@ 0x28
 8003950:	68fb      	ldr	r3, [r7, #12]
 8003952:	8d5b      	ldrh	r3, [r3, #42]	@ 0x2a
 8003954:	b29b      	uxth	r3, r3
 8003956:	3b01      	subs	r3, #1
 8003958:	b29a      	uxth	r2, r3
 800395a:	68fb      	ldr	r3, [r7, #12]
 800395c:	855a      	strh	r2, [r3, #42]	@ 0x2a
 800395e:	e145      	b.n	8003bec <HAL_I2C_Master_Receive+0x49c>
 8003960:	68fb      	ldr	r3, [r7, #12]
 8003962:	8d1b      	ldrh	r3, [r3, #40]	@ 0x28
 8003964:	2b02      	cmp	r3, #2
 8003966:	d152      	bne.n	8003a0e <HAL_I2C_Master_Receive+0x2be>
 8003968:	6a7b      	ldr	r3, [r7, #36]	@ 0x24
 800396a:	9300      	str	r3, [sp, #0]
 800396c:	6b3b      	ldr	r3, [r7, #48]	@ 0x30
 800396e:	2200      	movs	r2, #0
 8003970:	4906      	ldr	r1, [pc, #24]	@ (800398c <HAL_I2C_Master_Receive+0x23c>)
 8003972:	68f8      	ldr	r0, [r7, #12]
 8003974:	f000 fbd6 	bl	8004124 <I2C_WaitOnFlagUntilTimeout>
 8003978:	4603      	mov	r3, r0
 800397a:	2b00      	cmp	r3, #0
 800397c:	d008      	beq.n	8003990 <HAL_I2C_Master_Receive+0x240>
 800397e:	2301      	movs	r3, #1
 8003980:	e148      	b.n	8003c14 <HAL_I2C_Master_Receive+0x4c4>
 8003982:	bf00      	nop
 8003984:	00100002 	.word	0x00100002
 8003988:	ffff0000 	.word	0xffff0000
 800398c:	00010004 	.word	0x00010004
 8003990:	b672      	cpsid	i
 8003992:	bf00      	nop
 8003994:	68fb      	ldr	r3, [r7, #12]
 8003996:	681b      	ldr	r3, [r3, #0]
 8003998:	681a      	ldr	r2, [r3, #0]
 800399a:	68fb      	ldr	r3, [r7, #12]
 800399c:	681b      	ldr	r3, [r3, #0]
 800399e:	f442 7200 	orr.w	r2, r2, #512	@ 0x200
 80039a2:	601a      	str	r2, [r3, #0]
 80039a4:	68fb      	ldr	r3, [r7, #12]
 80039a6:	681b      	ldr	r3, [r3, #0]
 80039a8:	691a      	ldr	r2, [r3, #16]
 80039aa:	68fb      	ldr	r3, [r7, #12]
 80039ac:	6a5b      	ldr	r3, [r3, #36]	@ 0x24
 80039ae:	b2d2      	uxtb	r2, r2
 80039b0:	701a      	strb	r2, [r3, #0]
 80039b2:	68fb      	ldr	r3, [r7, #12]
 80039b4:	6a5b      	ldr	r3, [r3, #36]	@ 0x24
 80039b6:	1c5a      	adds	r2, r3, #1
 80039b8:	68fb      	ldr	r3, [r7, #12]
 80039ba:	625a      	str	r2, [r3, #36]	@ 0x24
 80039bc:	68fb      	ldr	r3, [r7, #12]
 80039be:	8d1b      	ldrh	r3, [r3, #40]	@ 0x28
 80039c0:	3b01      	subs	r3, #1
 80039c2:	b29a      	uxth	r2, r3
 80039c4:	68fb      	ldr	r3, [r7, #12]
 80039c6:	851a      	strh	r2, [r3, #40]	@ 0x28
 80039c8:	68fb      	ldr	r3, [r7, #12]
 80039ca:	8d5b      	ldrh	r3, [r3, #42]	@ 0x2a
 80039cc:	b29b      	uxth	r3, r3
 80039ce:	3b01      	subs	r3, #1
 80039d0:	b29a      	uxth	r2, r3
 80039d2:	68fb      	ldr	r3, [r7, #12]
 80039d4:	855a      	strh	r2, [r3, #42]	@ 0x2a
 80039d6:	b662      	cpsie	i
 80039d8:	bf00      	nop
 80039da:	68fb      	ldr	r3, [r7, #12]
 80039dc:	681b      	ldr	r3, [r3, #0]
 80039de:	691a      	ldr	r2, [r3, #16]
 80039e0:	68fb      	ldr	r3, [r7, #12]
 80039e2:	6a5b      	ldr	r3, [r3, #36]	@ 0x24
 80039e4:	b2d2      	uxtb	r2, r2
 80039e6:	701a      	strb	r2, [r3, #0]
 80039e8:	68fb      	ldr	r3, [r7, #12]
 80039ea:	6a5b      	ldr	r3, [r3, #36]	@ 0x24
 80039ec:	1c5a      	adds	r2, r3, #1
 80039ee:	68fb      	ldr	r3, [r7, #12]
 80039f0:	625a      	str	r2, [r3, #36]	@ 0x24
 80039f2:	68fb      	ldr	r3, [r7, #12]
 80039f4:	8d1b      	ldrh	r3, [r3, #40]	@ 0x28
 80039f6:	3b01      	subs	r3, #1
 80039f8:	b29a      	uxth	r2, r3
 80039fa:	68fb      	ldr	r3, [r7, #12]
 80039fc:	851a      	strh	r2, [r3, #40]	@ 0x28
 80039fe:	68fb      	ldr	r3, [r7, #12]
 8003a00:	8d5b      	ldrh	r3, [r3, #42]	@ 0x2a
 8003a02:	b29b      	uxth	r3, r3
 8003a04:	3b01      	subs	r3, #1
 8003a06:	b29a      	uxth	r2, r3
 8003a08:	68fb      	ldr	r3, [r7, #12]
 8003a0a:	855a      	strh	r2, [r3, #42]	@ 0x2a
 8003a0c:	e0ee      	b.n	8003bec <HAL_I2C_Master_Receive+0x49c>
 8003a0e:	6a7b      	ldr	r3, [r7, #36]	@ 0x24
 8003a10:	9300      	str	r3, [sp, #0]
 8003a12:	6b3b      	ldr	r3, [r7, #48]	@ 0x30
 8003a14:	2200      	movs	r2, #0
 8003a16:	4981      	ldr	r1, [pc, #516]	@ (8003c1c <HAL_I2C_Master_Receive+0x4cc>)
 8003a18:	68f8      	ldr	r0, [r7, #12]
 8003a1a:	f000 fb83 	bl	8004124 <I2C_WaitOnFlagUntilTimeout>
 8003a1e:	4603      	mov	r3, r0
 8003a20:	2b00      	cmp	r3, #0
 8003a22:	d001      	beq.n	8003a28 <HAL_I2C_Master_Receive+0x2d8>
 8003a24:	2301      	movs	r3, #1
 8003a26:	e0f5      	b.n	8003c14 <HAL_I2C_Master_Receive+0x4c4>
 8003a28:	68fb      	ldr	r3, [r7, #12]
 8003a2a:	681b      	ldr	r3, [r3, #0]
 8003a2c:	681a      	ldr	r2, [r3, #0]
 8003a2e:	68fb      	ldr	r3, [r7, #12]
 8003a30:	681b      	ldr	r3, [r3, #0]
 8003a32:	f422 6280 	bic.w	r2, r2, #1024	@ 0x400
 8003a36:	601a      	str	r2, [r3, #0]
 8003a38:	b672      	cpsid	i
 8003a3a:	bf00      	nop
 8003a3c:	68fb      	ldr	r3, [r7, #12]
 8003a3e:	681b      	ldr	r3, [r3, #0]
 8003a40:	691a      	ldr	r2, [r3, #16]
 8003a42:	68fb      	ldr	r3, [r7, #12]
 8003a44:	6a5b      	ldr	r3, [r3, #36]	@ 0x24
 8003a46:	b2d2      	uxtb	r2, r2
 8003a48:	701a      	strb	r2, [r3, #0]
 8003a4a:	68fb      	ldr	r3, [r7, #12]
 8003a4c:	6a5b      	ldr	r3, [r3, #36]	@ 0x24
 8003a4e:	1c5a      	adds	r2, r3, #1
 8003a50:	68fb      	ldr	r3, [r7, #12]
 8003a52:	625a      	str	r2, [r3, #36]	@ 0x24
 8003a54:	68fb      	ldr	r3, [r7, #12]
 8003a56:	8d1b      	ldrh	r3, [r3, #40]	@ 0x28
 8003a58:	3b01      	subs	r3, #1
 8003a5a:	b29a      	uxth	r2, r3
 8003a5c:	68fb      	ldr	r3, [r7, #12]
 8003a5e:	851a      	strh	r2, [r3, #40]	@ 0x28
 8003a60:	68fb      	ldr	r3, [r7, #12]
 8003a62:	8d5b      	ldrh	r3, [r3, #42]	@ 0x2a
 8003a64:	b29b      	uxth	r3, r3
 8003a66:	3b01      	subs	r3, #1
 8003a68:	b29a      	uxth	r2, r3
 8003a6a:	68fb      	ldr	r3, [r7, #12]
 8003a6c:	855a      	strh	r2, [r3, #42]	@ 0x2a
 8003a6e:	4b6c      	ldr	r3, [pc, #432]	@ (8003c20 <HAL_I2C_Master_Receive+0x4d0>)
 8003a70:	681b      	ldr	r3, [r3, #0]
 8003a72:	08db      	lsrs	r3, r3, #3
 8003a74:	4a6b      	ldr	r2, [pc, #428]	@ (8003c24 <HAL_I2C_Master_Receive+0x4d4>)
 8003a76:	fba2 2303 	umull	r2, r3, r2, r3
 8003a7a:	0a1a      	lsrs	r2, r3, #8
 8003a7c:	4613      	mov	r3, r2
 8003a7e:	009b      	lsls	r3, r3, #2
 8003a80:	4413      	add	r3, r2
 8003a82:	00da      	lsls	r2, r3, #3
 8003a84:	1ad3      	subs	r3, r2, r3
 8003a86:	623b      	str	r3, [r7, #32]
 8003a88:	6a3b      	ldr	r3, [r7, #32]
 8003a8a:	3b01      	subs	r3, #1
 8003a8c:	623b      	str	r3, [r7, #32]
 8003a8e:	6a3b      	ldr	r3, [r7, #32]
 8003a90:	2b00      	cmp	r3, #0
 8003a92:	d118      	bne.n	8003ac6 <HAL_I2C_Master_Receive+0x376>
 8003a94:	68fb      	ldr	r3, [r7, #12]
 8003a96:	2200      	movs	r2, #0
 8003a98:	631a      	str	r2, [r3, #48]	@ 0x30
 8003a9a:	68fb      	ldr	r3, [r7, #12]
 8003a9c:	2220      	movs	r2, #32
 8003a9e:	f883 203d 	strb.w	r2, [r3, #61]	@ 0x3d
 8003aa2:	68fb      	ldr	r3, [r7, #12]
 8003aa4:	2200      	movs	r2, #0
 8003aa6:	f883 203e 	strb.w	r2, [r3, #62]	@ 0x3e
 8003aaa:	68fb      	ldr	r3, [r7, #12]
 8003aac:	6c1b      	ldr	r3, [r3, #64]	@ 0x40
 8003aae:	f043 0220 	orr.w	r2, r3, #32
 8003ab2:	68fb      	ldr	r3, [r7, #12]
 8003ab4:	641a      	str	r2, [r3, #64]	@ 0x40
 8003ab6:	b662      	cpsie	i
 8003ab8:	bf00      	nop
 8003aba:	68fb      	ldr	r3, [r7, #12]
 8003abc:	2200      	movs	r2, #0
 8003abe:	f883 203c 	strb.w	r2, [r3, #60]	@ 0x3c
 8003ac2:	2301      	movs	r3, #1
 8003ac4:	e0a6      	b.n	8003c14 <HAL_I2C_Master_Receive+0x4c4>
 8003ac6:	68fb      	ldr	r3, [r7, #12]
 8003ac8:	681b      	ldr	r3, [r3, #0]
 8003aca:	695b      	ldr	r3, [r3, #20]
 8003acc:	f003 0304 	and.w	r3, r3, #4
 8003ad0:	2b04      	cmp	r3, #4
 8003ad2:	d1d9      	bne.n	8003a88 <HAL_I2C_Master_Receive+0x338>
 8003ad4:	68fb      	ldr	r3, [r7, #12]
 8003ad6:	681b      	ldr	r3, [r3, #0]
 8003ad8:	681a      	ldr	r2, [r3, #0]
 8003ada:	68fb      	ldr	r3, [r7, #12]
 8003adc:	681b      	ldr	r3, [r3, #0]
 8003ade:	f442 7200 	orr.w	r2, r2, #512	@ 0x200
 8003ae2:	601a      	str	r2, [r3, #0]
 8003ae4:	68fb      	ldr	r3, [r7, #12]
 8003ae6:	681b      	ldr	r3, [r3, #0]
 8003ae8:	691a      	ldr	r2, [r3, #16]
 8003aea:	68fb      	ldr	r3, [r7, #12]
 8003aec:	6a5b      	ldr	r3, [r3, #36]	@ 0x24
 8003aee:	b2d2      	uxtb	r2, r2
 8003af0:	701a      	strb	r2, [r3, #0]
 8003af2:	68fb      	ldr	r3, [r7, #12]
 8003af4:	6a5b      	ldr	r3, [r3, #36]	@ 0x24
 8003af6:	1c5a      	adds	r2, r3, #1
 8003af8:	68fb      	ldr	r3, [r7, #12]
 8003afa:	625a      	str	r2, [r3, #36]	@ 0x24
 8003afc:	68fb      	ldr	r3, [r7, #12]
 8003afe:	8d1b      	ldrh	r3, [r3, #40]	@ 0x28
 8003b00:	3b01      	subs	r3, #1
 8003b02:	b29a      	uxth	r2, r3
 8003b04:	68fb      	ldr	r3, [r7, #12]
 8003b06:	851a      	strh	r2, [r3, #40]	@ 0x28
 8003b08:	68fb      	ldr	r3, [r7, #12]
 8003b0a:	8d5b      	ldrh	r3, [r3, #42]	@ 0x2a
 8003b0c:	b29b      	uxth	r3, r3
 8003b0e:	3b01      	subs	r3, #1
 8003b10:	b29a      	uxth	r2, r3
 8003b12:	68fb      	ldr	r3, [r7, #12]
 8003b14:	855a      	strh	r2, [r3, #42]	@ 0x2a
 8003b16:	b662      	cpsie	i
 8003b18:	bf00      	nop
 8003b1a:	68fb      	ldr	r3, [r7, #12]
 8003b1c:	681b      	ldr	r3, [r3, #0]
 8003b1e:	691a      	ldr	r2, [r3, #16]
 8003b20:	68fb      	ldr	r3, [r7, #12]
 8003b22:	6a5b      	ldr	r3, [r3, #36]	@ 0x24
 8003b24:	b2d2      	uxtb	r2, r2
 8003b26:	701a      	strb	r2, [r3, #0]
 8003b28:	68fb      	ldr	r3, [r7, #12]
 8003b2a:	6a5b      	ldr	r3, [r3, #36]	@ 0x24
 8003b2c:	1c5a      	adds	r2, r3, #1
 8003b2e:	68fb      	ldr	r3, [r7, #12]
 8003b30:	625a      	str	r2, [r3, #36]	@ 0x24
 8003b32:	68fb      	ldr	r3, [r7, #12]
 8003b34:	8d1b      	ldrh	r3, [r3, #40]	@ 0x28
 8003b36:	3b01      	subs	r3, #1
 8003b38:	b29a      	uxth	r2, r3
 8003b3a:	68fb      	ldr	r3, [r7, #12]
 8003b3c:	851a      	strh	r2, [r3, #40]	@ 0x28
 8003b3e:	68fb      	ldr	r3, [r7, #12]
 8003b40:	8d5b      	ldrh	r3, [r3, #42]	@ 0x2a
 8003b42:	b29b      	uxth	r3, r3
 8003b44:	3b01      	subs	r3, #1
 8003b46:	b29a      	uxth	r2, r3
 8003b48:	68fb      	ldr	r3, [r7, #12]
 8003b4a:	855a      	strh	r2, [r3, #42]	@ 0x2a
 8003b4c:	e04e      	b.n	8003bec <HAL_I2C_Master_Receive+0x49c>
 8003b4e:	6a7a      	ldr	r2, [r7, #36]	@ 0x24
 8003b50:	6b39      	ldr	r1, [r7, #48]	@ 0x30
 8003b52:	68f8      	ldr	r0, [r7, #12]
 8003b54:	f000 fc90 	bl	8004478 <I2C_WaitOnRXNEFlagUntilTimeout>
 8003b58:	4603      	mov	r3, r0
 8003b5a:	2b00      	cmp	r3, #0
 8003b5c:	d001      	beq.n	8003b62 <HAL_I2C_Master_Receive+0x412>
 8003b5e:	2301      	movs	r3, #1
 8003b60:	e058      	b.n	8003c14 <HAL_I2C_Master_Receive+0x4c4>
 8003b62:	68fb      	ldr	r3, [r7, #12]
 8003b64:	681b      	ldr	r3, [r3, #0]
 8003b66:	691a      	ldr	r2, [r3, #16]
 8003b68:	68fb      	ldr	r3, [r7, #12]
 8003b6a:	6a5b      	ldr	r3, [r3, #36]	@ 0x24
 8003b6c:	b2d2      	uxtb	r2, r2
 8003b6e:	701a      	strb	r2, [r3, #0]
 8003b70:	68fb      	ldr	r3, [r7, #12]
 8003b72:	6a5b      	ldr	r3, [r3, #36]	@ 0x24
 8003b74:	1c5a      	adds	r2, r3, #1
 8003b76:	68fb      	ldr	r3, [r7, #12]
 8003b78:	625a      	str	r2, [r3, #36]	@ 0x24
 8003b7a:	68fb      	ldr	r3, [r7, #12]
 8003b7c:	8d1b      	ldrh	r3, [r3, #40]	@ 0x28
 8003b7e:	3b01      	subs	r3, #1
 8003b80:	b29a      	uxth	r2, r3
 8003b82:	68fb      	ldr	r3, [r7, #12]
 8003b84:	851a      	strh	r2, [r3, #40]	@ 0x28
 8003b86:	68fb      	ldr	r3, [r7, #12]
 8003b88:	8d5b      	ldrh	r3, [r3, #42]	@ 0x2a
 8003b8a:	b29b      	uxth	r3, r3
 8003b8c:	3b01      	subs	r3, #1
 8003b8e:	b29a      	uxth	r2, r3
 8003b90:	68fb      	ldr	r3, [r7, #12]
 8003b92:	855a      	strh	r2, [r3, #42]	@ 0x2a
 8003b94:	68fb      	ldr	r3, [r7, #12]
 8003b96:	681b      	ldr	r3, [r3, #0]
 8003b98:	695b      	ldr	r3, [r3, #20]
 8003b9a:	f003 0304 	and.w	r3, r3, #4
 8003b9e:	2b04      	cmp	r3, #4
 8003ba0:	d124      	bne.n	8003bec <HAL_I2C_Master_Receive+0x49c>
 8003ba2:	68fb      	ldr	r3, [r7, #12]
 8003ba4:	8d1b      	ldrh	r3, [r3, #40]	@ 0x28
 8003ba6:	2b03      	cmp	r3, #3
 8003ba8:	d107      	bne.n	8003bba <HAL_I2C_Master_Receive+0x46a>
 8003baa:	68fb      	ldr	r3, [r7, #12]
 8003bac:	681b      	ldr	r3, [r3, #0]
 8003bae:	681a      	ldr	r2, [r3, #0]
 8003bb0:	68fb      	ldr	r3, [r7, #12]
 8003bb2:	681b      	ldr	r3, [r3, #0]
 8003bb4:	f422 6280 	bic.w	r2, r2, #1024	@ 0x400
 8003bb8:	601a      	str	r2, [r3, #0]
 8003bba:	68fb      	ldr	r3, [r7, #12]
 8003bbc:	681b      	ldr	r3, [r3, #0]
 8003bbe:	691a      	ldr	r2, [r3, #16]
 8003bc0:	68fb      	ldr	r3, [r7, #12]
 8003bc2:	6a5b      	ldr	r3, [r3, #36]	@ 0x24
 8003bc4:	b2d2      	uxtb	r2, r2
 8003bc6:	701a      	strb	r2, [r3, #0]
 8003bc8:	68fb      	ldr	r3, [r7, #12]
 8003bca:	6a5b      	ldr	r3, [r3, #36]	@ 0x24
 8003bcc:	1c5a      	adds	r2, r3, #1
 8003bce:	68fb      	ldr	r3, [r7, #12]
 8003bd0:	625a      	str	r2, [r3, #36]	@ 0x24
 8003bd2:	68fb      	ldr	r3, [r7, #12]
 8003bd4:	8d1b      	ldrh	r3, [r3, #40]	@ 0x28
 8003bd6:	3b01      	subs	r3, #1
 8003bd8:	b29a      	uxth	r2, r3
 8003bda:	68fb      	ldr	r3, [r7, #12]
 8003bdc:	851a      	strh	r2, [r3, #40]	@ 0x28
 8003bde:	68fb      	ldr	r3, [r7, #12]
 8003be0:	8d5b      	ldrh	r3, [r3, #42]	@ 0x2a
 8003be2:	b29b      	uxth	r3, r3
 8003be4:	3b01      	subs	r3, #1
 8003be6:	b29a      	uxth	r2, r3
 8003be8:	68fb      	ldr	r3, [r7, #12]
 8003bea:	855a      	strh	r2, [r3, #42]	@ 0x2a
 8003bec:	68fb      	ldr	r3, [r7, #12]
 8003bee:	8d1b      	ldrh	r3, [r3, #40]	@ 0x28
 8003bf0:	2b00      	cmp	r3, #0
 8003bf2:	f47f ae88 	bne.w	8003906 <HAL_I2C_Master_Receive+0x1b6>
 8003bf6:	68fb      	ldr	r3, [r7, #12]
 8003bf8:	2220      	movs	r2, #32
 8003bfa:	f883 203d 	strb.w	r2, [r3, #61]	@ 0x3d
 8003bfe:	68fb      	ldr	r3, [r7, #12]
 8003c00:	2200      	movs	r2, #0
 8003c02:	f883 203e 	strb.w	r2, [r3, #62]	@ 0x3e
 8003c06:	68fb      	ldr	r3, [r7, #12]
 8003c08:	2200      	movs	r2, #0
 8003c0a:	f883 203c 	strb.w	r2, [r3, #60]	@ 0x3c
 8003c0e:	2300      	movs	r3, #0
 8003c10:	e000      	b.n	8003c14 <HAL_I2C_Master_Receive+0x4c4>
 8003c12:	2302      	movs	r3, #2
 8003c14:	4618      	mov	r0, r3
 8003c16:	3728      	adds	r7, #40	@ 0x28
 8003c18:	46bd      	mov	sp, r7
 8003c1a:	bd80      	pop	{r7, pc}
 8003c1c:	00010004 	.word	0x00010004
 8003c20:	20000004 	.word	0x20000004
 8003c24:	14f8b589 	.word	0x14f8b589

08003c28 <HAL_I2C_IsDeviceReady>:
 8003c28:	b580      	push	{r7, lr}
 8003c2a:	b08a      	sub	sp, #40	@ 0x28
 8003c2c:	af02      	add	r7, sp, #8
 8003c2e:	60f8      	str	r0, [r7, #12]
 8003c30:	607a      	str	r2, [r7, #4]
 8003c32:	603b      	str	r3, [r7, #0]
 8003c34:	460b      	mov	r3, r1
 8003c36:	817b      	strh	r3, [r7, #10]
 8003c38:	f7fe fb7a 	bl	8002330 <HAL_GetTick>
 8003c3c:	61f8      	str	r0, [r7, #28]
 8003c3e:	2300      	movs	r3, #0
 8003c40:	61bb      	str	r3, [r7, #24]
 8003c42:	68fb      	ldr	r3, [r7, #12]
 8003c44:	f893 303d 	ldrb.w	r3, [r3, #61]	@ 0x3d
 8003c48:	b2db      	uxtb	r3, r3
 8003c4a:	2b20      	cmp	r3, #32
 8003c4c:	f040 8111 	bne.w	8003e72 <HAL_I2C_IsDeviceReady+0x24a>
 8003c50:	69fb      	ldr	r3, [r7, #28]
 8003c52:	9300      	str	r3, [sp, #0]
 8003c54:	2319      	movs	r3, #25
 8003c56:	2201      	movs	r2, #1
 8003c58:	4988      	ldr	r1, [pc, #544]	@ (8003e7c <HAL_I2C_IsDeviceReady+0x254>)
 8003c5a:	68f8      	ldr	r0, [r7, #12]
 8003c5c:	f000 fa62 	bl	8004124 <I2C_WaitOnFlagUntilTimeout>
 8003c60:	4603      	mov	r3, r0
 8003c62:	2b00      	cmp	r3, #0
 8003c64:	d001      	beq.n	8003c6a <HAL_I2C_IsDeviceReady+0x42>
 8003c66:	2302      	movs	r3, #2
 8003c68:	e104      	b.n	8003e74 <HAL_I2C_IsDeviceReady+0x24c>
 8003c6a:	68fb      	ldr	r3, [r7, #12]
 8003c6c:	f893 303c 	ldrb.w	r3, [r3, #60]	@ 0x3c
 8003c70:	2b01      	cmp	r3, #1
 8003c72:	d101      	bne.n	8003c78 <HAL_I2C_IsDeviceReady+0x50>
 8003c74:	2302      	movs	r3, #2
 8003c76:	e0fd      	b.n	8003e74 <HAL_I2C_IsDeviceReady+0x24c>
 8003c78:	68fb      	ldr	r3, [r7, #12]
 8003c7a:	2201      	movs	r2, #1
 8003c7c:	f883 203c 	strb.w	r2, [r3, #60]	@ 0x3c
 8003c80:	68fb      	ldr	r3, [r7, #12]
 8003c82:	681b      	ldr	r3, [r3, #0]
 8003c84:	681b      	ldr	r3, [r3, #0]
 8003c86:	f003 0301 	and.w	r3, r3, #1
 8003c8a:	2b01      	cmp	r3, #1
 8003c8c:	d007      	beq.n	8003c9e <HAL_I2C_IsDeviceReady+0x76>
 8003c8e:	68fb      	ldr	r3, [r7, #12]
 8003c90:	681b      	ldr	r3, [r3, #0]
 8003c92:	681a      	ldr	r2, [r3, #0]
 8003c94:	68fb      	ldr	r3, [r7, #12]
 8003c96:	681b      	ldr	r3, [r3, #0]
 8003c98:	f042 0201 	orr.w	r2, r2, #1
 8003c9c:	601a      	str	r2, [r3, #0]
 8003c9e:	68fb      	ldr	r3, [r7, #12]
 8003ca0:	681b      	ldr	r3, [r3, #0]
 8003ca2:	681a      	ldr	r2, [r3, #0]
 8003ca4:	68fb      	ldr	r3, [r7, #12]
 8003ca6:	681b      	ldr	r3, [r3, #0]
 8003ca8:	f422 6200 	bic.w	r2, r2, #2048	@ 0x800
 8003cac:	601a      	str	r2, [r3, #0]
 8003cae:	68fb      	ldr	r3, [r7, #12]
 8003cb0:	2224      	movs	r2, #36	@ 0x24
 8003cb2:	f883 203d 	strb.w	r2, [r3, #61]	@ 0x3d
 8003cb6:	68fb      	ldr	r3, [r7, #12]
 8003cb8:	2200      	movs	r2, #0
 8003cba:	641a      	str	r2, [r3, #64]	@ 0x40
 8003cbc:	68fb      	ldr	r3, [r7, #12]
 8003cbe:	4a70      	ldr	r2, [pc, #448]	@ (8003e80 <HAL_I2C_IsDeviceReady+0x258>)
 8003cc0:	62da      	str	r2, [r3, #44]	@ 0x2c
 8003cc2:	68fb      	ldr	r3, [r7, #12]
 8003cc4:	681b      	ldr	r3, [r3, #0]
 8003cc6:	681a      	ldr	r2, [r3, #0]
 8003cc8:	68fb      	ldr	r3, [r7, #12]
 8003cca:	681b      	ldr	r3, [r3, #0]
 8003ccc:	f442 7280 	orr.w	r2, r2, #256	@ 0x100
 8003cd0:	601a      	str	r2, [r3, #0]
 8003cd2:	69fb      	ldr	r3, [r7, #28]
 8003cd4:	9300      	str	r3, [sp, #0]
 8003cd6:	683b      	ldr	r3, [r7, #0]
 8003cd8:	2200      	movs	r2, #0
 8003cda:	f04f 1101 	mov.w	r1, #65537	@ 0x10001
 8003cde:	68f8      	ldr	r0, [r7, #12]
 8003ce0:	f000 fa20 	bl	8004124 <I2C_WaitOnFlagUntilTimeout>
 8003ce4:	4603      	mov	r3, r0
 8003ce6:	2b00      	cmp	r3, #0
 8003ce8:	d00d      	beq.n	8003d06 <HAL_I2C_IsDeviceReady+0xde>
 8003cea:	68fb      	ldr	r3, [r7, #12]
 8003cec:	681b      	ldr	r3, [r3, #0]
 8003cee:	681b      	ldr	r3, [r3, #0]
 8003cf0:	f403 7380 	and.w	r3, r3, #256	@ 0x100
 8003cf4:	f5b3 7f80 	cmp.w	r3, #256	@ 0x100
 8003cf8:	d103      	bne.n	8003d02 <HAL_I2C_IsDeviceReady+0xda>
 8003cfa:	68fb      	ldr	r3, [r7, #12]
 8003cfc:	f44f 7200 	mov.w	r2, #512	@ 0x200
 8003d00:	641a      	str	r2, [r3, #64]	@ 0x40
 8003d02:	2303      	movs	r3, #3
 8003d04:	e0b6      	b.n	8003e74 <HAL_I2C_IsDeviceReady+0x24c>
 8003d06:	897b      	ldrh	r3, [r7, #10]
 8003d08:	b2db      	uxtb	r3, r3
 8003d0a:	461a      	mov	r2, r3
 8003d0c:	68fb      	ldr	r3, [r7, #12]
 8003d0e:	681b      	ldr	r3, [r3, #0]
 8003d10:	f002 02fe 	and.w	r2, r2, #254	@ 0xfe
 8003d14:	611a      	str	r2, [r3, #16]
 8003d16:	f7fe fb0b 	bl	8002330 <HAL_GetTick>
 8003d1a:	61f8      	str	r0, [r7, #28]
 8003d1c:	68fb      	ldr	r3, [r7, #12]
 8003d1e:	681b      	ldr	r3, [r3, #0]
 8003d20:	695b      	ldr	r3, [r3, #20]
 8003d22:	f003 0302 	and.w	r3, r3, #2
 8003d26:	2b02      	cmp	r3, #2
 8003d28:	bf0c      	ite	eq
 8003d2a:	2301      	moveq	r3, #1
 8003d2c:	2300      	movne	r3, #0
 8003d2e:	b2db      	uxtb	r3, r3
 8003d30:	75fb      	strb	r3, [r7, #23]
 8003d32:	68fb      	ldr	r3, [r7, #12]
 8003d34:	681b      	ldr	r3, [r3, #0]
 8003d36:	695b      	ldr	r3, [r3, #20]
 8003d38:	f403 6380 	and.w	r3, r3, #1024	@ 0x400
 8003d3c:	f5b3 6f80 	cmp.w	r3, #1024	@ 0x400
 8003d40:	bf0c      	ite	eq
 8003d42:	2301      	moveq	r3, #1
 8003d44:	2300      	movne	r3, #0
 8003d46:	b2db      	uxtb	r3, r3
 8003d48:	75bb      	strb	r3, [r7, #22]
 8003d4a:	e025      	b.n	8003d98 <HAL_I2C_IsDeviceReady+0x170>
 8003d4c:	f7fe faf0 	bl	8002330 <HAL_GetTick>
 8003d50:	4602      	mov	r2, r0
 8003d52:	69fb      	ldr	r3, [r7, #28]
 8003d54:	1ad3      	subs	r3, r2, r3
 8003d56:	683a      	ldr	r2, [r7, #0]
 8003d58:	429a      	cmp	r2, r3
 8003d5a:	d302      	bcc.n	8003d62 <HAL_I2C_IsDeviceReady+0x13a>
 8003d5c:	683b      	ldr	r3, [r7, #0]
 8003d5e:	2b00      	cmp	r3, #0
 8003d60:	d103      	bne.n	8003d6a <HAL_I2C_IsDeviceReady+0x142>
 8003d62:	68fb      	ldr	r3, [r7, #12]
 8003d64:	22a0      	movs	r2, #160	@ 0xa0
 8003d66:	f883 203d 	strb.w	r2, [r3, #61]	@ 0x3d
 8003d6a:	68fb      	ldr	r3, [r7, #12]
 8003d6c:	681b      	ldr	r3, [r3, #0]
 8003d6e:	695b      	ldr	r3, [r3, #20]
 8003d70:	f003 0302 	and.w	r3, r3, #2
 8003d74:	2b02      	cmp	r3, #2
 8003d76:	bf0c      	ite	eq
 8003d78:	2301      	moveq	r3, #1
 8003d7a:	2300      	movne	r3, #0
 8003d7c:	b2db      	uxtb	r3, r3
 8003d7e:	75fb      	strb	r3, [r7, #23]
 8003d80:	68fb      	ldr	r3, [r7, #12]
 8003d82:	681b      	ldr	r3, [r3, #0]
 8003d84:	695b      	ldr	r3, [r3, #20]
 8003d86:	f403 6380 	and.w	r3, r3, #1024	@ 0x400
 8003d8a:	f5b3 6f80 	cmp.w	r3, #1024	@ 0x400
 8003d8e:	bf0c      	ite	eq
 8003d90:	2301      	moveq	r3, #1
 8003d92:	2300      	movne	r3, #0
 8003d94:	b2db      	uxtb	r3, r3
 8003d96:	75bb      	strb	r3, [r7, #22]
 8003d98:	68fb      	ldr	r3, [r7, #12]
 8003d9a:	f893 303d 	ldrb.w	r3, [r3, #61]	@ 0x3d
 8003d9e:	b2db      	uxtb	r3, r3
 8003da0:	2ba0      	cmp	r3, #160	@ 0xa0
 8003da2:	d005      	beq.n	8003db0 <HAL_I2C_IsDeviceReady+0x188>
 8003da4:	7dfb      	ldrb	r3, [r7, #23]
 8003da6:	2b00      	cmp	r3, #0
 8003da8:	d102      	bne.n	8003db0 <HAL_I2C_IsDeviceReady+0x188>
 8003daa:	7dbb      	ldrb	r3, [r7, #22]
 8003dac:	2b00      	cmp	r3, #0
 8003dae:	d0cd      	beq.n	8003d4c <HAL_I2C_IsDeviceReady+0x124>
 8003db0:	68fb      	ldr	r3, [r7, #12]
 8003db2:	2220      	movs	r2, #32
 8003db4:	f883 203d 	strb.w	r2, [r3, #61]	@ 0x3d
 8003db8:	68fb      	ldr	r3, [r7, #12]
 8003dba:	681b      	ldr	r3, [r3, #0]
 8003dbc:	695b      	ldr	r3, [r3, #20]
 8003dbe:	f003 0302 	and.w	r3, r3, #2
 8003dc2:	2b02      	cmp	r3, #2
 8003dc4:	d129      	bne.n	8003e1a <HAL_I2C_IsDeviceReady+0x1f2>
 8003dc6:	68fb      	ldr	r3, [r7, #12]
 8003dc8:	681b      	ldr	r3, [r3, #0]
 8003dca:	681a      	ldr	r2, [r3, #0]
 8003dcc:	68fb      	ldr	r3, [r7, #12]
 8003dce:	681b      	ldr	r3, [r3, #0]
 8003dd0:	f442 7200 	orr.w	r2, r2, #512	@ 0x200
 8003dd4:	601a      	str	r2, [r3, #0]
 8003dd6:	2300      	movs	r3, #0
 8003dd8:	613b      	str	r3, [r7, #16]
 8003dda:	68fb      	ldr	r3, [r7, #12]
 8003ddc:	681b      	ldr	r3, [r3, #0]
 8003dde:	695b      	ldr	r3, [r3, #20]
 8003de0:	613b      	str	r3, [r7, #16]
 8003de2:	68fb      	ldr	r3, [r7, #12]
 8003de4:	681b      	ldr	r3, [r3, #0]
 8003de6:	699b      	ldr	r3, [r3, #24]
 8003de8:	613b      	str	r3, [r7, #16]
 8003dea:	693b      	ldr	r3, [r7, #16]
 8003dec:	69fb      	ldr	r3, [r7, #28]
 8003dee:	9300      	str	r3, [sp, #0]
 8003df0:	2319      	movs	r3, #25
 8003df2:	2201      	movs	r2, #1
 8003df4:	4921      	ldr	r1, [pc, #132]	@ (8003e7c <HAL_I2C_IsDeviceReady+0x254>)
 8003df6:	68f8      	ldr	r0, [r7, #12]
 8003df8:	f000 f994 	bl	8004124 <I2C_WaitOnFlagUntilTimeout>
 8003dfc:	4603      	mov	r3, r0
 8003dfe:	2b00      	cmp	r3, #0
 8003e00:	d001      	beq.n	8003e06 <HAL_I2C_IsDeviceReady+0x1de>
 8003e02:	2301      	movs	r3, #1
 8003e04:	e036      	b.n	8003e74 <HAL_I2C_IsDeviceReady+0x24c>
 8003e06:	68fb      	ldr	r3, [r7, #12]
 8003e08:	2220      	movs	r2, #32
 8003e0a:	f883 203d 	strb.w	r2, [r3, #61]	@ 0x3d
 8003e0e:	68fb      	ldr	r3, [r7, #12]
 8003e10:	2200      	movs	r2, #0
 8003e12:	f883 203c 	strb.w	r2, [r3, #60]	@ 0x3c
 8003e16:	2300      	movs	r3, #0
 8003e18:	e02c      	b.n	8003e74 <HAL_I2C_IsDeviceReady+0x24c>
 8003e1a:	68fb      	ldr	r3, [r7, #12]
 8003e1c:	681b      	ldr	r3, [r3, #0]
 8003e1e:	681a      	ldr	r2, [r3, #0]
 8003e20:	68fb      	ldr	r3, [r7, #12]
 8003e22:	681b      	ldr	r3, [r3, #0]
 8003e24:	f442 7200 	orr.w	r2, r2, #512	@ 0x200
 8003e28:	601a      	str	r2, [r3, #0]
 8003e2a:	68fb      	ldr	r3, [r7, #12]
 8003e2c:	681b      	ldr	r3, [r3, #0]
 8003e2e:	f46f 6280 	mvn.w	r2, #1024	@ 0x400
 8003e32:	615a      	str	r2, [r3, #20]
 8003e34:	69fb      	ldr	r3, [r7, #28]
 8003e36:	9300      	str	r3, [sp, #0]
 8003e38:	2319      	movs	r3, #25
 8003e3a:	2201      	movs	r2, #1
 8003e3c:	490f      	ldr	r1, [pc, #60]	@ (8003e7c <HAL_I2C_IsDeviceReady+0x254>)
 8003e3e:	68f8      	ldr	r0, [r7, #12]
 8003e40:	f000 f970 	bl	8004124 <I2C_WaitOnFlagUntilTimeout>
 8003e44:	4603      	mov	r3, r0
 8003e46:	2b00      	cmp	r3, #0
 8003e48:	d001      	beq.n	8003e4e <HAL_I2C_IsDeviceReady+0x226>
 8003e4a:	2301      	movs	r3, #1
 8003e4c:	e012      	b.n	8003e74 <HAL_I2C_IsDeviceReady+0x24c>
 8003e4e:	69bb      	ldr	r3, [r7, #24]
 8003e50:	3301      	adds	r3, #1
 8003e52:	61bb      	str	r3, [r7, #24]
 8003e54:	69ba      	ldr	r2, [r7, #24]
 8003e56:	687b      	ldr	r3, [r7, #4]
 8003e58:	429a      	cmp	r2, r3
 8003e5a:	f4ff af32 	bcc.w	8003cc2 <HAL_I2C_IsDeviceReady+0x9a>
 8003e5e:	68fb      	ldr	r3, [r7, #12]
 8003e60:	2220      	movs	r2, #32
 8003e62:	f883 203d 	strb.w	r2, [r3, #61]	@ 0x3d
 8003e66:	68fb      	ldr	r3, [r7, #12]
 8003e68:	2200      	movs	r2, #0
 8003e6a:	f883 203c 	strb.w	r2, [r3, #60]	@ 0x3c
 8003e6e:	2301      	movs	r3, #1
 8003e70:	e000      	b.n	8003e74 <HAL_I2C_IsDeviceReady+0x24c>
 8003e72:	2302      	movs	r3, #2
 8003e74:	4618      	mov	r0, r3
 8003e76:	3720      	adds	r7, #32
 8003e78:	46bd      	mov	sp, r7
 8003e7a:	bd80      	pop	{r7, pc}
 8003e7c:	00100002 	.word	0x00100002
 8003e80:	ffff0000 	.word	0xffff0000

08003e84 <I2C_MasterRequestWrite>:
 8003e84:	b580      	push	{r7, lr}
 8003e86:	b088      	sub	sp, #32
 8003e88:	af02      	add	r7, sp, #8
 8003e8a:	60f8      	str	r0, [r7, #12]
 8003e8c:	607a      	str	r2, [r7, #4]
 8003e8e:	603b      	str	r3, [r7, #0]
 8003e90:	460b      	mov	r3, r1
 8003e92:	817b      	strh	r3, [r7, #10]
 8003e94:	68fb      	ldr	r3, [r7, #12]
 8003e96:	6adb      	ldr	r3, [r3, #44]	@ 0x2c
 8003e98:	617b      	str	r3, [r7, #20]
 8003e9a:	697b      	ldr	r3, [r7, #20]
 8003e9c:	2b08      	cmp	r3, #8
 8003e9e:	d006      	beq.n	8003eae <I2C_MasterRequestWrite+0x2a>
 8003ea0:	697b      	ldr	r3, [r7, #20]
 8003ea2:	2b01      	cmp	r3, #1
 8003ea4:	d003      	beq.n	8003eae <I2C_MasterRequestWrite+0x2a>
 8003ea6:	697b      	ldr	r3, [r7, #20]
 8003ea8:	f513 3f80 	cmn.w	r3, #65536	@ 0x10000
 8003eac:	d108      	bne.n	8003ec0 <I2C_MasterRequestWrite+0x3c>
 8003eae:	68fb      	ldr	r3, [r7, #12]
 8003eb0:	681b      	ldr	r3, [r3, #0]
 8003eb2:	681a      	ldr	r2, [r3, #0]
 8003eb4:	68fb      	ldr	r3, [r7, #12]
 8003eb6:	681b      	ldr	r3, [r3, #0]
 8003eb8:	f442 7280 	orr.w	r2, r2, #256	@ 0x100
 8003ebc:	601a      	str	r2, [r3, #0]
 8003ebe:	e00b      	b.n	8003ed8 <I2C_MasterRequestWrite+0x54>
 8003ec0:	68fb      	ldr	r3, [r7, #12]
 8003ec2:	6b1b      	ldr	r3, [r3, #48]	@ 0x30
 8003ec4:	2b12      	cmp	r3, #18
 8003ec6:	d107      	bne.n	8003ed8 <I2C_MasterRequestWrite+0x54>
 8003ec8:	68fb      	ldr	r3, [r7, #12]
 8003eca:	681b      	ldr	r3, [r3, #0]
 8003ecc:	681a      	ldr	r2, [r3, #0]
 8003ece:	68fb      	ldr	r3, [r7, #12]
 8003ed0:	681b      	ldr	r3, [r3, #0]
 8003ed2:	f442 7280 	orr.w	r2, r2, #256	@ 0x100
 8003ed6:	601a      	str	r2, [r3, #0]
 8003ed8:	683b      	ldr	r3, [r7, #0]
 8003eda:	9300      	str	r3, [sp, #0]
 8003edc:	687b      	ldr	r3, [r7, #4]
 8003ede:	2200      	movs	r2, #0
 8003ee0:	f04f 1101 	mov.w	r1, #65537	@ 0x10001
 8003ee4:	68f8      	ldr	r0, [r7, #12]
 8003ee6:	f000 f91d 	bl	8004124 <I2C_WaitOnFlagUntilTimeout>
 8003eea:	4603      	mov	r3, r0
 8003eec:	2b00      	cmp	r3, #0
 8003eee:	d00d      	beq.n	8003f0c <I2C_MasterRequestWrite+0x88>
 8003ef0:	68fb      	ldr	r3, [r7, #12]
 8003ef2:	681b      	ldr	r3, [r3, #0]
 8003ef4:	681b      	ldr	r3, [r3, #0]
 8003ef6:	f403 7380 	and.w	r3, r3, #256	@ 0x100
 8003efa:	f5b3 7f80 	cmp.w	r3, #256	@ 0x100
 8003efe:	d103      	bne.n	8003f08 <I2C_MasterRequestWrite+0x84>
 8003f00:	68fb      	ldr	r3, [r7, #12]
 8003f02:	f44f 7200 	mov.w	r2, #512	@ 0x200
 8003f06:	641a      	str	r2, [r3, #64]	@ 0x40
 8003f08:	2303      	movs	r3, #3
 8003f0a:	e035      	b.n	8003f78 <I2C_MasterRequestWrite+0xf4>
 8003f0c:	68fb      	ldr	r3, [r7, #12]
 8003f0e:	691b      	ldr	r3, [r3, #16]
 8003f10:	f5b3 4f80 	cmp.w	r3, #16384	@ 0x4000
 8003f14:	d108      	bne.n	8003f28 <I2C_MasterRequestWrite+0xa4>
 8003f16:	897b      	ldrh	r3, [r7, #10]
 8003f18:	b2db      	uxtb	r3, r3
 8003f1a:	461a      	mov	r2, r3
 8003f1c:	68fb      	ldr	r3, [r7, #12]
 8003f1e:	681b      	ldr	r3, [r3, #0]
 8003f20:	f002 02fe 	and.w	r2, r2, #254	@ 0xfe
 8003f24:	611a      	str	r2, [r3, #16]
 8003f26:	e01b      	b.n	8003f60 <I2C_MasterRequestWrite+0xdc>
 8003f28:	897b      	ldrh	r3, [r7, #10]
 8003f2a:	11db      	asrs	r3, r3, #7
 8003f2c:	b2db      	uxtb	r3, r3
 8003f2e:	f003 0306 	and.w	r3, r3, #6
 8003f32:	b2db      	uxtb	r3, r3
 8003f34:	f063 030f 	orn	r3, r3, #15
 8003f38:	b2da      	uxtb	r2, r3
 8003f3a:	68fb      	ldr	r3, [r7, #12]
 8003f3c:	681b      	ldr	r3, [r3, #0]
 8003f3e:	611a      	str	r2, [r3, #16]
 8003f40:	683b      	ldr	r3, [r7, #0]
 8003f42:	687a      	ldr	r2, [r7, #4]
 8003f44:	490e      	ldr	r1, [pc, #56]	@ (8003f80 <I2C_MasterRequestWrite+0xfc>)
 8003f46:	68f8      	ldr	r0, [r7, #12]
 8003f48:	f000 f966 	bl	8004218 <I2C_WaitOnMasterAddressFlagUntilTimeout>
 8003f4c:	4603      	mov	r3, r0
 8003f4e:	2b00      	cmp	r3, #0
 8003f50:	d001      	beq.n	8003f56 <I2C_MasterRequestWrite+0xd2>
 8003f52:	2301      	movs	r3, #1
 8003f54:	e010      	b.n	8003f78 <I2C_MasterRequestWrite+0xf4>
 8003f56:	897b      	ldrh	r3, [r7, #10]
 8003f58:	b2da      	uxtb	r2, r3
 8003f5a:	68fb      	ldr	r3, [r7, #12]
 8003f5c:	681b      	ldr	r3, [r3, #0]
 8003f5e:	611a      	str	r2, [r3, #16]
 8003f60:	683b      	ldr	r3, [r7, #0]
 8003f62:	687a      	ldr	r2, [r7, #4]
 8003f64:	4907      	ldr	r1, [pc, #28]	@ (8003f84 <I2C_MasterRequestWrite+0x100>)
 8003f66:	68f8      	ldr	r0, [r7, #12]
 8003f68:	f000 f956 	bl	8004218 <I2C_WaitOnMasterAddressFlagUntilTimeout>
 8003f6c:	4603      	mov	r3, r0
 8003f6e:	2b00      	cmp	r3, #0
 8003f70:	d001      	beq.n	8003f76 <I2C_MasterRequestWrite+0xf2>
 8003f72:	2301      	movs	r3, #1
 8003f74:	e000      	b.n	8003f78 <I2C_MasterRequestWrite+0xf4>
 8003f76:	2300      	movs	r3, #0
 8003f78:	4618      	mov	r0, r3
 8003f7a:	3718      	adds	r7, #24
 8003f7c:	46bd      	mov	sp, r7
 8003f7e:	bd80      	pop	{r7, pc}
 8003f80:	00010008 	.word	0x00010008
 8003f84:	00010002 	.word	0x00010002

08003f88 <I2C_MasterRequestRead>:
 8003f88:	b580      	push	{r7, lr}
 8003f8a:	b088      	sub	sp, #32
 8003f8c:	af02      	add	r7, sp, #8
 8003f8e:	60f8      	str	r0, [r7, #12]
 8003f90:	607a      	str	r2, [r7, #4]
 8003f92:	603b      	str	r3, [r7, #0]
 8003f94:	460b      	mov	r3, r1
 8003f96:	817b      	strh	r3, [r7, #10]
 8003f98:	68fb      	ldr	r3, [r7, #12]
 8003f9a:	6adb      	ldr	r3, [r3, #44]	@ 0x2c
 8003f9c:	617b      	str	r3, [r7, #20]
 8003f9e:	68fb      	ldr	r3, [r7, #12]
 8003fa0:	681b      	ldr	r3, [r3, #0]
 8003fa2:	681a      	ldr	r2, [r3, #0]
 8003fa4:	68fb      	ldr	r3, [r7, #12]
 8003fa6:	681b      	ldr	r3, [r3, #0]
 8003fa8:	f442 6280 	orr.w	r2, r2, #1024	@ 0x400
 8003fac:	601a      	str	r2, [r3, #0]
 8003fae:	697b      	ldr	r3, [r7, #20]
 8003fb0:	2b08      	cmp	r3, #8
 8003fb2:	d006      	beq.n	8003fc2 <I2C_MasterRequestRead+0x3a>
 8003fb4:	697b      	ldr	r3, [r7, #20]
 8003fb6:	2b01      	cmp	r3, #1
 8003fb8:	d003      	beq.n	8003fc2 <I2C_MasterRequestRead+0x3a>
 8003fba:	697b      	ldr	r3, [r7, #20]
 8003fbc:	f513 3f80 	cmn.w	r3, #65536	@ 0x10000
 8003fc0:	d108      	bne.n	8003fd4 <I2C_MasterRequestRead+0x4c>
 8003fc2:	68fb      	ldr	r3, [r7, #12]
 8003fc4:	681b      	ldr	r3, [r3, #0]
 8003fc6:	681a      	ldr	r2, [r3, #0]
 8003fc8:	68fb      	ldr	r3, [r7, #12]
 8003fca:	681b      	ldr	r3, [r3, #0]
 8003fcc:	f442 7280 	orr.w	r2, r2, #256	@ 0x100
 8003fd0:	601a      	str	r2, [r3, #0]
 8003fd2:	e00b      	b.n	8003fec <I2C_MasterRequestRead+0x64>
 8003fd4:	68fb      	ldr	r3, [r7, #12]
 8003fd6:	6b1b      	ldr	r3, [r3, #48]	@ 0x30
 8003fd8:	2b11      	cmp	r3, #17
 8003fda:	d107      	bne.n	8003fec <I2C_MasterRequestRead+0x64>
 8003fdc:	68fb      	ldr	r3, [r7, #12]
 8003fde:	681b      	ldr	r3, [r3, #0]
 8003fe0:	681a      	ldr	r2, [r3, #0]
 8003fe2:	68fb      	ldr	r3, [r7, #12]
 8003fe4:	681b      	ldr	r3, [r3, #0]
 8003fe6:	f442 7280 	orr.w	r2, r2, #256	@ 0x100
 8003fea:	601a      	str	r2, [r3, #0]
 8003fec:	683b      	ldr	r3, [r7, #0]
 8003fee:	9300      	str	r3, [sp, #0]
 8003ff0:	687b      	ldr	r3, [r7, #4]
 8003ff2:	2200      	movs	r2, #0
 8003ff4:	f04f 1101 	mov.w	r1, #65537	@ 0x10001
 8003ff8:	68f8      	ldr	r0, [r7, #12]
 8003ffa:	f000 f893 	bl	8004124 <I2C_WaitOnFlagUntilTimeout>
 8003ffe:	4603      	mov	r3, r0
 8004000:	2b00      	cmp	r3, #0
 8004002:	d00d      	beq.n	8004020 <I2C_MasterRequestRead+0x98>
 8004004:	68fb      	ldr	r3, [r7, #12]
 8004006:	681b      	ldr	r3, [r3, #0]
 8004008:	681b      	ldr	r3, [r3, #0]
 800400a:	f403 7380 	and.w	r3, r3, #256	@ 0x100
 800400e:	f5b3 7f80 	cmp.w	r3, #256	@ 0x100
 8004012:	d103      	bne.n	800401c <I2C_MasterRequestRead+0x94>
 8004014:	68fb      	ldr	r3, [r7, #12]
 8004016:	f44f 7200 	mov.w	r2, #512	@ 0x200
 800401a:	641a      	str	r2, [r3, #64]	@ 0x40
 800401c:	2303      	movs	r3, #3
 800401e:	e079      	b.n	8004114 <I2C_MasterRequestRead+0x18c>
 8004020:	68fb      	ldr	r3, [r7, #12]
 8004022:	691b      	ldr	r3, [r3, #16]
 8004024:	f5b3 4f80 	cmp.w	r3, #16384	@ 0x4000
 8004028:	d108      	bne.n	800403c <I2C_MasterRequestRead+0xb4>
 800402a:	897b      	ldrh	r3, [r7, #10]
 800402c:	b2db      	uxtb	r3, r3
 800402e:	f043 0301 	orr.w	r3, r3, #1
 8004032:	b2da      	uxtb	r2, r3
 8004034:	68fb      	ldr	r3, [r7, #12]
 8004036:	681b      	ldr	r3, [r3, #0]
 8004038:	611a      	str	r2, [r3, #16]
 800403a:	e05f      	b.n	80040fc <I2C_MasterRequestRead+0x174>
 800403c:	897b      	ldrh	r3, [r7, #10]
 800403e:	11db      	asrs	r3, r3, #7
 8004040:	b2db      	uxtb	r3, r3
 8004042:	f003 0306 	and.w	r3, r3, #6
 8004046:	b2db      	uxtb	r3, r3
 8004048:	f063 030f 	orn	r3, r3, #15
 800404c:	b2da      	uxtb	r2, r3
 800404e:	68fb      	ldr	r3, [r7, #12]
 8004050:	681b      	ldr	r3, [r3, #0]
 8004052:	611a      	str	r2, [r3, #16]
 8004054:	683b      	ldr	r3, [r7, #0]
 8004056:	687a      	ldr	r2, [r7, #4]
 8004058:	4930      	ldr	r1, [pc, #192]	@ (800411c <I2C_MasterRequestRead+0x194>)
 800405a:	68f8      	ldr	r0, [r7, #12]
 800405c:	f000 f8dc 	bl	8004218 <I2C_WaitOnMasterAddressFlagUntilTimeout>
 8004060:	4603      	mov	r3, r0
 8004062:	2b00      	cmp	r3, #0
 8004064:	d001      	beq.n	800406a <I2C_MasterRequestRead+0xe2>
 8004066:	2301      	movs	r3, #1
 8004068:	e054      	b.n	8004114 <I2C_MasterRequestRead+0x18c>
 800406a:	897b      	ldrh	r3, [r7, #10]
 800406c:	b2da      	uxtb	r2, r3
 800406e:	68fb      	ldr	r3, [r7, #12]
 8004070:	681b      	ldr	r3, [r3, #0]
 8004072:	611a      	str	r2, [r3, #16]
 8004074:	683b      	ldr	r3, [r7, #0]
 8004076:	687a      	ldr	r2, [r7, #4]
 8004078:	4929      	ldr	r1, [pc, #164]	@ (8004120 <I2C_MasterRequestRead+0x198>)
 800407a:	68f8      	ldr	r0, [r7, #12]
 800407c:	f000 f8cc 	bl	8004218 <I2C_WaitOnMasterAddressFlagUntilTimeout>
 8004080:	4603      	mov	r3, r0
 8004082:	2b00      	cmp	r3, #0
 8004084:	d001      	beq.n	800408a <I2C_MasterRequestRead+0x102>
 8004086:	2301      	movs	r3, #1
 8004088:	e044      	b.n	8004114 <I2C_MasterRequestRead+0x18c>
 800408a:	2300      	movs	r3, #0
 800408c:	613b      	str	r3, [r7, #16]
 800408e:	68fb      	ldr	r3, [r7, #12]
 8004090:	681b      	ldr	r3, [r3, #0]
 8004092:	695b      	ldr	r3, [r3, #20]
 8004094:	613b      	str	r3, [r7, #16]
 8004096:	68fb      	ldr	r3, [r7, #12]
 8004098:	681b      	ldr	r3, [r3, #0]
 800409a:	699b      	ldr	r3, [r3, #24]
 800409c:	613b      	str	r3, [r7, #16]
 800409e:	693b      	ldr	r3, [r7, #16]
 80040a0:	68fb      	ldr	r3, [r7, #12]
 80040a2:	681b      	ldr	r3, [r3, #0]
 80040a4:	681a      	ldr	r2, [r3, #0]
 80040a6:	68fb      	ldr	r3, [r7, #12]
 80040a8:	681b      	ldr	r3, [r3, #0]
 80040aa:	f442 7280 	orr.w	r2, r2, #256	@ 0x100
 80040ae:	601a      	str	r2, [r3, #0]
 80040b0:	683b      	ldr	r3, [r7, #0]
 80040b2:	9300      	str	r3, [sp, #0]
 80040b4:	687b      	ldr	r3, [r7, #4]
 80040b6:	2200      	movs	r2, #0
 80040b8:	f04f 1101 	mov.w	r1, #65537	@ 0x10001
 80040bc:	68f8      	ldr	r0, [r7, #12]
 80040be:	f000 f831 	bl	8004124 <I2C_WaitOnFlagUntilTimeout>
 80040c2:	4603      	mov	r3, r0
 80040c4:	2b00      	cmp	r3, #0
 80040c6:	d00d      	beq.n	80040e4 <I2C_MasterRequestRead+0x15c>
 80040c8:	68fb      	ldr	r3, [r7, #12]
 80040ca:	681b      	ldr	r3, [r3, #0]
 80040cc:	681b      	ldr	r3, [r3, #0]
 80040ce:	f403 7380 	and.w	r3, r3, #256	@ 0x100
 80040d2:	f5b3 7f80 	cmp.w	r3, #256	@ 0x100
 80040d6:	d103      	bne.n	80040e0 <I2C_MasterRequestRead+0x158>
 80040d8:	68fb      	ldr	r3, [r7, #12]
 80040da:	f44f 7200 	mov.w	r2, #512	@ 0x200
 80040de:	641a      	str	r2, [r3, #64]	@ 0x40
 80040e0:	2303      	movs	r3, #3
 80040e2:	e017      	b.n	8004114 <I2C_MasterRequestRead+0x18c>
 80040e4:	897b      	ldrh	r3, [r7, #10]
 80040e6:	11db      	asrs	r3, r3, #7
 80040e8:	b2db      	uxtb	r3, r3
 80040ea:	f003 0306 	and.w	r3, r3, #6
 80040ee:	b2db      	uxtb	r3, r3
 80040f0:	f063 030e 	orn	r3, r3, #14
 80040f4:	b2da      	uxtb	r2, r3
 80040f6:	68fb      	ldr	r3, [r7, #12]
 80040f8:	681b      	ldr	r3, [r3, #0]
 80040fa:	611a      	str	r2, [r3, #16]
 80040fc:	683b      	ldr	r3, [r7, #0]
 80040fe:	687a      	ldr	r2, [r7, #4]
 8004100:	4907      	ldr	r1, [pc, #28]	@ (8004120 <I2C_MasterRequestRead+0x198>)
 8004102:	68f8      	ldr	r0, [r7, #12]
 8004104:	f000 f888 	bl	8004218 <I2C_WaitOnMasterAddressFlagUntilTimeout>
 8004108:	4603      	mov	r3, r0
 800410a:	2b00      	cmp	r3, #0
 800410c:	d001      	beq.n	8004112 <I2C_MasterRequestRead+0x18a>
 800410e:	2301      	movs	r3, #1
 8004110:	e000      	b.n	8004114 <I2C_MasterRequestRead+0x18c>
 8004112:	2300      	movs	r3, #0
 8004114:	4618      	mov	r0, r3
 8004116:	3718      	adds	r7, #24
 8004118:	46bd      	mov	sp, r7
 800411a:	bd80      	pop	{r7, pc}
 800411c:	00010008 	.word	0x00010008
 8004120:	00010002 	.word	0x00010002

08004124 <I2C_WaitOnFlagUntilTimeout>:
 8004124:	b580      	push	{r7, lr}
 8004126:	b084      	sub	sp, #16
 8004128:	af00      	add	r7, sp, #0
 800412a:	60f8      	str	r0, [r7, #12]
 800412c:	60b9      	str	r1, [r7, #8]
 800412e:	603b      	str	r3, [r7, #0]
 8004130:	4613      	mov	r3, r2
 8004132:	71fb      	strb	r3, [r7, #7]
 8004134:	e048      	b.n	80041c8 <I2C_WaitOnFlagUntilTimeout+0xa4>
 8004136:	683b      	ldr	r3, [r7, #0]
 8004138:	f1b3 3fff 	cmp.w	r3, #4294967295
 800413c:	d044      	beq.n	80041c8 <I2C_WaitOnFlagUntilTimeout+0xa4>
 800413e:	f7fe f8f7 	bl	8002330 <HAL_GetTick>
 8004142:	4602      	mov	r2, r0
 8004144:	69bb      	ldr	r3, [r7, #24]
 8004146:	1ad3      	subs	r3, r2, r3
 8004148:	683a      	ldr	r2, [r7, #0]
 800414a:	429a      	cmp	r2, r3
 800414c:	d302      	bcc.n	8004154 <I2C_WaitOnFlagUntilTimeout+0x30>
 800414e:	683b      	ldr	r3, [r7, #0]
 8004150:	2b00      	cmp	r3, #0
 8004152:	d139      	bne.n	80041c8 <I2C_WaitOnFlagUntilTimeout+0xa4>
 8004154:	68bb      	ldr	r3, [r7, #8]
 8004156:	0c1b      	lsrs	r3, r3, #16
 8004158:	b2db      	uxtb	r3, r3
 800415a:	2b01      	cmp	r3, #1
 800415c:	d10d      	bne.n	800417a <I2C_WaitOnFlagUntilTimeout+0x56>
 800415e:	68fb      	ldr	r3, [r7, #12]
 8004160:	681b      	ldr	r3, [r3, #0]
 8004162:	695b      	ldr	r3, [r3, #20]
 8004164:	43da      	mvns	r2, r3
 8004166:	68bb      	ldr	r3, [r7, #8]
 8004168:	4013      	ands	r3, r2
 800416a:	b29b      	uxth	r3, r3
 800416c:	2b00      	cmp	r3, #0
 800416e:	bf0c      	ite	eq
 8004170:	2301      	moveq	r3, #1
 8004172:	2300      	movne	r3, #0
 8004174:	b2db      	uxtb	r3, r3
 8004176:	461a      	mov	r2, r3
 8004178:	e00c      	b.n	8004194 <I2C_WaitOnFlagUntilTimeout+0x70>
 800417a:	68fb      	ldr	r3, [r7, #12]
 800417c:	681b      	ldr	r3, [r3, #0]
 800417e:	699b      	ldr	r3, [r3, #24]
 8004180:	43da      	mvns	r2, r3
 8004182:	68bb      	ldr	r3, [r7, #8]
 8004184:	4013      	ands	r3, r2
 8004186:	b29b      	uxth	r3, r3
 8004188:	2b00      	cmp	r3, #0
 800418a:	bf0c      	ite	eq
 800418c:	2301      	moveq	r3, #1
 800418e:	2300      	movne	r3, #0
 8004190:	b2db      	uxtb	r3, r3
 8004192:	461a      	mov	r2, r3
 8004194:	79fb      	ldrb	r3, [r7, #7]
 8004196:	429a      	cmp	r2, r3
 8004198:	d116      	bne.n	80041c8 <I2C_WaitOnFlagUntilTimeout+0xa4>
 800419a:	68fb      	ldr	r3, [r7, #12]
 800419c:	2200      	movs	r2, #0
 800419e:	631a      	str	r2, [r3, #48]	@ 0x30
 80041a0:	68fb      	ldr	r3, [r7, #12]
 80041a2:	2220      	movs	r2, #32
 80041a4:	f883 203d 	strb.w	r2, [r3, #61]	@ 0x3d
 80041a8:	68fb      	ldr	r3, [r7, #12]
 80041aa:	2200      	movs	r2, #0
 80041ac:	f883 203e 	strb.w	r2, [r3, #62]	@ 0x3e
 80041b0:	68fb      	ldr	r3, [r7, #12]
 80041b2:	6c1b      	ldr	r3, [r3, #64]	@ 0x40
 80041b4:	f043 0220 	orr.w	r2, r3, #32
 80041b8:	68fb      	ldr	r3, [r7, #12]
 80041ba:	641a      	str	r2, [r3, #64]	@ 0x40
 80041bc:	68fb      	ldr	r3, [r7, #12]
 80041be:	2200      	movs	r2, #0
 80041c0:	f883 203c 	strb.w	r2, [r3, #60]	@ 0x3c
 80041c4:	2301      	movs	r3, #1
 80041c6:	e023      	b.n	8004210 <I2C_WaitOnFlagUntilTimeout+0xec>
 80041c8:	68bb      	ldr	r3, [r7, #8]
 80041ca:	0c1b      	lsrs	r3, r3, #16
 80041cc:	b2db      	uxtb	r3, r3
 80041ce:	2b01      	cmp	r3, #1
 80041d0:	d10d      	bne.n	80041ee <I2C_WaitOnFlagUntilTimeout+0xca>
 80041d2:	68fb      	ldr	r3, [r7, #12]
 80041d4:	681b      	ldr	r3, [r3, #0]
 80041d6:	695b      	ldr	r3, [r3, #20]
 80041d8:	43da      	mvns	r2, r3
 80041da:	68bb      	ldr	r3, [r7, #8]
 80041dc:	4013      	ands	r3, r2
 80041de:	b29b      	uxth	r3, r3
 80041e0:	2b00      	cmp	r3, #0
 80041e2:	bf0c      	ite	eq
 80041e4:	2301      	moveq	r3, #1
 80041e6:	2300      	movne	r3, #0
 80041e8:	b2db      	uxtb	r3, r3
 80041ea:	461a      	mov	r2, r3
 80041ec:	e00c      	b.n	8004208 <I2C_WaitOnFlagUntilTimeout+0xe4>
 80041ee:	68fb      	ldr	r3, [r7, #12]
 80041f0:	681b      	ldr	r3, [r3, #0]
 80041f2:	699b      	ldr	r3, [r3, #24]
 80041f4:	43da      	mvns	r2, r3
 80041f6:	68bb      	ldr	r3, [r7, #8]
 80041f8:	4013      	ands	r3, r2
 80041fa:	b29b      	uxth	r3, r3
 80041fc:	2b00      	cmp	r3, #0
 80041fe:	bf0c      	ite	eq
 8004200:	2301      	moveq	r3, #1
 8004202:	2300      	movne	r3, #0
 8004204:	b2db      	uxtb	r3, r3
 8004206:	461a      	mov	r2, r3
 8004208:	79fb      	ldrb	r3, [r7, #7]
 800420a:	429a      	cmp	r2, r3
 800420c:	d093      	beq.n	8004136 <I2C_WaitOnFlagUntilTimeout+0x12>
 800420e:	2300      	movs	r3, #0
 8004210:	4618      	mov	r0, r3
 8004212:	3710      	adds	r7, #16
 8004214:	46bd      	mov	sp, r7
 8004216:	bd80      	pop	{r7, pc}

08004218 <I2C_WaitOnMasterAddressFlagUntilTimeout>:
 8004218:	b580      	push	{r7, lr}
 800421a:	b084      	sub	sp, #16
 800421c:	af00      	add	r7, sp, #0
 800421e:	60f8      	str	r0, [r7, #12]
 8004220:	60b9      	str	r1, [r7, #8]
 8004222:	607a      	str	r2, [r7, #4]
 8004224:	603b      	str	r3, [r7, #0]
 8004226:	e071      	b.n	800430c <I2C_WaitOnMasterAddressFlagUntilTimeout+0xf4>
 8004228:	68fb      	ldr	r3, [r7, #12]
 800422a:	681b      	ldr	r3, [r3, #0]
 800422c:	695b      	ldr	r3, [r3, #20]
 800422e:	f403 6380 	and.w	r3, r3, #1024	@ 0x400
 8004232:	f5b3 6f80 	cmp.w	r3, #1024	@ 0x400
 8004236:	d123      	bne.n	8004280 <I2C_WaitOnMasterAddressFlagUntilTimeout+0x68>
 8004238:	68fb      	ldr	r3, [r7, #12]
 800423a:	681b      	ldr	r3, [r3, #0]
 800423c:	681a      	ldr	r2, [r3, #0]
 800423e:	68fb      	ldr	r3, [r7, #12]
 8004240:	681b      	ldr	r3, [r3, #0]
 8004242:	f442 7200 	orr.w	r2, r2, #512	@ 0x200
 8004246:	601a      	str	r2, [r3, #0]
 8004248:	68fb      	ldr	r3, [r7, #12]
 800424a:	681b      	ldr	r3, [r3, #0]
 800424c:	f46f 6280 	mvn.w	r2, #1024	@ 0x400
 8004250:	615a      	str	r2, [r3, #20]
 8004252:	68fb      	ldr	r3, [r7, #12]
 8004254:	2200      	movs	r2, #0
 8004256:	631a      	str	r2, [r3, #48]	@ 0x30
 8004258:	68fb      	ldr	r3, [r7, #12]
 800425a:	2220      	movs	r2, #32
 800425c:	f883 203d 	strb.w	r2, [r3, #61]	@ 0x3d
 8004260:	68fb      	ldr	r3, [r7, #12]
 8004262:	2200      	movs	r2, #0
 8004264:	f883 203e 	strb.w	r2, [r3, #62]	@ 0x3e
 8004268:	68fb      	ldr	r3, [r7, #12]
 800426a:	6c1b      	ldr	r3, [r3, #64]	@ 0x40
 800426c:	f043 0204 	orr.w	r2, r3, #4
 8004270:	68fb      	ldr	r3, [r7, #12]
 8004272:	641a      	str	r2, [r3, #64]	@ 0x40
 8004274:	68fb      	ldr	r3, [r7, #12]
 8004276:	2200      	movs	r2, #0
 8004278:	f883 203c 	strb.w	r2, [r3, #60]	@ 0x3c
 800427c:	2301      	movs	r3, #1
 800427e:	e067      	b.n	8004350 <I2C_WaitOnMasterAddressFlagUntilTimeout+0x138>
 8004280:	687b      	ldr	r3, [r7, #4]
 8004282:	f1b3 3fff 	cmp.w	r3, #4294967295
 8004286:	d041      	beq.n	800430c <I2C_WaitOnMasterAddressFlagUntilTimeout+0xf4>
 8004288:	f7fe f852 	bl	8002330 <HAL_GetTick>
 800428c:	4602      	mov	r2, r0
 800428e:	683b      	ldr	r3, [r7, #0]
 8004290:	1ad3      	subs	r3, r2, r3
 8004292:	687a      	ldr	r2, [r7, #4]
 8004294:	429a      	cmp	r2, r3
 8004296:	d302      	bcc.n	800429e <I2C_WaitOnMasterAddressFlagUntilTimeout+0x86>
 8004298:	687b      	ldr	r3, [r7, #4]
 800429a:	2b00      	cmp	r3, #0
 800429c:	d136      	bne.n	800430c <I2C_WaitOnMasterAddressFlagUntilTimeout+0xf4>
 800429e:	68bb      	ldr	r3, [r7, #8]
 80042a0:	0c1b      	lsrs	r3, r3, #16
 80042a2:	b2db      	uxtb	r3, r3
 80042a4:	2b01      	cmp	r3, #1
 80042a6:	d10c      	bne.n	80042c2 <I2C_WaitOnMasterAddressFlagUntilTimeout+0xaa>
 80042a8:	68fb      	ldr	r3, [r7, #12]
 80042aa:	681b      	ldr	r3, [r3, #0]
 80042ac:	695b      	ldr	r3, [r3, #20]
 80042ae:	43da      	mvns	r2, r3
 80042b0:	68bb      	ldr	r3, [r7, #8]
 80042b2:	4013      	ands	r3, r2
 80042b4:	b29b      	uxth	r3, r3
 80042b6:	2b00      	cmp	r3, #0
 80042b8:	bf14      	ite	ne
 80042ba:	2301      	movne	r3, #1
 80042bc:	2300      	moveq	r3, #0
 80042be:	b2db      	uxtb	r3, r3
 80042c0:	e00b      	b.n	80042da <I2C_WaitOnMasterAddressFlagUntilTimeout+0xc2>
 80042c2:	68fb      	ldr	r3, [r7, #12]
 80042c4:	681b      	ldr	r3, [r3, #0]
 80042c6:	699b      	ldr	r3, [r3, #24]
 80042c8:	43da      	mvns	r2, r3
 80042ca:	68bb      	ldr	r3, [r7, #8]
 80042cc:	4013      	ands	r3, r2
 80042ce:	b29b      	uxth	r3, r3
 80042d0:	2b00      	cmp	r3, #0
 80042d2:	bf14      	ite	ne
 80042d4:	2301      	movne	r3, #1
 80042d6:	2300      	moveq	r3, #0
 80042d8:	b2db      	uxtb	r3, r3
 80042da:	2b00      	cmp	r3, #0
 80042dc:	d016      	beq.n	800430c <I2C_WaitOnMasterAddressFlagUntilTimeout+0xf4>
 80042de:	68fb      	ldr	r3, [r7, #12]
 80042e0:	2200      	movs	r2, #0
 80042e2:	631a      	str	r2, [r3, #48]	@ 0x30
 80042e4:	68fb      	ldr	r3, [r7, #12]
 80042e6:	2220      	movs	r2, #32
 80042e8:	f883 203d 	strb.w	r2, [r3, #61]	@ 0x3d
 80042ec:	68fb      	ldr	r3, [r7, #12]
 80042ee:	2200      	movs	r2, #0
 80042f0:	f883 203e 	strb.w	r2, [r3, #62]	@ 0x3e
 80042f4:	68fb      	ldr	r3, [r7, #12]
 80042f6:	6c1b      	ldr	r3, [r3, #64]	@ 0x40
 80042f8:	f043 0220 	orr.w	r2, r3, #32
 80042fc:	68fb      	ldr	r3, [r7, #12]
 80042fe:	641a      	str	r2, [r3, #64]	@ 0x40
 8004300:	68fb      	ldr	r3, [r7, #12]
 8004302:	2200      	movs	r2, #0
 8004304:	f883 203c 	strb.w	r2, [r3, #60]	@ 0x3c
 8004308:	2301      	movs	r3, #1
 800430a:	e021      	b.n	8004350 <I2C_WaitOnMasterAddressFlagUntilTimeout+0x138>
 800430c:	68bb      	ldr	r3, [r7, #8]
 800430e:	0c1b      	lsrs	r3, r3, #16
 8004310:	b2db      	uxtb	r3, r3
 8004312:	2b01      	cmp	r3, #1
 8004314:	d10c      	bne.n	8004330 <I2C_WaitOnMasterAddressFlagUntilTimeout+0x118>
 8004316:	68fb      	ldr	r3, [r7, #12]
 8004318:	681b      	ldr	r3, [r3, #0]
 800431a:	695b      	ldr	r3, [r3, #20]
 800431c:	43da      	mvns	r2, r3
 800431e:	68bb      	ldr	r3, [r7, #8]
 8004320:	4013      	ands	r3, r2
 8004322:	b29b      	uxth	r3, r3
 8004324:	2b00      	cmp	r3, #0
 8004326:	bf14      	ite	ne
 8004328:	2301      	movne	r3, #1
 800432a:	2300      	moveq	r3, #0
 800432c:	b2db      	uxtb	r3, r3
 800432e:	e00b      	b.n	8004348 <I2C_WaitOnMasterAddressFlagUntilTimeout+0x130>
 8004330:	68fb      	ldr	r3, [r7, #12]
 8004332:	681b      	ldr	r3, [r3, #0]
 8004334:	699b      	ldr	r3, [r3, #24]
 8004336:	43da      	mvns	r2, r3
 8004338:	68bb      	ldr	r3, [r7, #8]
 800433a:	4013      	ands	r3, r2
 800433c:	b29b      	uxth	r3, r3
 800433e:	2b00      	cmp	r3, #0
 8004340:	bf14      	ite	ne
 8004342:	2301      	movne	r3, #1
 8004344:	2300      	moveq	r3, #0
 8004346:	b2db      	uxtb	r3, r3
 8004348:	2b00      	cmp	r3, #0
 800434a:	f47f af6d 	bne.w	8004228 <I2C_WaitOnMasterAddressFlagUntilTimeout+0x10>
 800434e:	2300      	movs	r3, #0
 8004350:	4618      	mov	r0, r3
 8004352:	3710      	adds	r7, #16
 8004354:	46bd      	mov	sp, r7
 8004356:	bd80      	pop	{r7, pc}

08004358 <I2C_WaitOnTXEFlagUntilTimeout>:
 8004358:	b580      	push	{r7, lr}
 800435a:	b084      	sub	sp, #16
 800435c:	af00      	add	r7, sp, #0
 800435e:	60f8      	str	r0, [r7, #12]
 8004360:	60b9      	str	r1, [r7, #8]
 8004362:	607a      	str	r2, [r7, #4]
 8004364:	e034      	b.n	80043d0 <I2C_WaitOnTXEFlagUntilTimeout+0x78>
 8004366:	68f8      	ldr	r0, [r7, #12]
 8004368:	f000 f8e3 	bl	8004532 <I2C_IsAcknowledgeFailed>
 800436c:	4603      	mov	r3, r0
 800436e:	2b00      	cmp	r3, #0
 8004370:	d001      	beq.n	8004376 <I2C_WaitOnTXEFlagUntilTimeout+0x1e>
 8004372:	2301      	movs	r3, #1
 8004374:	e034      	b.n	80043e0 <I2C_WaitOnTXEFlagUntilTimeout+0x88>
 8004376:	68bb      	ldr	r3, [r7, #8]
 8004378:	f1b3 3fff 	cmp.w	r3, #4294967295
 800437c:	d028      	beq.n	80043d0 <I2C_WaitOnTXEFlagUntilTimeout+0x78>
 800437e:	f7fd ffd7 	bl	8002330 <HAL_GetTick>
 8004382:	4602      	mov	r2, r0
 8004384:	687b      	ldr	r3, [r7, #4]
 8004386:	1ad3      	subs	r3, r2, r3
 8004388:	68ba      	ldr	r2, [r7, #8]
 800438a:	429a      	cmp	r2, r3
 800438c:	d302      	bcc.n	8004394 <I2C_WaitOnTXEFlagUntilTimeout+0x3c>
 800438e:	68bb      	ldr	r3, [r7, #8]
 8004390:	2b00      	cmp	r3, #0
 8004392:	d11d      	bne.n	80043d0 <I2C_WaitOnTXEFlagUntilTimeout+0x78>
 8004394:	68fb      	ldr	r3, [r7, #12]
 8004396:	681b      	ldr	r3, [r3, #0]
 8004398:	695b      	ldr	r3, [r3, #20]
 800439a:	f003 0380 	and.w	r3, r3, #128	@ 0x80
 800439e:	2b80      	cmp	r3, #128	@ 0x80
 80043a0:	d016      	beq.n	80043d0 <I2C_WaitOnTXEFlagUntilTimeout+0x78>
 80043a2:	68fb      	ldr	r3, [r7, #12]
 80043a4:	2200      	movs	r2, #0
 80043a6:	631a      	str	r2, [r3, #48]	@ 0x30
 80043a8:	68fb      	ldr	r3, [r7, #12]
 80043aa:	2220      	movs	r2, #32
 80043ac:	f883 203d 	strb.w	r2, [r3, #61]	@ 0x3d
 80043b0:	68fb      	ldr	r3, [r7, #12]
 80043b2:	2200      	movs	r2, #0
 80043b4:	f883 203e 	strb.w	r2, [r3, #62]	@ 0x3e
 80043b8:	68fb      	ldr	r3, [r7, #12]
 80043ba:	6c1b      	ldr	r3, [r3, #64]	@ 0x40
 80043bc:	f043 0220 	orr.w	r2, r3, #32
 80043c0:	68fb      	ldr	r3, [r7, #12]
 80043c2:	641a      	str	r2, [r3, #64]	@ 0x40
 80043c4:	68fb      	ldr	r3, [r7, #12]
 80043c6:	2200      	movs	r2, #0
 80043c8:	f883 203c 	strb.w	r2, [r3, #60]	@ 0x3c
 80043cc:	2301      	movs	r3, #1
 80043ce:	e007      	b.n	80043e0 <I2C_WaitOnTXEFlagUntilTimeout+0x88>
 80043d0:	68fb      	ldr	r3, [r7, #12]
 80043d2:	681b      	ldr	r3, [r3, #0]
 80043d4:	695b      	ldr	r3, [r3, #20]
 80043d6:	f003 0380 	and.w	r3, r3, #128	@ 0x80
 80043da:	2b80      	cmp	r3, #128	@ 0x80
 80043dc:	d1c3      	bne.n	8004366 <I2C_WaitOnTXEFlagUntilTimeout+0xe>
 80043de:	2300      	movs	r3, #0
 80043e0:	4618      	mov	r0, r3
 80043e2:	3710      	adds	r7, #16
 80043e4:	46bd      	mov	sp, r7
 80043e6:	bd80      	pop	{r7, pc}

080043e8 <I2C_WaitOnBTFFlagUntilTimeout>:
 80043e8:	b580      	push	{r7, lr}
 80043ea:	b084      	sub	sp, #16
 80043ec:	af00      	add	r7, sp, #0
 80043ee:	60f8      	str	r0, [r7, #12]
 80043f0:	60b9      	str	r1, [r7, #8]
 80043f2:	607a      	str	r2, [r7, #4]
 80043f4:	e034      	b.n	8004460 <I2C_WaitOnBTFFlagUntilTimeout+0x78>
 80043f6:	68f8      	ldr	r0, [r7, #12]
 80043f8:	f000 f89b 	bl	8004532 <I2C_IsAcknowledgeFailed>
 80043fc:	4603      	mov	r3, r0
 80043fe:	2b00      	cmp	r3, #0
 8004400:	d001      	beq.n	8004406 <I2C_WaitOnBTFFlagUntilTimeout+0x1e>
 8004402:	2301      	movs	r3, #1
 8004404:	e034      	b.n	8004470 <I2C_WaitOnBTFFlagUntilTimeout+0x88>
 8004406:	68bb      	ldr	r3, [r7, #8]
 8004408:	f1b3 3fff 	cmp.w	r3, #4294967295
 800440c:	d028      	beq.n	8004460 <I2C_WaitOnBTFFlagUntilTimeout+0x78>
 800440e:	f7fd ff8f 	bl	8002330 <HAL_GetTick>
 8004412:	4602      	mov	r2, r0
 8004414:	687b      	ldr	r3, [r7, #4]
 8004416:	1ad3      	subs	r3, r2, r3
 8004418:	68ba      	ldr	r2, [r7, #8]
 800441a:	429a      	cmp	r2, r3
 800441c:	d302      	bcc.n	8004424 <I2C_WaitOnBTFFlagUntilTimeout+0x3c>
 800441e:	68bb      	ldr	r3, [r7, #8]
 8004420:	2b00      	cmp	r3, #0
 8004422:	d11d      	bne.n	8004460 <I2C_WaitOnBTFFlagUntilTimeout+0x78>
 8004424:	68fb      	ldr	r3, [r7, #12]
 8004426:	681b      	ldr	r3, [r3, #0]
 8004428:	695b      	ldr	r3, [r3, #20]
 800442a:	f003 0304 	and.w	r3, r3, #4
 800442e:	2b04      	cmp	r3, #4
 8004430:	d016      	beq.n	8004460 <I2C_WaitOnBTFFlagUntilTimeout+0x78>
 8004432:	68fb      	ldr	r3, [r7, #12]
 8004434:	2200      	movs	r2, #0
 8004436:	631a      	str	r2, [r3, #48]	@ 0x30
 8004438:	68fb      	ldr	r3, [r7, #12]
 800443a:	2220      	movs	r2, #32
 800443c:	f883 203d 	strb.w	r2, [r3, #61]	@ 0x3d
 8004440:	68fb      	ldr	r3, [r7, #12]
 8004442:	2200      	movs	r2, #0
 8004444:	f883 203e 	strb.w	r2, [r3, #62]	@ 0x3e
 8004448:	68fb      	ldr	r3, [r7, #12]
 800444a:	6c1b      	ldr	r3, [r3, #64]	@ 0x40
 800444c:	f043 0220 	orr.w	r2, r3, #32
 8004450:	68fb      	ldr	r3, [r7, #12]
 8004452:	641a      	str	r2, [r3, #64]	@ 0x40
 8004454:	68fb      	ldr	r3, [r7, #12]
 8004456:	2200      	movs	r2, #0
 8004458:	f883 203c 	strb.w	r2, [r3, #60]	@ 0x3c
 800445c:	2301      	movs	r3, #1
 800445e:	e007      	b.n	8004470 <I2C_WaitOnBTFFlagUntilTimeout+0x88>
 8004460:	68fb      	ldr	r3, [r7, #12]
 8004462:	681b      	ldr	r3, [r3, #0]
 8004464:	695b      	ldr	r3, [r3, #20]
 8004466:	f003 0304 	and.w	r3, r3, #4
 800446a:	2b04      	cmp	r3, #4
 800446c:	d1c3      	bne.n	80043f6 <I2C_WaitOnBTFFlagUntilTimeout+0xe>
 800446e:	2300      	movs	r3, #0
 8004470:	4618      	mov	r0, r3
 8004472:	3710      	adds	r7, #16
 8004474:	46bd      	mov	sp, r7
 8004476:	bd80      	pop	{r7, pc}

08004478 <I2C_WaitOnRXNEFlagUntilTimeout>:
 8004478:	b580      	push	{r7, lr}
 800447a:	b084      	sub	sp, #16
 800447c:	af00      	add	r7, sp, #0
 800447e:	60f8      	str	r0, [r7, #12]
 8004480:	60b9      	str	r1, [r7, #8]
 8004482:	607a      	str	r2, [r7, #4]
 8004484:	e049      	b.n	800451a <I2C_WaitOnRXNEFlagUntilTimeout+0xa2>
 8004486:	68fb      	ldr	r3, [r7, #12]
 8004488:	681b      	ldr	r3, [r3, #0]
 800448a:	695b      	ldr	r3, [r3, #20]
 800448c:	f003 0310 	and.w	r3, r3, #16
 8004490:	2b10      	cmp	r3, #16
 8004492:	d119      	bne.n	80044c8 <I2C_WaitOnRXNEFlagUntilTimeout+0x50>
 8004494:	68fb      	ldr	r3, [r7, #12]
 8004496:	681b      	ldr	r3, [r3, #0]
 8004498:	f06f 0210 	mvn.w	r2, #16
 800449c:	615a      	str	r2, [r3, #20]
 800449e:	68fb      	ldr	r3, [r7, #12]
 80044a0:	2200      	movs	r2, #0
 80044a2:	631a      	str	r2, [r3, #48]	@ 0x30
 80044a4:	68fb      	ldr	r3, [r7, #12]
 80044a6:	2220      	movs	r2, #32
 80044a8:	f883 203d 	strb.w	r2, [r3, #61]	@ 0x3d
 80044ac:	68fb      	ldr	r3, [r7, #12]
 80044ae:	2200      	movs	r2, #0
 80044b0:	f883 203e 	strb.w	r2, [r3, #62]	@ 0x3e
 80044b4:	68fb      	ldr	r3, [r7, #12]
 80044b6:	6c1a      	ldr	r2, [r3, #64]	@ 0x40
 80044b8:	68fb      	ldr	r3, [r7, #12]
 80044ba:	641a      	str	r2, [r3, #64]	@ 0x40
 80044bc:	68fb      	ldr	r3, [r7, #12]
 80044be:	2200      	movs	r2, #0
 80044c0:	f883 203c 	strb.w	r2, [r3, #60]	@ 0x3c
 80044c4:	2301      	movs	r3, #1
 80044c6:	e030      	b.n	800452a <I2C_WaitOnRXNEFlagUntilTimeout+0xb2>
 80044c8:	f7fd ff32 	bl	8002330 <HAL_GetTick>
 80044cc:	4602      	mov	r2, r0
 80044ce:	687b      	ldr	r3, [r7, #4]
 80044d0:	1ad3      	subs	r3, r2, r3
 80044d2:	68ba      	ldr	r2, [r7, #8]
 80044d4:	429a      	cmp	r2, r3
 80044d6:	d302      	bcc.n	80044de <I2C_WaitOnRXNEFlagUntilTimeout+0x66>
 80044d8:	68bb      	ldr	r3, [r7, #8]
 80044da:	2b00      	cmp	r3, #0
 80044dc:	d11d      	bne.n	800451a <I2C_WaitOnRXNEFlagUntilTimeout+0xa2>
 80044de:	68fb      	ldr	r3, [r7, #12]
 80044e0:	681b      	ldr	r3, [r3, #0]
 80044e2:	695b      	ldr	r3, [r3, #20]
 80044e4:	f003 0340 	and.w	r3, r3, #64	@ 0x40
 80044e8:	2b40      	cmp	r3, #64	@ 0x40
 80044ea:	d016      	beq.n	800451a <I2C_WaitOnRXNEFlagUntilTimeout+0xa2>
 80044ec:	68fb      	ldr	r3, [r7, #12]
 80044ee:	2200      	movs	r2, #0
 80044f0:	631a      	str	r2, [r3, #48]	@ 0x30
 80044f2:	68fb      	ldr	r3, [r7, #12]
 80044f4:	2220      	movs	r2, #32
 80044f6:	f883 203d 	strb.w	r2, [r3, #61]	@ 0x3d
 80044fa:	68fb      	ldr	r3, [r7, #12]
 80044fc:	2200      	movs	r2, #0
 80044fe:	f883 203e 	strb.w	r2, [r3, #62]	@ 0x3e
 8004502:	68fb      	ldr	r3, [r7, #12]
 8004504:	6c1b      	ldr	r3, [r3, #64]	@ 0x40
 8004506:	f043 0220 	orr.w	r2, r3, #32
 800450a:	68fb      	ldr	r3, [r7, #12]
 800450c:	641a      	str	r2, [r3, #64]	@ 0x40
 800450e:	68fb      	ldr	r3, [r7, #12]
 8004510:	2200      	movs	r2, #0
 8004512:	f883 203c 	strb.w	r2, [r3, #60]	@ 0x3c
 8004516:	2301      	movs	r3, #1
 8004518:	e007      	b.n	800452a <I2C_WaitOnRXNEFlagUntilTimeout+0xb2>
 800451a:	68fb      	ldr	r3, [r7, #12]
 800451c:	681b      	ldr	r3, [r3, #0]
 800451e:	695b      	ldr	r3, [r3, #20]
 8004520:	f003 0340 	and.w	r3, r3, #64	@ 0x40
 8004524:	2b40      	cmp	r3, #64	@ 0x40
 8004526:	d1ae      	bne.n	8004486 <I2C_WaitOnRXNEFlagUntilTimeout+0xe>
 8004528:	2300      	movs	r3, #0
 800452a:	4618      	mov	r0, r3
 800452c:	3710      	adds	r7, #16
 800452e:	46bd      	mov	sp, r7
 8004530:	bd80      	pop	{r7, pc}

08004532 <I2C_IsAcknowledgeFailed>:
 8004532:	b480      	push	{r7}
 8004534:	b083      	sub	sp, #12
 8004536:	af00      	add	r7, sp, #0
 8004538:	6078      	str	r0, [r7, #4]
 800453a:	687b      	ldr	r3, [r7, #4]
 800453c:	681b      	ldr	r3, [r3, #0]
 800453e:	695b      	ldr	r3, [r3, #20]
 8004540:	f403 6380 	and.w	r3, r3, #1024	@ 0x400
 8004544:	f5b3 6f80 	cmp.w	r3, #1024	@ 0x400
 8004548:	d11b      	bne.n	8004582 <I2C_IsAcknowledgeFailed+0x50>
 800454a:	687b      	ldr	r3, [r7, #4]
 800454c:	681b      	ldr	r3, [r3, #0]
 800454e:	f46f 6280 	mvn.w	r2, #1024	@ 0x400
 8004552:	615a      	str	r2, [r3, #20]
 8004554:	687b      	ldr	r3, [r7, #4]
 8004556:	2200      	movs	r2, #0
 8004558:	631a      	str	r2, [r3, #48]	@ 0x30
 800455a:	687b      	ldr	r3, [r7, #4]
 800455c:	2220      	movs	r2, #32
 800455e:	f883 203d 	strb.w	r2, [r3, #61]	@ 0x3d
 8004562:	687b      	ldr	r3, [r7, #4]
 8004564:	2200      	movs	r2, #0
 8004566:	f883 203e 	strb.w	r2, [r3, #62]	@ 0x3e
 800456a:	687b      	ldr	r3, [r7, #4]
 800456c:	6c1b      	ldr	r3, [r3, #64]	@ 0x40
 800456e:	f043 0204 	orr.w	r2, r3, #4
 8004572:	687b      	ldr	r3, [r7, #4]
 8004574:	641a      	str	r2, [r3, #64]	@ 0x40
 8004576:	687b      	ldr	r3, [r7, #4]
 8004578:	2200      	movs	r2, #0
 800457a:	f883 203c 	strb.w	r2, [r3, #60]	@ 0x3c
 800457e:	2301      	movs	r3, #1
 8004580:	e000      	b.n	8004584 <I2C_IsAcknowledgeFailed+0x52>
 8004582:	2300      	movs	r3, #0
 8004584:	4618      	mov	r0, r3
 8004586:	370c      	adds	r7, #12
 8004588:	46bd      	mov	sp, r7
 800458a:	bc80      	pop	{r7}
 800458c:	4770      	bx	lr
	...

08004590 <HAL_RCC_OscConfig>:
 8004590:	b580      	push	{r7, lr}
 8004592:	b086      	sub	sp, #24
 8004594:	af00      	add	r7, sp, #0
 8004596:	6078      	str	r0, [r7, #4]
 8004598:	687b      	ldr	r3, [r7, #4]
 800459a:	2b00      	cmp	r3, #0
 800459c:	d101      	bne.n	80045a2 <HAL_RCC_OscConfig+0x12>
 800459e:	2301      	movs	r3, #1
 80045a0:	e272      	b.n	8004a88 <HAL_RCC_OscConfig+0x4f8>
 80045a2:	687b      	ldr	r3, [r7, #4]
 80045a4:	681b      	ldr	r3, [r3, #0]
 80045a6:	f003 0301 	and.w	r3, r3, #1
 80045aa:	2b00      	cmp	r3, #0
 80045ac:	f000 8087 	beq.w	80046be <HAL_RCC_OscConfig+0x12e>
 80045b0:	4b92      	ldr	r3, [pc, #584]	@ (80047fc <HAL_RCC_OscConfig+0x26c>)
 80045b2:	685b      	ldr	r3, [r3, #4]
 80045b4:	f003 030c 	and.w	r3, r3, #12
 80045b8:	2b04      	cmp	r3, #4
 80045ba:	d00c      	beq.n	80045d6 <HAL_RCC_OscConfig+0x46>
 80045bc:	4b8f      	ldr	r3, [pc, #572]	@ (80047fc <HAL_RCC_OscConfig+0x26c>)
 80045be:	685b      	ldr	r3, [r3, #4]
 80045c0:	f003 030c 	and.w	r3, r3, #12
 80045c4:	2b08      	cmp	r3, #8
 80045c6:	d112      	bne.n	80045ee <HAL_RCC_OscConfig+0x5e>
 80045c8:	4b8c      	ldr	r3, [pc, #560]	@ (80047fc <HAL_RCC_OscConfig+0x26c>)
 80045ca:	685b      	ldr	r3, [r3, #4]
 80045cc:	f403 3380 	and.w	r3, r3, #65536	@ 0x10000
 80045d0:	f5b3 3f80 	cmp.w	r3, #65536	@ 0x10000
 80045d4:	d10b      	bne.n	80045ee <HAL_RCC_OscConfig+0x5e>
 80045d6:	4b89      	ldr	r3, [pc, #548]	@ (80047fc <HAL_RCC_OscConfig+0x26c>)
 80045d8:	681b      	ldr	r3, [r3, #0]
 80045da:	f403 3300 	and.w	r3, r3, #131072	@ 0x20000
 80045de:	2b00      	cmp	r3, #0
 80045e0:	d06c      	beq.n	80046bc <HAL_RCC_OscConfig+0x12c>
 80045e2:	687b      	ldr	r3, [r7, #4]
 80045e4:	685b      	ldr	r3, [r3, #4]
 80045e6:	2b00      	cmp	r3, #0
 80045e8:	d168      	bne.n	80046bc <HAL_RCC_OscConfig+0x12c>
 80045ea:	2301      	movs	r3, #1
 80045ec:	e24c      	b.n	8004a88 <HAL_RCC_OscConfig+0x4f8>
 80045ee:	687b      	ldr	r3, [r7, #4]
 80045f0:	685b      	ldr	r3, [r3, #4]
 80045f2:	f5b3 3f80 	cmp.w	r3, #65536	@ 0x10000
 80045f6:	d106      	bne.n	8004606 <HAL_RCC_OscConfig+0x76>
 80045f8:	4b80      	ldr	r3, [pc, #512]	@ (80047fc <HAL_RCC_OscConfig+0x26c>)
 80045fa:	681b      	ldr	r3, [r3, #0]
 80045fc:	4a7f      	ldr	r2, [pc, #508]	@ (80047fc <HAL_RCC_OscConfig+0x26c>)
 80045fe:	f443 3380 	orr.w	r3, r3, #65536	@ 0x10000
 8004602:	6013      	str	r3, [r2, #0]
 8004604:	e02e      	b.n	8004664 <HAL_RCC_OscConfig+0xd4>
 8004606:	687b      	ldr	r3, [r7, #4]
 8004608:	685b      	ldr	r3, [r3, #4]
 800460a:	2b00      	cmp	r3, #0
 800460c:	d10c      	bne.n	8004628 <HAL_RCC_OscConfig+0x98>
 800460e:	4b7b      	ldr	r3, [pc, #492]	@ (80047fc <HAL_RCC_OscConfig+0x26c>)
 8004610:	681b      	ldr	r3, [r3, #0]
 8004612:	4a7a      	ldr	r2, [pc, #488]	@ (80047fc <HAL_RCC_OscConfig+0x26c>)
 8004614:	f423 3380 	bic.w	r3, r3, #65536	@ 0x10000
 8004618:	6013      	str	r3, [r2, #0]
 800461a:	4b78      	ldr	r3, [pc, #480]	@ (80047fc <HAL_RCC_OscConfig+0x26c>)
 800461c:	681b      	ldr	r3, [r3, #0]
 800461e:	4a77      	ldr	r2, [pc, #476]	@ (80047fc <HAL_RCC_OscConfig+0x26c>)
 8004620:	f423 2380 	bic.w	r3, r3, #262144	@ 0x40000
 8004624:	6013      	str	r3, [r2, #0]
 8004626:	e01d      	b.n	8004664 <HAL_RCC_OscConfig+0xd4>
 8004628:	687b      	ldr	r3, [r7, #4]
 800462a:	685b      	ldr	r3, [r3, #4]
 800462c:	f5b3 2fa0 	cmp.w	r3, #327680	@ 0x50000
 8004630:	d10c      	bne.n	800464c <HAL_RCC_OscConfig+0xbc>
 8004632:	4b72      	ldr	r3, [pc, #456]	@ (80047fc <HAL_RCC_OscConfig+0x26c>)
 8004634:	681b      	ldr	r3, [r3, #0]
 8004636:	4a71      	ldr	r2, [pc, #452]	@ (80047fc <HAL_RCC_OscConfig+0x26c>)
 8004638:	f443 2380 	orr.w	r3, r3, #262144	@ 0x40000
 800463c:	6013      	str	r3, [r2, #0]
 800463e:	4b6f      	ldr	r3, [pc, #444]	@ (80047fc <HAL_RCC_OscConfig+0x26c>)
 8004640:	681b      	ldr	r3, [r3, #0]
 8004642:	4a6e      	ldr	r2, [pc, #440]	@ (80047fc <HAL_RCC_OscConfig+0x26c>)
 8004644:	f443 3380 	orr.w	r3, r3, #65536	@ 0x10000
 8004648:	6013      	str	r3, [r2, #0]
 800464a:	e00b      	b.n	8004664 <HAL_RCC_OscConfig+0xd4>
 800464c:	4b6b      	ldr	r3, [pc, #428]	@ (80047fc <HAL_RCC_OscConfig+0x26c>)
 800464e:	681b      	ldr	r3, [r3, #0]
 8004650:	4a6a      	ldr	r2, [pc, #424]	@ (80047fc <HAL_RCC_OscConfig+0x26c>)
 8004652:	f423 3380 	bic.w	r3, r3, #65536	@ 0x10000
 8004656:	6013      	str	r3, [r2, #0]
 8004658:	4b68      	ldr	r3, [pc, #416]	@ (80047fc <HAL_RCC_OscConfig+0x26c>)
 800465a:	681b      	ldr	r3, [r3, #0]
 800465c:	4a67      	ldr	r2, [pc, #412]	@ (80047fc <HAL_RCC_OscConfig+0x26c>)
 800465e:	f423 2380 	bic.w	r3, r3, #262144	@ 0x40000
 8004662:	6013      	str	r3, [r2, #0]
 8004664:	687b      	ldr	r3, [r7, #4]
 8004666:	685b      	ldr	r3, [r3, #4]
 8004668:	2b00      	cmp	r3, #0
 800466a:	d013      	beq.n	8004694 <HAL_RCC_OscConfig+0x104>
 800466c:	f7fd fe60 	bl	8002330 <HAL_GetTick>
 8004670:	6138      	str	r0, [r7, #16]
 8004672:	e008      	b.n	8004686 <HAL_RCC_OscConfig+0xf6>
 8004674:	f7fd fe5c 	bl	8002330 <HAL_GetTick>
 8004678:	4602      	mov	r2, r0
 800467a:	693b      	ldr	r3, [r7, #16]
 800467c:	1ad3      	subs	r3, r2, r3
 800467e:	2b64      	cmp	r3, #100	@ 0x64
 8004680:	d901      	bls.n	8004686 <HAL_RCC_OscConfig+0xf6>
 8004682:	2303      	movs	r3, #3
 8004684:	e200      	b.n	8004a88 <HAL_RCC_OscConfig+0x4f8>
 8004686:	4b5d      	ldr	r3, [pc, #372]	@ (80047fc <HAL_RCC_OscConfig+0x26c>)
 8004688:	681b      	ldr	r3, [r3, #0]
 800468a:	f403 3300 	and.w	r3, r3, #131072	@ 0x20000
 800468e:	2b00      	cmp	r3, #0
 8004690:	d0f0      	beq.n	8004674 <HAL_RCC_OscConfig+0xe4>
 8004692:	e014      	b.n	80046be <HAL_RCC_OscConfig+0x12e>
 8004694:	f7fd fe4c 	bl	8002330 <HAL_GetTick>
 8004698:	6138      	str	r0, [r7, #16]
 800469a:	e008      	b.n	80046ae <HAL_RCC_OscConfig+0x11e>
 800469c:	f7fd fe48 	bl	8002330 <HAL_GetTick>
 80046a0:	4602      	mov	r2, r0
 80046a2:	693b      	ldr	r3, [r7, #16]
 80046a4:	1ad3      	subs	r3, r2, r3
 80046a6:	2b64      	cmp	r3, #100	@ 0x64
 80046a8:	d901      	bls.n	80046ae <HAL_RCC_OscConfig+0x11e>
 80046aa:	2303      	movs	r3, #3
 80046ac:	e1ec      	b.n	8004a88 <HAL_RCC_OscConfig+0x4f8>
 80046ae:	4b53      	ldr	r3, [pc, #332]	@ (80047fc <HAL_RCC_OscConfig+0x26c>)
 80046b0:	681b      	ldr	r3, [r3, #0]
 80046b2:	f403 3300 	and.w	r3, r3, #131072	@ 0x20000
 80046b6:	2b00      	cmp	r3, #0
 80046b8:	d1f0      	bne.n	800469c <HAL_RCC_OscConfig+0x10c>
 80046ba:	e000      	b.n	80046be <HAL_RCC_OscConfig+0x12e>
 80046bc:	bf00      	nop
 80046be:	687b      	ldr	r3, [r7, #4]
 80046c0:	681b      	ldr	r3, [r3, #0]
 80046c2:	f003 0302 	and.w	r3, r3, #2
 80046c6:	2b00      	cmp	r3, #0
 80046c8:	d063      	beq.n	8004792 <HAL_RCC_OscConfig+0x202>
 80046ca:	4b4c      	ldr	r3, [pc, #304]	@ (80047fc <HAL_RCC_OscConfig+0x26c>)
 80046cc:	685b      	ldr	r3, [r3, #4]
 80046ce:	f003 030c 	and.w	r3, r3, #12
 80046d2:	2b00      	cmp	r3, #0
 80046d4:	d00b      	beq.n	80046ee <HAL_RCC_OscConfig+0x15e>
 80046d6:	4b49      	ldr	r3, [pc, #292]	@ (80047fc <HAL_RCC_OscConfig+0x26c>)
 80046d8:	685b      	ldr	r3, [r3, #4]
 80046da:	f003 030c 	and.w	r3, r3, #12
 80046de:	2b08      	cmp	r3, #8
 80046e0:	d11c      	bne.n	800471c <HAL_RCC_OscConfig+0x18c>
 80046e2:	4b46      	ldr	r3, [pc, #280]	@ (80047fc <HAL_RCC_OscConfig+0x26c>)
 80046e4:	685b      	ldr	r3, [r3, #4]
 80046e6:	f403 3380 	and.w	r3, r3, #65536	@ 0x10000
 80046ea:	2b00      	cmp	r3, #0
 80046ec:	d116      	bne.n	800471c <HAL_RCC_OscConfig+0x18c>
 80046ee:	4b43      	ldr	r3, [pc, #268]	@ (80047fc <HAL_RCC_OscConfig+0x26c>)
 80046f0:	681b      	ldr	r3, [r3, #0]
 80046f2:	f003 0302 	and.w	r3, r3, #2
 80046f6:	2b00      	cmp	r3, #0
 80046f8:	d005      	beq.n	8004706 <HAL_RCC_OscConfig+0x176>
 80046fa:	687b      	ldr	r3, [r7, #4]
 80046fc:	691b      	ldr	r3, [r3, #16]
 80046fe:	2b01      	cmp	r3, #1
 8004700:	d001      	beq.n	8004706 <HAL_RCC_OscConfig+0x176>
 8004702:	2301      	movs	r3, #1
 8004704:	e1c0      	b.n	8004a88 <HAL_RCC_OscConfig+0x4f8>
 8004706:	4b3d      	ldr	r3, [pc, #244]	@ (80047fc <HAL_RCC_OscConfig+0x26c>)
 8004708:	681b      	ldr	r3, [r3, #0]
 800470a:	f023 02f8 	bic.w	r2, r3, #248	@ 0xf8
 800470e:	687b      	ldr	r3, [r7, #4]
 8004710:	695b      	ldr	r3, [r3, #20]
 8004712:	00db      	lsls	r3, r3, #3
 8004714:	4939      	ldr	r1, [pc, #228]	@ (80047fc <HAL_RCC_OscConfig+0x26c>)
 8004716:	4313      	orrs	r3, r2
 8004718:	600b      	str	r3, [r1, #0]
 800471a:	e03a      	b.n	8004792 <HAL_RCC_OscConfig+0x202>
 800471c:	687b      	ldr	r3, [r7, #4]
 800471e:	691b      	ldr	r3, [r3, #16]
 8004720:	2b00      	cmp	r3, #0
 8004722:	d020      	beq.n	8004766 <HAL_RCC_OscConfig+0x1d6>
 8004724:	4b36      	ldr	r3, [pc, #216]	@ (8004800 <HAL_RCC_OscConfig+0x270>)
 8004726:	2201      	movs	r2, #1
 8004728:	601a      	str	r2, [r3, #0]
 800472a:	f7fd fe01 	bl	8002330 <HAL_GetTick>
 800472e:	6138      	str	r0, [r7, #16]
 8004730:	e008      	b.n	8004744 <HAL_RCC_OscConfig+0x1b4>
 8004732:	f7fd fdfd 	bl	8002330 <HAL_GetTick>
 8004736:	4602      	mov	r2, r0
 8004738:	693b      	ldr	r3, [r7, #16]
 800473a:	1ad3      	subs	r3, r2, r3
 800473c:	2b02      	cmp	r3, #2
 800473e:	d901      	bls.n	8004744 <HAL_RCC_OscConfig+0x1b4>
 8004740:	2303      	movs	r3, #3
 8004742:	e1a1      	b.n	8004a88 <HAL_RCC_OscConfig+0x4f8>
 8004744:	4b2d      	ldr	r3, [pc, #180]	@ (80047fc <HAL_RCC_OscConfig+0x26c>)
 8004746:	681b      	ldr	r3, [r3, #0]
 8004748:	f003 0302 	and.w	r3, r3, #2
 800474c:	2b00      	cmp	r3, #0
 800474e:	d0f0      	beq.n	8004732 <HAL_RCC_OscConfig+0x1a2>
 8004750:	4b2a      	ldr	r3, [pc, #168]	@ (80047fc <HAL_RCC_OscConfig+0x26c>)
 8004752:	681b      	ldr	r3, [r3, #0]
 8004754:	f023 02f8 	bic.w	r2, r3, #248	@ 0xf8
 8004758:	687b      	ldr	r3, [r7, #4]
 800475a:	695b      	ldr	r3, [r3, #20]
 800475c:	00db      	lsls	r3, r3, #3
 800475e:	4927      	ldr	r1, [pc, #156]	@ (80047fc <HAL_RCC_OscConfig+0x26c>)
 8004760:	4313      	orrs	r3, r2
 8004762:	600b      	str	r3, [r1, #0]
 8004764:	e015      	b.n	8004792 <HAL_RCC_OscConfig+0x202>
 8004766:	4b26      	ldr	r3, [pc, #152]	@ (8004800 <HAL_RCC_OscConfig+0x270>)
 8004768:	2200      	movs	r2, #0
 800476a:	601a      	str	r2, [r3, #0]
 800476c:	f7fd fde0 	bl	8002330 <HAL_GetTick>
 8004770:	6138      	str	r0, [r7, #16]
 8004772:	e008      	b.n	8004786 <HAL_RCC_OscConfig+0x1f6>
 8004774:	f7fd fddc 	bl	8002330 <HAL_GetTick>
 8004778:	4602      	mov	r2, r0
 800477a:	693b      	ldr	r3, [r7, #16]
 800477c:	1ad3      	subs	r3, r2, r3
 800477e:	2b02      	cmp	r3, #2
 8004780:	d901      	bls.n	8004786 <HAL_RCC_OscConfig+0x1f6>
 8004782:	2303      	movs	r3, #3
 8004784:	e180      	b.n	8004a88 <HAL_RCC_OscConfig+0x4f8>
 8004786:	4b1d      	ldr	r3, [pc, #116]	@ (80047fc <HAL_RCC_OscConfig+0x26c>)
 8004788:	681b      	ldr	r3, [r3, #0]
 800478a:	f003 0302 	and.w	r3, r3, #2
 800478e:	2b00      	cmp	r3, #0
 8004790:	d1f0      	bne.n	8004774 <HAL_RCC_OscConfig+0x1e4>
 8004792:	687b      	ldr	r3, [r7, #4]
 8004794:	681b      	ldr	r3, [r3, #0]
 8004796:	f003 0308 	and.w	r3, r3, #8
 800479a:	2b00      	cmp	r3, #0
 800479c:	d03a      	beq.n	8004814 <HAL_RCC_OscConfig+0x284>
 800479e:	687b      	ldr	r3, [r7, #4]
 80047a0:	699b      	ldr	r3, [r3, #24]
 80047a2:	2b00      	cmp	r3, #0
 80047a4:	d019      	beq.n	80047da <HAL_RCC_OscConfig+0x24a>
 80047a6:	4b17      	ldr	r3, [pc, #92]	@ (8004804 <HAL_RCC_OscConfig+0x274>)
 80047a8:	2201      	movs	r2, #1
 80047aa:	601a      	str	r2, [r3, #0]
 80047ac:	f7fd fdc0 	bl	8002330 <HAL_GetTick>
 80047b0:	6138      	str	r0, [r7, #16]
 80047b2:	e008      	b.n	80047c6 <HAL_RCC_OscConfig+0x236>
 80047b4:	f7fd fdbc 	bl	8002330 <HAL_GetTick>
 80047b8:	4602      	mov	r2, r0
 80047ba:	693b      	ldr	r3, [r7, #16]
 80047bc:	1ad3      	subs	r3, r2, r3
 80047be:	2b02      	cmp	r3, #2
 80047c0:	d901      	bls.n	80047c6 <HAL_RCC_OscConfig+0x236>
 80047c2:	2303      	movs	r3, #3
 80047c4:	e160      	b.n	8004a88 <HAL_RCC_OscConfig+0x4f8>
 80047c6:	4b0d      	ldr	r3, [pc, #52]	@ (80047fc <HAL_RCC_OscConfig+0x26c>)
 80047c8:	6a5b      	ldr	r3, [r3, #36]	@ 0x24
 80047ca:	f003 0302 	and.w	r3, r3, #2
 80047ce:	2b00      	cmp	r3, #0
 80047d0:	d0f0      	beq.n	80047b4 <HAL_RCC_OscConfig+0x224>
 80047d2:	2001      	movs	r0, #1
 80047d4:	f000 face 	bl	8004d74 <RCC_Delay>
 80047d8:	e01c      	b.n	8004814 <HAL_RCC_OscConfig+0x284>
 80047da:	4b0a      	ldr	r3, [pc, #40]	@ (8004804 <HAL_RCC_OscConfig+0x274>)
 80047dc:	2200      	movs	r2, #0
 80047de:	601a      	str	r2, [r3, #0]
 80047e0:	f7fd fda6 	bl	8002330 <HAL_GetTick>
 80047e4:	6138      	str	r0, [r7, #16]
 80047e6:	e00f      	b.n	8004808 <HAL_RCC_OscConfig+0x278>
 80047e8:	f7fd fda2 	bl	8002330 <HAL_GetTick>
 80047ec:	4602      	mov	r2, r0
 80047ee:	693b      	ldr	r3, [r7, #16]
 80047f0:	1ad3      	subs	r3, r2, r3
 80047f2:	2b02      	cmp	r3, #2
 80047f4:	d908      	bls.n	8004808 <HAL_RCC_OscConfig+0x278>
 80047f6:	2303      	movs	r3, #3
 80047f8:	e146      	b.n	8004a88 <HAL_RCC_OscConfig+0x4f8>
 80047fa:	bf00      	nop
 80047fc:	40021000 	.word	0x40021000
 8004800:	42420000 	.word	0x42420000
 8004804:	42420480 	.word	0x42420480
 8004808:	4b92      	ldr	r3, [pc, #584]	@ (8004a54 <HAL_RCC_OscConfig+0x4c4>)
 800480a:	6a5b      	ldr	r3, [r3, #36]	@ 0x24
 800480c:	f003 0302 	and.w	r3, r3, #2
 8004810:	2b00      	cmp	r3, #0
 8004812:	d1e9      	bne.n	80047e8 <HAL_RCC_OscConfig+0x258>
 8004814:	687b      	ldr	r3, [r7, #4]
 8004816:	681b      	ldr	r3, [r3, #0]
 8004818:	f003 0304 	and.w	r3, r3, #4
 800481c:	2b00      	cmp	r3, #0
 800481e:	f000 80a6 	beq.w	800496e <HAL_RCC_OscConfig+0x3de>
 8004822:	2300      	movs	r3, #0
 8004824:	75fb      	strb	r3, [r7, #23]
 8004826:	4b8b      	ldr	r3, [pc, #556]	@ (8004a54 <HAL_RCC_OscConfig+0x4c4>)
 8004828:	69db      	ldr	r3, [r3, #28]
 800482a:	f003 5380 	and.w	r3, r3, #268435456	@ 0x10000000
 800482e:	2b00      	cmp	r3, #0
 8004830:	d10d      	bne.n	800484e <HAL_RCC_OscConfig+0x2be>
 8004832:	4b88      	ldr	r3, [pc, #544]	@ (8004a54 <HAL_RCC_OscConfig+0x4c4>)
 8004834:	69db      	ldr	r3, [r3, #28]
 8004836:	4a87      	ldr	r2, [pc, #540]	@ (8004a54 <HAL_RCC_OscConfig+0x4c4>)
 8004838:	f043 5380 	orr.w	r3, r3, #268435456	@ 0x10000000
 800483c:	61d3      	str	r3, [r2, #28]
 800483e:	4b85      	ldr	r3, [pc, #532]	@ (8004a54 <HAL_RCC_OscConfig+0x4c4>)
 8004840:	69db      	ldr	r3, [r3, #28]
 8004842:	f003 5380 	and.w	r3, r3, #268435456	@ 0x10000000
 8004846:	60bb      	str	r3, [r7, #8]
 8004848:	68bb      	ldr	r3, [r7, #8]
 800484a:	2301      	movs	r3, #1
 800484c:	75fb      	strb	r3, [r7, #23]
 800484e:	4b82      	ldr	r3, [pc, #520]	@ (8004a58 <HAL_RCC_OscConfig+0x4c8>)
 8004850:	681b      	ldr	r3, [r3, #0]
 8004852:	f403 7380 	and.w	r3, r3, #256	@ 0x100
 8004856:	2b00      	cmp	r3, #0
 8004858:	d118      	bne.n	800488c <HAL_RCC_OscConfig+0x2fc>
 800485a:	4b7f      	ldr	r3, [pc, #508]	@ (8004a58 <HAL_RCC_OscConfig+0x4c8>)
 800485c:	681b      	ldr	r3, [r3, #0]
 800485e:	4a7e      	ldr	r2, [pc, #504]	@ (8004a58 <HAL_RCC_OscConfig+0x4c8>)
 8004860:	f443 7380 	orr.w	r3, r3, #256	@ 0x100
 8004864:	6013      	str	r3, [r2, #0]
 8004866:	f7fd fd63 	bl	8002330 <HAL_GetTick>
 800486a:	6138      	str	r0, [r7, #16]
 800486c:	e008      	b.n	8004880 <HAL_RCC_OscConfig+0x2f0>
 800486e:	f7fd fd5f 	bl	8002330 <HAL_GetTick>
 8004872:	4602      	mov	r2, r0
 8004874:	693b      	ldr	r3, [r7, #16]
 8004876:	1ad3      	subs	r3, r2, r3
 8004878:	2b64      	cmp	r3, #100	@ 0x64
 800487a:	d901      	bls.n	8004880 <HAL_RCC_OscConfig+0x2f0>
 800487c:	2303      	movs	r3, #3
 800487e:	e103      	b.n	8004a88 <HAL_RCC_OscConfig+0x4f8>
 8004880:	4b75      	ldr	r3, [pc, #468]	@ (8004a58 <HAL_RCC_OscConfig+0x4c8>)
 8004882:	681b      	ldr	r3, [r3, #0]
 8004884:	f403 7380 	and.w	r3, r3, #256	@ 0x100
 8004888:	2b00      	cmp	r3, #0
 800488a:	d0f0      	beq.n	800486e <HAL_RCC_OscConfig+0x2de>
 800488c:	687b      	ldr	r3, [r7, #4]
 800488e:	68db      	ldr	r3, [r3, #12]
 8004890:	2b01      	cmp	r3, #1
 8004892:	d106      	bne.n	80048a2 <HAL_RCC_OscConfig+0x312>
 8004894:	4b6f      	ldr	r3, [pc, #444]	@ (8004a54 <HAL_RCC_OscConfig+0x4c4>)
 8004896:	6a1b      	ldr	r3, [r3, #32]
 8004898:	4a6e      	ldr	r2, [pc, #440]	@ (8004a54 <HAL_RCC_OscConfig+0x4c4>)
 800489a:	f043 0301 	orr.w	r3, r3, #1
 800489e:	6213      	str	r3, [r2, #32]
 80048a0:	e02d      	b.n	80048fe <HAL_RCC_OscConfig+0x36e>
 80048a2:	687b      	ldr	r3, [r7, #4]
 80048a4:	68db      	ldr	r3, [r3, #12]
 80048a6:	2b00      	cmp	r3, #0
 80048a8:	d10c      	bne.n	80048c4 <HAL_RCC_OscConfig+0x334>
 80048aa:	4b6a      	ldr	r3, [pc, #424]	@ (8004a54 <HAL_RCC_OscConfig+0x4c4>)
 80048ac:	6a1b      	ldr	r3, [r3, #32]
 80048ae:	4a69      	ldr	r2, [pc, #420]	@ (8004a54 <HAL_RCC_OscConfig+0x4c4>)
 80048b0:	f023 0301 	bic.w	r3, r3, #1
 80048b4:	6213      	str	r3, [r2, #32]
 80048b6:	4b67      	ldr	r3, [pc, #412]	@ (8004a54 <HAL_RCC_OscConfig+0x4c4>)
 80048b8:	6a1b      	ldr	r3, [r3, #32]
 80048ba:	4a66      	ldr	r2, [pc, #408]	@ (8004a54 <HAL_RCC_OscConfig+0x4c4>)
 80048bc:	f023 0304 	bic.w	r3, r3, #4
 80048c0:	6213      	str	r3, [r2, #32]
 80048c2:	e01c      	b.n	80048fe <HAL_RCC_OscConfig+0x36e>
 80048c4:	687b      	ldr	r3, [r7, #4]
 80048c6:	68db      	ldr	r3, [r3, #12]
 80048c8:	2b05      	cmp	r3, #5
 80048ca:	d10c      	bne.n	80048e6 <HAL_RCC_OscConfig+0x356>
 80048cc:	4b61      	ldr	r3, [pc, #388]	@ (8004a54 <HAL_RCC_OscConfig+0x4c4>)
 80048ce:	6a1b      	ldr	r3, [r3, #32]
 80048d0:	4a60      	ldr	r2, [pc, #384]	@ (8004a54 <HAL_RCC_OscConfig+0x4c4>)
 80048d2:	f043 0304 	orr.w	r3, r3, #4
 80048d6:	6213      	str	r3, [r2, #32]
 80048d8:	4b5e      	ldr	r3, [pc, #376]	@ (8004a54 <HAL_RCC_OscConfig+0x4c4>)
 80048da:	6a1b      	ldr	r3, [r3, #32]
 80048dc:	4a5d      	ldr	r2, [pc, #372]	@ (8004a54 <HAL_RCC_OscConfig+0x4c4>)
 80048de:	f043 0301 	orr.w	r3, r3, #1
 80048e2:	6213      	str	r3, [r2, #32]
 80048e4:	e00b      	b.n	80048fe <HAL_RCC_OscConfig+0x36e>
 80048e6:	4b5b      	ldr	r3, [pc, #364]	@ (8004a54 <HAL_RCC_OscConfig+0x4c4>)
 80048e8:	6a1b      	ldr	r3, [r3, #32]
 80048ea:	4a5a      	ldr	r2, [pc, #360]	@ (8004a54 <HAL_RCC_OscConfig+0x4c4>)
 80048ec:	f023 0301 	bic.w	r3, r3, #1
 80048f0:	6213      	str	r3, [r2, #32]
 80048f2:	4b58      	ldr	r3, [pc, #352]	@ (8004a54 <HAL_RCC_OscConfig+0x4c4>)
 80048f4:	6a1b      	ldr	r3, [r3, #32]
 80048f6:	4a57      	ldr	r2, [pc, #348]	@ (8004a54 <HAL_RCC_OscConfig+0x4c4>)
 80048f8:	f023 0304 	bic.w	r3, r3, #4
 80048fc:	6213      	str	r3, [r2, #32]
 80048fe:	687b      	ldr	r3, [r7, #4]
 8004900:	68db      	ldr	r3, [r3, #12]
 8004902:	2b00      	cmp	r3, #0
 8004904:	d015      	beq.n	8004932 <HAL_RCC_OscConfig+0x3a2>
 8004906:	f7fd fd13 	bl	8002330 <HAL_GetTick>
 800490a:	6138      	str	r0, [r7, #16]
 800490c:	e00a      	b.n	8004924 <HAL_RCC_OscConfig+0x394>
 800490e:	f7fd fd0f 	bl	8002330 <HAL_GetTick>
 8004912:	4602      	mov	r2, r0
 8004914:	693b      	ldr	r3, [r7, #16]
 8004916:	1ad3      	subs	r3, r2, r3
 8004918:	f241 3288 	movw	r2, #5000	@ 0x1388
 800491c:	4293      	cmp	r3, r2
 800491e:	d901      	bls.n	8004924 <HAL_RCC_OscConfig+0x394>
 8004920:	2303      	movs	r3, #3
 8004922:	e0b1      	b.n	8004a88 <HAL_RCC_OscConfig+0x4f8>
 8004924:	4b4b      	ldr	r3, [pc, #300]	@ (8004a54 <HAL_RCC_OscConfig+0x4c4>)
 8004926:	6a1b      	ldr	r3, [r3, #32]
 8004928:	f003 0302 	and.w	r3, r3, #2
 800492c:	2b00      	cmp	r3, #0
 800492e:	d0ee      	beq.n	800490e <HAL_RCC_OscConfig+0x37e>
 8004930:	e014      	b.n	800495c <HAL_RCC_OscConfig+0x3cc>
 8004932:	f7fd fcfd 	bl	8002330 <HAL_GetTick>
 8004936:	6138      	str	r0, [r7, #16]
 8004938:	e00a      	b.n	8004950 <HAL_RCC_OscConfig+0x3c0>
 800493a:	f7fd fcf9 	bl	8002330 <HAL_GetTick>
 800493e:	4602      	mov	r2, r0
 8004940:	693b      	ldr	r3, [r7, #16]
 8004942:	1ad3      	subs	r3, r2, r3
 8004944:	f241 3288 	movw	r2, #5000	@ 0x1388
 8004948:	4293      	cmp	r3, r2
 800494a:	d901      	bls.n	8004950 <HAL_RCC_OscConfig+0x3c0>
 800494c:	2303      	movs	r3, #3
 800494e:	e09b      	b.n	8004a88 <HAL_RCC_OscConfig+0x4f8>
 8004950:	4b40      	ldr	r3, [pc, #256]	@ (8004a54 <HAL_RCC_OscConfig+0x4c4>)
 8004952:	6a1b      	ldr	r3, [r3, #32]
 8004954:	f003 0302 	and.w	r3, r3, #2
 8004958:	2b00      	cmp	r3, #0
 800495a:	d1ee      	bne.n	800493a <HAL_RCC_OscConfig+0x3aa>
 800495c:	7dfb      	ldrb	r3, [r7, #23]
 800495e:	2b01      	cmp	r3, #1
 8004960:	d105      	bne.n	800496e <HAL_RCC_OscConfig+0x3de>
 8004962:	4b3c      	ldr	r3, [pc, #240]	@ (8004a54 <HAL_RCC_OscConfig+0x4c4>)
 8004964:	69db      	ldr	r3, [r3, #28]
 8004966:	4a3b      	ldr	r2, [pc, #236]	@ (8004a54 <HAL_RCC_OscConfig+0x4c4>)
 8004968:	f023 5380 	bic.w	r3, r3, #268435456	@ 0x10000000
 800496c:	61d3      	str	r3, [r2, #28]
 800496e:	687b      	ldr	r3, [r7, #4]
 8004970:	69db      	ldr	r3, [r3, #28]
 8004972:	2b00      	cmp	r3, #0
 8004974:	f000 8087 	beq.w	8004a86 <HAL_RCC_OscConfig+0x4f6>
 8004978:	4b36      	ldr	r3, [pc, #216]	@ (8004a54 <HAL_RCC_OscConfig+0x4c4>)
 800497a:	685b      	ldr	r3, [r3, #4]
 800497c:	f003 030c 	and.w	r3, r3, #12
 8004980:	2b08      	cmp	r3, #8
 8004982:	d061      	beq.n	8004a48 <HAL_RCC_OscConfig+0x4b8>
 8004984:	687b      	ldr	r3, [r7, #4]
 8004986:	69db      	ldr	r3, [r3, #28]
 8004988:	2b02      	cmp	r3, #2
 800498a:	d146      	bne.n	8004a1a <HAL_RCC_OscConfig+0x48a>
 800498c:	4b33      	ldr	r3, [pc, #204]	@ (8004a5c <HAL_RCC_OscConfig+0x4cc>)
 800498e:	2200      	movs	r2, #0
 8004990:	601a      	str	r2, [r3, #0]
 8004992:	f7fd fccd 	bl	8002330 <HAL_GetTick>
 8004996:	6138      	str	r0, [r7, #16]
 8004998:	e008      	b.n	80049ac <HAL_RCC_OscConfig+0x41c>
 800499a:	f7fd fcc9 	bl	8002330 <HAL_GetTick>
 800499e:	4602      	mov	r2, r0
 80049a0:	693b      	ldr	r3, [r7, #16]
 80049a2:	1ad3      	subs	r3, r2, r3
 80049a4:	2b02      	cmp	r3, #2
 80049a6:	d901      	bls.n	80049ac <HAL_RCC_OscConfig+0x41c>
 80049a8:	2303      	movs	r3, #3
 80049aa:	e06d      	b.n	8004a88 <HAL_RCC_OscConfig+0x4f8>
 80049ac:	4b29      	ldr	r3, [pc, #164]	@ (8004a54 <HAL_RCC_OscConfig+0x4c4>)
 80049ae:	681b      	ldr	r3, [r3, #0]
 80049b0:	f003 7300 	and.w	r3, r3, #33554432	@ 0x2000000
 80049b4:	2b00      	cmp	r3, #0
 80049b6:	d1f0      	bne.n	800499a <HAL_RCC_OscConfig+0x40a>
 80049b8:	687b      	ldr	r3, [r7, #4]
 80049ba:	6a1b      	ldr	r3, [r3, #32]
 80049bc:	f5b3 3f80 	cmp.w	r3, #65536	@ 0x10000
 80049c0:	d108      	bne.n	80049d4 <HAL_RCC_OscConfig+0x444>
 80049c2:	4b24      	ldr	r3, [pc, #144]	@ (8004a54 <HAL_RCC_OscConfig+0x4c4>)
 80049c4:	685b      	ldr	r3, [r3, #4]
 80049c6:	f423 3200 	bic.w	r2, r3, #131072	@ 0x20000
 80049ca:	687b      	ldr	r3, [r7, #4]
 80049cc:	689b      	ldr	r3, [r3, #8]
 80049ce:	4921      	ldr	r1, [pc, #132]	@ (8004a54 <HAL_RCC_OscConfig+0x4c4>)
 80049d0:	4313      	orrs	r3, r2
 80049d2:	604b      	str	r3, [r1, #4]
 80049d4:	4b1f      	ldr	r3, [pc, #124]	@ (8004a54 <HAL_RCC_OscConfig+0x4c4>)
 80049d6:	685b      	ldr	r3, [r3, #4]
 80049d8:	f423 1274 	bic.w	r2, r3, #3997696	@ 0x3d0000
 80049dc:	687b      	ldr	r3, [r7, #4]
 80049de:	6a19      	ldr	r1, [r3, #32]
 80049e0:	687b      	ldr	r3, [r7, #4]
 80049e2:	6a5b      	ldr	r3, [r3, #36]	@ 0x24
 80049e4:	430b      	orrs	r3, r1
 80049e6:	491b      	ldr	r1, [pc, #108]	@ (8004a54 <HAL_RCC_OscConfig+0x4c4>)
 80049e8:	4313      	orrs	r3, r2
 80049ea:	604b      	str	r3, [r1, #4]
 80049ec:	4b1b      	ldr	r3, [pc, #108]	@ (8004a5c <HAL_RCC_OscConfig+0x4cc>)
 80049ee:	2201      	movs	r2, #1
 80049f0:	601a      	str	r2, [r3, #0]
 80049f2:	f7fd fc9d 	bl	8002330 <HAL_GetTick>
 80049f6:	6138      	str	r0, [r7, #16]
 80049f8:	e008      	b.n	8004a0c <HAL_RCC_OscConfig+0x47c>
 80049fa:	f7fd fc99 	bl	8002330 <HAL_GetTick>
 80049fe:	4602      	mov	r2, r0
 8004a00:	693b      	ldr	r3, [r7, #16]
 8004a02:	1ad3      	subs	r3, r2, r3
 8004a04:	2b02      	cmp	r3, #2
 8004a06:	d901      	bls.n	8004a0c <HAL_RCC_OscConfig+0x47c>
 8004a08:	2303      	movs	r3, #3
 8004a0a:	e03d      	b.n	8004a88 <HAL_RCC_OscConfig+0x4f8>
 8004a0c:	4b11      	ldr	r3, [pc, #68]	@ (8004a54 <HAL_RCC_OscConfig+0x4c4>)
 8004a0e:	681b      	ldr	r3, [r3, #0]
 8004a10:	f003 7300 	and.w	r3, r3, #33554432	@ 0x2000000
 8004a14:	2b00      	cmp	r3, #0
 8004a16:	d0f0      	beq.n	80049fa <HAL_RCC_OscConfig+0x46a>
 8004a18:	e035      	b.n	8004a86 <HAL_RCC_OscConfig+0x4f6>
 8004a1a:	4b10      	ldr	r3, [pc, #64]	@ (8004a5c <HAL_RCC_OscConfig+0x4cc>)
 8004a1c:	2200      	movs	r2, #0
 8004a1e:	601a      	str	r2, [r3, #0]
 8004a20:	f7fd fc86 	bl	8002330 <HAL_GetTick>
 8004a24:	6138      	str	r0, [r7, #16]
 8004a26:	e008      	b.n	8004a3a <HAL_RCC_OscConfig+0x4aa>
 8004a28:	f7fd fc82 	bl	8002330 <HAL_GetTick>
 8004a2c:	4602      	mov	r2, r0
 8004a2e:	693b      	ldr	r3, [r7, #16]
 8004a30:	1ad3      	subs	r3, r2, r3
 8004a32:	2b02      	cmp	r3, #2
 8004a34:	d901      	bls.n	8004a3a <HAL_RCC_OscConfig+0x4aa>
 8004a36:	2303      	movs	r3, #3
 8004a38:	e026      	b.n	8004a88 <HAL_RCC_OscConfig+0x4f8>
 8004a3a:	4b06      	ldr	r3, [pc, #24]	@ (8004a54 <HAL_RCC_OscConfig+0x4c4>)
 8004a3c:	681b      	ldr	r3, [r3, #0]
 8004a3e:	f003 7300 	and.w	r3, r3, #33554432	@ 0x2000000
 8004a42:	2b00      	cmp	r3, #0
 8004a44:	d1f0      	bne.n	8004a28 <HAL_RCC_OscConfig+0x498>
 8004a46:	e01e      	b.n	8004a86 <HAL_RCC_OscConfig+0x4f6>
 8004a48:	687b      	ldr	r3, [r7, #4]
 8004a4a:	69db      	ldr	r3, [r3, #28]
 8004a4c:	2b01      	cmp	r3, #1
 8004a4e:	d107      	bne.n	8004a60 <HAL_RCC_OscConfig+0x4d0>
 8004a50:	2301      	movs	r3, #1
 8004a52:	e019      	b.n	8004a88 <HAL_RCC_OscConfig+0x4f8>
 8004a54:	40021000 	.word	0x40021000
 8004a58:	40007000 	.word	0x40007000
 8004a5c:	42420060 	.word	0x42420060
 8004a60:	4b0b      	ldr	r3, [pc, #44]	@ (8004a90 <HAL_RCC_OscConfig+0x500>)
 8004a62:	685b      	ldr	r3, [r3, #4]
 8004a64:	60fb      	str	r3, [r7, #12]
 8004a66:	68fb      	ldr	r3, [r7, #12]
 8004a68:	f403 3280 	and.w	r2, r3, #65536	@ 0x10000
 8004a6c:	687b      	ldr	r3, [r7, #4]
 8004a6e:	6a1b      	ldr	r3, [r3, #32]
 8004a70:	429a      	cmp	r2, r3
 8004a72:	d106      	bne.n	8004a82 <HAL_RCC_OscConfig+0x4f2>
 8004a74:	68fb      	ldr	r3, [r7, #12]
 8004a76:	f403 1270 	and.w	r2, r3, #3932160	@ 0x3c0000
 8004a7a:	687b      	ldr	r3, [r7, #4]
 8004a7c:	6a5b      	ldr	r3, [r3, #36]	@ 0x24
 8004a7e:	429a      	cmp	r2, r3
 8004a80:	d001      	beq.n	8004a86 <HAL_RCC_OscConfig+0x4f6>
 8004a82:	2301      	movs	r3, #1
 8004a84:	e000      	b.n	8004a88 <HAL_RCC_OscConfig+0x4f8>
 8004a86:	2300      	movs	r3, #0
 8004a88:	4618      	mov	r0, r3
 8004a8a:	3718      	adds	r7, #24
 8004a8c:	46bd      	mov	sp, r7
 8004a8e:	bd80      	pop	{r7, pc}
 8004a90:	40021000 	.word	0x40021000

08004a94 <HAL_RCC_ClockConfig>:
 8004a94:	b580      	push	{r7, lr}
 8004a96:	b084      	sub	sp, #16
 8004a98:	af00      	add	r7, sp, #0
 8004a9a:	6078      	str	r0, [r7, #4]
 8004a9c:	6039      	str	r1, [r7, #0]
 8004a9e:	687b      	ldr	r3, [r7, #4]
 8004aa0:	2b00      	cmp	r3, #0
 8004aa2:	d101      	bne.n	8004aa8 <HAL_RCC_ClockConfig+0x14>
 8004aa4:	2301      	movs	r3, #1
 8004aa6:	e0d0      	b.n	8004c4a <HAL_RCC_ClockConfig+0x1b6>
 8004aa8:	4b6a      	ldr	r3, [pc, #424]	@ (8004c54 <HAL_RCC_ClockConfig+0x1c0>)
 8004aaa:	681b      	ldr	r3, [r3, #0]
 8004aac:	f003 0307 	and.w	r3, r3, #7
 8004ab0:	683a      	ldr	r2, [r7, #0]
 8004ab2:	429a      	cmp	r2, r3
 8004ab4:	d910      	bls.n	8004ad8 <HAL_RCC_ClockConfig+0x44>
 8004ab6:	4b67      	ldr	r3, [pc, #412]	@ (8004c54 <HAL_RCC_ClockConfig+0x1c0>)
 8004ab8:	681b      	ldr	r3, [r3, #0]
 8004aba:	f023 0207 	bic.w	r2, r3, #7
 8004abe:	4965      	ldr	r1, [pc, #404]	@ (8004c54 <HAL_RCC_ClockConfig+0x1c0>)
 8004ac0:	683b      	ldr	r3, [r7, #0]
 8004ac2:	4313      	orrs	r3, r2
 8004ac4:	600b      	str	r3, [r1, #0]
 8004ac6:	4b63      	ldr	r3, [pc, #396]	@ (8004c54 <HAL_RCC_ClockConfig+0x1c0>)
 8004ac8:	681b      	ldr	r3, [r3, #0]
 8004aca:	f003 0307 	and.w	r3, r3, #7
 8004ace:	683a      	ldr	r2, [r7, #0]
 8004ad0:	429a      	cmp	r2, r3
 8004ad2:	d001      	beq.n	8004ad8 <HAL_RCC_ClockConfig+0x44>
 8004ad4:	2301      	movs	r3, #1
 8004ad6:	e0b8      	b.n	8004c4a <HAL_RCC_ClockConfig+0x1b6>
 8004ad8:	687b      	ldr	r3, [r7, #4]
 8004ada:	681b      	ldr	r3, [r3, #0]
 8004adc:	f003 0302 	and.w	r3, r3, #2
 8004ae0:	2b00      	cmp	r3, #0
 8004ae2:	d020      	beq.n	8004b26 <HAL_RCC_ClockConfig+0x92>
 8004ae4:	687b      	ldr	r3, [r7, #4]
 8004ae6:	681b      	ldr	r3, [r3, #0]
 8004ae8:	f003 0304 	and.w	r3, r3, #4
 8004aec:	2b00      	cmp	r3, #0
 8004aee:	d005      	beq.n	8004afc <HAL_RCC_ClockConfig+0x68>
 8004af0:	4b59      	ldr	r3, [pc, #356]	@ (8004c58 <HAL_RCC_ClockConfig+0x1c4>)
 8004af2:	685b      	ldr	r3, [r3, #4]
 8004af4:	4a58      	ldr	r2, [pc, #352]	@ (8004c58 <HAL_RCC_ClockConfig+0x1c4>)
 8004af6:	f443 63e0 	orr.w	r3, r3, #1792	@ 0x700
 8004afa:	6053      	str	r3, [r2, #4]
 8004afc:	687b      	ldr	r3, [r7, #4]
 8004afe:	681b      	ldr	r3, [r3, #0]
 8004b00:	f003 0308 	and.w	r3, r3, #8
 8004b04:	2b00      	cmp	r3, #0
 8004b06:	d005      	beq.n	8004b14 <HAL_RCC_ClockConfig+0x80>
 8004b08:	4b53      	ldr	r3, [pc, #332]	@ (8004c58 <HAL_RCC_ClockConfig+0x1c4>)
 8004b0a:	685b      	ldr	r3, [r3, #4]
 8004b0c:	4a52      	ldr	r2, [pc, #328]	@ (8004c58 <HAL_RCC_ClockConfig+0x1c4>)
 8004b0e:	f443 5360 	orr.w	r3, r3, #14336	@ 0x3800
 8004b12:	6053      	str	r3, [r2, #4]
 8004b14:	4b50      	ldr	r3, [pc, #320]	@ (8004c58 <HAL_RCC_ClockConfig+0x1c4>)
 8004b16:	685b      	ldr	r3, [r3, #4]
 8004b18:	f023 02f0 	bic.w	r2, r3, #240	@ 0xf0
 8004b1c:	687b      	ldr	r3, [r7, #4]
 8004b1e:	689b      	ldr	r3, [r3, #8]
 8004b20:	494d      	ldr	r1, [pc, #308]	@ (8004c58 <HAL_RCC_ClockConfig+0x1c4>)
 8004b22:	4313      	orrs	r3, r2
 8004b24:	604b      	str	r3, [r1, #4]
 8004b26:	687b      	ldr	r3, [r7, #4]
 8004b28:	681b      	ldr	r3, [r3, #0]
 8004b2a:	f003 0301 	and.w	r3, r3, #1
 8004b2e:	2b00      	cmp	r3, #0
 8004b30:	d040      	beq.n	8004bb4 <HAL_RCC_ClockConfig+0x120>
 8004b32:	687b      	ldr	r3, [r7, #4]
 8004b34:	685b      	ldr	r3, [r3, #4]
 8004b36:	2b01      	cmp	r3, #1
 8004b38:	d107      	bne.n	8004b4a <HAL_RCC_ClockConfig+0xb6>
 8004b3a:	4b47      	ldr	r3, [pc, #284]	@ (8004c58 <HAL_RCC_ClockConfig+0x1c4>)
 8004b3c:	681b      	ldr	r3, [r3, #0]
 8004b3e:	f403 3300 	and.w	r3, r3, #131072	@ 0x20000
 8004b42:	2b00      	cmp	r3, #0
 8004b44:	d115      	bne.n	8004b72 <HAL_RCC_ClockConfig+0xde>
 8004b46:	2301      	movs	r3, #1
 8004b48:	e07f      	b.n	8004c4a <HAL_RCC_ClockConfig+0x1b6>
 8004b4a:	687b      	ldr	r3, [r7, #4]
 8004b4c:	685b      	ldr	r3, [r3, #4]
 8004b4e:	2b02      	cmp	r3, #2
 8004b50:	d107      	bne.n	8004b62 <HAL_RCC_ClockConfig+0xce>
 8004b52:	4b41      	ldr	r3, [pc, #260]	@ (8004c58 <HAL_RCC_ClockConfig+0x1c4>)
 8004b54:	681b      	ldr	r3, [r3, #0]
 8004b56:	f003 7300 	and.w	r3, r3, #33554432	@ 0x2000000
 8004b5a:	2b00      	cmp	r3, #0
 8004b5c:	d109      	bne.n	8004b72 <HAL_RCC_ClockConfig+0xde>
 8004b5e:	2301      	movs	r3, #1
 8004b60:	e073      	b.n	8004c4a <HAL_RCC_ClockConfig+0x1b6>
 8004b62:	4b3d      	ldr	r3, [pc, #244]	@ (8004c58 <HAL_RCC_ClockConfig+0x1c4>)
 8004b64:	681b      	ldr	r3, [r3, #0]
 8004b66:	f003 0302 	and.w	r3, r3, #2
 8004b6a:	2b00      	cmp	r3, #0
 8004b6c:	d101      	bne.n	8004b72 <HAL_RCC_ClockConfig+0xde>
 8004b6e:	2301      	movs	r3, #1
 8004b70:	e06b      	b.n	8004c4a <HAL_RCC_ClockConfig+0x1b6>
 8004b72:	4b39      	ldr	r3, [pc, #228]	@ (8004c58 <HAL_RCC_ClockConfig+0x1c4>)
 8004b74:	685b      	ldr	r3, [r3, #4]
 8004b76:	f023 0203 	bic.w	r2, r3, #3
 8004b7a:	687b      	ldr	r3, [r7, #4]
 8004b7c:	685b      	ldr	r3, [r3, #4]
 8004b7e:	4936      	ldr	r1, [pc, #216]	@ (8004c58 <HAL_RCC_ClockConfig+0x1c4>)
 8004b80:	4313      	orrs	r3, r2
 8004b82:	604b      	str	r3, [r1, #4]
 8004b84:	f7fd fbd4 	bl	8002330 <HAL_GetTick>
 8004b88:	60f8      	str	r0, [r7, #12]
 8004b8a:	e00a      	b.n	8004ba2 <HAL_RCC_ClockConfig+0x10e>
 8004b8c:	f7fd fbd0 	bl	8002330 <HAL_GetTick>
 8004b90:	4602      	mov	r2, r0
 8004b92:	68fb      	ldr	r3, [r7, #12]
 8004b94:	1ad3      	subs	r3, r2, r3
 8004b96:	f241 3288 	movw	r2, #5000	@ 0x1388
 8004b9a:	4293      	cmp	r3, r2
 8004b9c:	d901      	bls.n	8004ba2 <HAL_RCC_ClockConfig+0x10e>
 8004b9e:	2303      	movs	r3, #3
 8004ba0:	e053      	b.n	8004c4a <HAL_RCC_ClockConfig+0x1b6>
 8004ba2:	4b2d      	ldr	r3, [pc, #180]	@ (8004c58 <HAL_RCC_ClockConfig+0x1c4>)
 8004ba4:	685b      	ldr	r3, [r3, #4]
 8004ba6:	f003 020c 	and.w	r2, r3, #12
 8004baa:	687b      	ldr	r3, [r7, #4]
 8004bac:	685b      	ldr	r3, [r3, #4]
 8004bae:	009b      	lsls	r3, r3, #2
 8004bb0:	429a      	cmp	r2, r3
 8004bb2:	d1eb      	bne.n	8004b8c <HAL_RCC_ClockConfig+0xf8>
 8004bb4:	4b27      	ldr	r3, [pc, #156]	@ (8004c54 <HAL_RCC_ClockConfig+0x1c0>)
 8004bb6:	681b      	ldr	r3, [r3, #0]
 8004bb8:	f003 0307 	and.w	r3, r3, #7
 8004bbc:	683a      	ldr	r2, [r7, #0]
 8004bbe:	429a      	cmp	r2, r3
 8004bc0:	d210      	bcs.n	8004be4 <HAL_RCC_ClockConfig+0x150>
 8004bc2:	4b24      	ldr	r3, [pc, #144]	@ (8004c54 <HAL_RCC_ClockConfig+0x1c0>)
 8004bc4:	681b      	ldr	r3, [r3, #0]
 8004bc6:	f023 0207 	bic.w	r2, r3, #7
 8004bca:	4922      	ldr	r1, [pc, #136]	@ (8004c54 <HAL_RCC_ClockConfig+0x1c0>)
 8004bcc:	683b      	ldr	r3, [r7, #0]
 8004bce:	4313      	orrs	r3, r2
 8004bd0:	600b      	str	r3, [r1, #0]
 8004bd2:	4b20      	ldr	r3, [pc, #128]	@ (8004c54 <HAL_RCC_ClockConfig+0x1c0>)
 8004bd4:	681b      	ldr	r3, [r3, #0]
 8004bd6:	f003 0307 	and.w	r3, r3, #7
 8004bda:	683a      	ldr	r2, [r7, #0]
 8004bdc:	429a      	cmp	r2, r3
 8004bde:	d001      	beq.n	8004be4 <HAL_RCC_ClockConfig+0x150>
 8004be0:	2301      	movs	r3, #1
 8004be2:	e032      	b.n	8004c4a <HAL_RCC_ClockConfig+0x1b6>
 8004be4:	687b      	ldr	r3, [r7, #4]
 8004be6:	681b      	ldr	r3, [r3, #0]
 8004be8:	f003 0304 	and.w	r3, r3, #4
 8004bec:	2b00      	cmp	r3, #0
 8004bee:	d008      	beq.n	8004c02 <HAL_RCC_ClockConfig+0x16e>
 8004bf0:	4b19      	ldr	r3, [pc, #100]	@ (8004c58 <HAL_RCC_ClockConfig+0x1c4>)
 8004bf2:	685b      	ldr	r3, [r3, #4]
 8004bf4:	f423 62e0 	bic.w	r2, r3, #1792	@ 0x700
 8004bf8:	687b      	ldr	r3, [r7, #4]
 8004bfa:	68db      	ldr	r3, [r3, #12]
 8004bfc:	4916      	ldr	r1, [pc, #88]	@ (8004c58 <HAL_RCC_ClockConfig+0x1c4>)
 8004bfe:	4313      	orrs	r3, r2
 8004c00:	604b      	str	r3, [r1, #4]
 8004c02:	687b      	ldr	r3, [r7, #4]
 8004c04:	681b      	ldr	r3, [r3, #0]
 8004c06:	f003 0308 	and.w	r3, r3, #8
 8004c0a:	2b00      	cmp	r3, #0
 8004c0c:	d009      	beq.n	8004c22 <HAL_RCC_ClockConfig+0x18e>
 8004c0e:	4b12      	ldr	r3, [pc, #72]	@ (8004c58 <HAL_RCC_ClockConfig+0x1c4>)
 8004c10:	685b      	ldr	r3, [r3, #4]
 8004c12:	f423 5260 	bic.w	r2, r3, #14336	@ 0x3800
 8004c16:	687b      	ldr	r3, [r7, #4]
 8004c18:	691b      	ldr	r3, [r3, #16]
 8004c1a:	00db      	lsls	r3, r3, #3
 8004c1c:	490e      	ldr	r1, [pc, #56]	@ (8004c58 <HAL_RCC_ClockConfig+0x1c4>)
 8004c1e:	4313      	orrs	r3, r2
 8004c20:	604b      	str	r3, [r1, #4]
 8004c22:	f000 f821 	bl	8004c68 <HAL_RCC_GetSysClockFreq>
 8004c26:	4602      	mov	r2, r0
 8004c28:	4b0b      	ldr	r3, [pc, #44]	@ (8004c58 <HAL_RCC_ClockConfig+0x1c4>)
 8004c2a:	685b      	ldr	r3, [r3, #4]
 8004c2c:	091b      	lsrs	r3, r3, #4
 8004c2e:	f003 030f 	and.w	r3, r3, #15
 8004c32:	490a      	ldr	r1, [pc, #40]	@ (8004c5c <HAL_RCC_ClockConfig+0x1c8>)
 8004c34:	5ccb      	ldrb	r3, [r1, r3]
 8004c36:	fa22 f303 	lsr.w	r3, r2, r3
 8004c3a:	4a09      	ldr	r2, [pc, #36]	@ (8004c60 <HAL_RCC_ClockConfig+0x1cc>)
 8004c3c:	6013      	str	r3, [r2, #0]
 8004c3e:	4b09      	ldr	r3, [pc, #36]	@ (8004c64 <HAL_RCC_ClockConfig+0x1d0>)
 8004c40:	681b      	ldr	r3, [r3, #0]
 8004c42:	4618      	mov	r0, r3
 8004c44:	f7fd fb32 	bl	80022ac <HAL_InitTick>
 8004c48:	2300      	movs	r3, #0
 8004c4a:	4618      	mov	r0, r3
 8004c4c:	3710      	adds	r7, #16
 8004c4e:	46bd      	mov	sp, r7
 8004c50:	bd80      	pop	{r7, pc}
 8004c52:	bf00      	nop
 8004c54:	40022000 	.word	0x40022000
 8004c58:	40021000 	.word	0x40021000
 8004c5c:	08006fd8 	.word	0x08006fd8
 8004c60:	20000004 	.word	0x20000004
 8004c64:	20000008 	.word	0x20000008

08004c68 <HAL_RCC_GetSysClockFreq>:
 8004c68:	b480      	push	{r7}
 8004c6a:	b087      	sub	sp, #28
 8004c6c:	af00      	add	r7, sp, #0
 8004c6e:	2300      	movs	r3, #0
 8004c70:	60fb      	str	r3, [r7, #12]
 8004c72:	2300      	movs	r3, #0
 8004c74:	60bb      	str	r3, [r7, #8]
 8004c76:	2300      	movs	r3, #0
 8004c78:	617b      	str	r3, [r7, #20]
 8004c7a:	2300      	movs	r3, #0
 8004c7c:	607b      	str	r3, [r7, #4]
 8004c7e:	2300      	movs	r3, #0
 8004c80:	613b      	str	r3, [r7, #16]
 8004c82:	4b1e      	ldr	r3, [pc, #120]	@ (8004cfc <HAL_RCC_GetSysClockFreq+0x94>)
 8004c84:	685b      	ldr	r3, [r3, #4]
 8004c86:	60fb      	str	r3, [r7, #12]
 8004c88:	68fb      	ldr	r3, [r7, #12]
 8004c8a:	f003 030c 	and.w	r3, r3, #12
 8004c8e:	2b04      	cmp	r3, #4
 8004c90:	d002      	beq.n	8004c98 <HAL_RCC_GetSysClockFreq+0x30>
 8004c92:	2b08      	cmp	r3, #8
 8004c94:	d003      	beq.n	8004c9e <HAL_RCC_GetSysClockFreq+0x36>
 8004c96:	e027      	b.n	8004ce8 <HAL_RCC_GetSysClockFreq+0x80>
 8004c98:	4b19      	ldr	r3, [pc, #100]	@ (8004d00 <HAL_RCC_GetSysClockFreq+0x98>)
 8004c9a:	613b      	str	r3, [r7, #16]
 8004c9c:	e027      	b.n	8004cee <HAL_RCC_GetSysClockFreq+0x86>
 8004c9e:	68fb      	ldr	r3, [r7, #12]
 8004ca0:	0c9b      	lsrs	r3, r3, #18
 8004ca2:	f003 030f 	and.w	r3, r3, #15
 8004ca6:	4a17      	ldr	r2, [pc, #92]	@ (8004d04 <HAL_RCC_GetSysClockFreq+0x9c>)
 8004ca8:	5cd3      	ldrb	r3, [r2, r3]
 8004caa:	607b      	str	r3, [r7, #4]
 8004cac:	68fb      	ldr	r3, [r7, #12]
 8004cae:	f403 3380 	and.w	r3, r3, #65536	@ 0x10000
 8004cb2:	2b00      	cmp	r3, #0
 8004cb4:	d010      	beq.n	8004cd8 <HAL_RCC_GetSysClockFreq+0x70>
 8004cb6:	4b11      	ldr	r3, [pc, #68]	@ (8004cfc <HAL_RCC_GetSysClockFreq+0x94>)
 8004cb8:	685b      	ldr	r3, [r3, #4]
 8004cba:	0c5b      	lsrs	r3, r3, #17
 8004cbc:	f003 0301 	and.w	r3, r3, #1
 8004cc0:	4a11      	ldr	r2, [pc, #68]	@ (8004d08 <HAL_RCC_GetSysClockFreq+0xa0>)
 8004cc2:	5cd3      	ldrb	r3, [r2, r3]
 8004cc4:	60bb      	str	r3, [r7, #8]
 8004cc6:	687b      	ldr	r3, [r7, #4]
 8004cc8:	4a0d      	ldr	r2, [pc, #52]	@ (8004d00 <HAL_RCC_GetSysClockFreq+0x98>)
 8004cca:	fb03 f202 	mul.w	r2, r3, r2
 8004cce:	68bb      	ldr	r3, [r7, #8]
 8004cd0:	fbb2 f3f3 	udiv	r3, r2, r3
 8004cd4:	617b      	str	r3, [r7, #20]
 8004cd6:	e004      	b.n	8004ce2 <HAL_RCC_GetSysClockFreq+0x7a>
 8004cd8:	687b      	ldr	r3, [r7, #4]
 8004cda:	4a0c      	ldr	r2, [pc, #48]	@ (8004d0c <HAL_RCC_GetSysClockFreq+0xa4>)
 8004cdc:	fb02 f303 	mul.w	r3, r2, r3
 8004ce0:	617b      	str	r3, [r7, #20]
 8004ce2:	697b      	ldr	r3, [r7, #20]
 8004ce4:	613b      	str	r3, [r7, #16]
 8004ce6:	e002      	b.n	8004cee <HAL_RCC_GetSysClockFreq+0x86>
 8004ce8:	4b05      	ldr	r3, [pc, #20]	@ (8004d00 <HAL_RCC_GetSysClockFreq+0x98>)
 8004cea:	613b      	str	r3, [r7, #16]
 8004cec:	bf00      	nop
 8004cee:	693b      	ldr	r3, [r7, #16]
 8004cf0:	4618      	mov	r0, r3
 8004cf2:	371c      	adds	r7, #28
 8004cf4:	46bd      	mov	sp, r7
 8004cf6:	bc80      	pop	{r7}
 8004cf8:	4770      	bx	lr
 8004cfa:	bf00      	nop
 8004cfc:	40021000 	.word	0x40021000
 8004d00:	007a1200 	.word	0x007a1200
 8004d04:	08006ff0 	.word	0x08006ff0
 8004d08:	08007000 	.word	0x08007000
 8004d0c:	003d0900 	.word	0x003d0900

08004d10 <HAL_RCC_GetHCLKFreq>:
 8004d10:	b480      	push	{r7}
 8004d12:	af00      	add	r7, sp, #0
 8004d14:	4b02      	ldr	r3, [pc, #8]	@ (8004d20 <HAL_RCC_GetHCLKFreq+0x10>)
 8004d16:	681b      	ldr	r3, [r3, #0]
 8004d18:	4618      	mov	r0, r3
 8004d1a:	46bd      	mov	sp, r7
 8004d1c:	bc80      	pop	{r7}
 8004d1e:	4770      	bx	lr
 8004d20:	20000004 	.word	0x20000004

08004d24 <HAL_RCC_GetPCLK1Freq>:
 8004d24:	b580      	push	{r7, lr}
 8004d26:	af00      	add	r7, sp, #0
 8004d28:	f7ff fff2 	bl	8004d10 <HAL_RCC_GetHCLKFreq>
 8004d2c:	4602      	mov	r2, r0
 8004d2e:	4b05      	ldr	r3, [pc, #20]	@ (8004d44 <HAL_RCC_GetPCLK1Freq+0x20>)
 8004d30:	685b      	ldr	r3, [r3, #4]
 8004d32:	0a1b      	lsrs	r3, r3, #8
 8004d34:	f003 0307 	and.w	r3, r3, #7
 8004d38:	4903      	ldr	r1, [pc, #12]	@ (8004d48 <HAL_RCC_GetPCLK1Freq+0x24>)
 8004d3a:	5ccb      	ldrb	r3, [r1, r3]
 8004d3c:	fa22 f303 	lsr.w	r3, r2, r3
 8004d40:	4618      	mov	r0, r3
 8004d42:	bd80      	pop	{r7, pc}
 8004d44:	40021000 	.word	0x40021000
 8004d48:	08006fe8 	.word	0x08006fe8

08004d4c <HAL_RCC_GetPCLK2Freq>:
 8004d4c:	b580      	push	{r7, lr}
 8004d4e:	af00      	add	r7, sp, #0
 8004d50:	f7ff ffde 	bl	8004d10 <HAL_RCC_GetHCLKFreq>
 8004d54:	4602      	mov	r2, r0
 8004d56:	4b05      	ldr	r3, [pc, #20]	@ (8004d6c <HAL_RCC_GetPCLK2Freq+0x20>)
 8004d58:	685b      	ldr	r3, [r3, #4]
 8004d5a:	0adb      	lsrs	r3, r3, #11
 8004d5c:	f003 0307 	and.w	r3, r3, #7
 8004d60:	4903      	ldr	r1, [pc, #12]	@ (8004d70 <HAL_RCC_GetPCLK2Freq+0x24>)
 8004d62:	5ccb      	ldrb	r3, [r1, r3]
 8004d64:	fa22 f303 	lsr.w	r3, r2, r3
 8004d68:	4618      	mov	r0, r3
 8004d6a:	bd80      	pop	{r7, pc}
 8004d6c:	40021000 	.word	0x40021000
 8004d70:	08006fe8 	.word	0x08006fe8

08004d74 <RCC_Delay>:
 8004d74:	b480      	push	{r7}
 8004d76:	b085      	sub	sp, #20
 8004d78:	af00      	add	r7, sp, #0
 8004d7a:	6078      	str	r0, [r7, #4]
 8004d7c:	4b0a      	ldr	r3, [pc, #40]	@ (8004da8 <RCC_Delay+0x34>)
 8004d7e:	681b      	ldr	r3, [r3, #0]
 8004d80:	4a0a      	ldr	r2, [pc, #40]	@ (8004dac <RCC_Delay+0x38>)
 8004d82:	fba2 2303 	umull	r2, r3, r2, r3
 8004d86:	0a5b      	lsrs	r3, r3, #9
 8004d88:	687a      	ldr	r2, [r7, #4]
 8004d8a:	fb02 f303 	mul.w	r3, r2, r3
 8004d8e:	60fb      	str	r3, [r7, #12]
 8004d90:	bf00      	nop
 8004d92:	68fb      	ldr	r3, [r7, #12]
 8004d94:	1e5a      	subs	r2, r3, #1
 8004d96:	60fa      	str	r2, [r7, #12]
 8004d98:	2b00      	cmp	r3, #0
 8004d9a:	d1f9      	bne.n	8004d90 <RCC_Delay+0x1c>
 8004d9c:	bf00      	nop
 8004d9e:	bf00      	nop
 8004da0:	3714      	adds	r7, #20
 8004da2:	46bd      	mov	sp, r7
 8004da4:	bc80      	pop	{r7}
 8004da6:	4770      	bx	lr
 8004da8:	20000004 	.word	0x20000004
 8004dac:	10624dd3 	.word	0x10624dd3

08004db0 <HAL_RCCEx_PeriphCLKConfig>:
 8004db0:	b580      	push	{r7, lr}
 8004db2:	b086      	sub	sp, #24
 8004db4:	af00      	add	r7, sp, #0
 8004db6:	6078      	str	r0, [r7, #4]
 8004db8:	2300      	movs	r3, #0
 8004dba:	613b      	str	r3, [r7, #16]
 8004dbc:	2300      	movs	r3, #0
 8004dbe:	60fb      	str	r3, [r7, #12]
 8004dc0:	687b      	ldr	r3, [r7, #4]
 8004dc2:	681b      	ldr	r3, [r3, #0]
 8004dc4:	f003 0301 	and.w	r3, r3, #1
 8004dc8:	2b00      	cmp	r3, #0
 8004dca:	d07d      	beq.n	8004ec8 <HAL_RCCEx_PeriphCLKConfig+0x118>
 8004dcc:	2300      	movs	r3, #0
 8004dce:	75fb      	strb	r3, [r7, #23]
 8004dd0:	4b4f      	ldr	r3, [pc, #316]	@ (8004f10 <HAL_RCCEx_PeriphCLKConfig+0x160>)
 8004dd2:	69db      	ldr	r3, [r3, #28]
 8004dd4:	f003 5380 	and.w	r3, r3, #268435456	@ 0x10000000
 8004dd8:	2b00      	cmp	r3, #0
 8004dda:	d10d      	bne.n	8004df8 <HAL_RCCEx_PeriphCLKConfig+0x48>
 8004ddc:	4b4c      	ldr	r3, [pc, #304]	@ (8004f10 <HAL_RCCEx_PeriphCLKConfig+0x160>)
 8004dde:	69db      	ldr	r3, [r3, #28]
 8004de0:	4a4b      	ldr	r2, [pc, #300]	@ (8004f10 <HAL_RCCEx_PeriphCLKConfig+0x160>)
 8004de2:	f043 5380 	orr.w	r3, r3, #268435456	@ 0x10000000
 8004de6:	61d3      	str	r3, [r2, #28]
 8004de8:	4b49      	ldr	r3, [pc, #292]	@ (8004f10 <HAL_RCCEx_PeriphCLKConfig+0x160>)
 8004dea:	69db      	ldr	r3, [r3, #28]
 8004dec:	f003 5380 	and.w	r3, r3, #268435456	@ 0x10000000
 8004df0:	60bb      	str	r3, [r7, #8]
 8004df2:	68bb      	ldr	r3, [r7, #8]
 8004df4:	2301      	movs	r3, #1
 8004df6:	75fb      	strb	r3, [r7, #23]
 8004df8:	4b46      	ldr	r3, [pc, #280]	@ (8004f14 <HAL_RCCEx_PeriphCLKConfig+0x164>)
 8004dfa:	681b      	ldr	r3, [r3, #0]
 8004dfc:	f403 7380 	and.w	r3, r3, #256	@ 0x100
 8004e00:	2b00      	cmp	r3, #0
 8004e02:	d118      	bne.n	8004e36 <HAL_RCCEx_PeriphCLKConfig+0x86>
 8004e04:	4b43      	ldr	r3, [pc, #268]	@ (8004f14 <HAL_RCCEx_PeriphCLKConfig+0x164>)
 8004e06:	681b      	ldr	r3, [r3, #0]
 8004e08:	4a42      	ldr	r2, [pc, #264]	@ (8004f14 <HAL_RCCEx_PeriphCLKConfig+0x164>)
 8004e0a:	f443 7380 	orr.w	r3, r3, #256	@ 0x100
 8004e0e:	6013      	str	r3, [r2, #0]
 8004e10:	f7fd fa8e 	bl	8002330 <HAL_GetTick>
 8004e14:	6138      	str	r0, [r7, #16]
 8004e16:	e008      	b.n	8004e2a <HAL_RCCEx_PeriphCLKConfig+0x7a>
 8004e18:	f7fd fa8a 	bl	8002330 <HAL_GetTick>
 8004e1c:	4602      	mov	r2, r0
 8004e1e:	693b      	ldr	r3, [r7, #16]
 8004e20:	1ad3      	subs	r3, r2, r3
 8004e22:	2b64      	cmp	r3, #100	@ 0x64
 8004e24:	d901      	bls.n	8004e2a <HAL_RCCEx_PeriphCLKConfig+0x7a>
 8004e26:	2303      	movs	r3, #3
 8004e28:	e06d      	b.n	8004f06 <HAL_RCCEx_PeriphCLKConfig+0x156>
 8004e2a:	4b3a      	ldr	r3, [pc, #232]	@ (8004f14 <HAL_RCCEx_PeriphCLKConfig+0x164>)
 8004e2c:	681b      	ldr	r3, [r3, #0]
 8004e2e:	f403 7380 	and.w	r3, r3, #256	@ 0x100
 8004e32:	2b00      	cmp	r3, #0
 8004e34:	d0f0      	beq.n	8004e18 <HAL_RCCEx_PeriphCLKConfig+0x68>
 8004e36:	4b36      	ldr	r3, [pc, #216]	@ (8004f10 <HAL_RCCEx_PeriphCLKConfig+0x160>)
 8004e38:	6a1b      	ldr	r3, [r3, #32]
 8004e3a:	f403 7340 	and.w	r3, r3, #768	@ 0x300
 8004e3e:	60fb      	str	r3, [r7, #12]
 8004e40:	68fb      	ldr	r3, [r7, #12]
 8004e42:	2b00      	cmp	r3, #0
 8004e44:	d02e      	beq.n	8004ea4 <HAL_RCCEx_PeriphCLKConfig+0xf4>
 8004e46:	687b      	ldr	r3, [r7, #4]
 8004e48:	685b      	ldr	r3, [r3, #4]
 8004e4a:	f403 7340 	and.w	r3, r3, #768	@ 0x300
 8004e4e:	68fa      	ldr	r2, [r7, #12]
 8004e50:	429a      	cmp	r2, r3
 8004e52:	d027      	beq.n	8004ea4 <HAL_RCCEx_PeriphCLKConfig+0xf4>
 8004e54:	4b2e      	ldr	r3, [pc, #184]	@ (8004f10 <HAL_RCCEx_PeriphCLKConfig+0x160>)
 8004e56:	6a1b      	ldr	r3, [r3, #32]
 8004e58:	f423 7340 	bic.w	r3, r3, #768	@ 0x300
 8004e5c:	60fb      	str	r3, [r7, #12]
 8004e5e:	4b2e      	ldr	r3, [pc, #184]	@ (8004f18 <HAL_RCCEx_PeriphCLKConfig+0x168>)
 8004e60:	2201      	movs	r2, #1
 8004e62:	601a      	str	r2, [r3, #0]
 8004e64:	4b2c      	ldr	r3, [pc, #176]	@ (8004f18 <HAL_RCCEx_PeriphCLKConfig+0x168>)
 8004e66:	2200      	movs	r2, #0
 8004e68:	601a      	str	r2, [r3, #0]
 8004e6a:	4a29      	ldr	r2, [pc, #164]	@ (8004f10 <HAL_RCCEx_PeriphCLKConfig+0x160>)
 8004e6c:	68fb      	ldr	r3, [r7, #12]
 8004e6e:	6213      	str	r3, [r2, #32]
 8004e70:	68fb      	ldr	r3, [r7, #12]
 8004e72:	f003 0301 	and.w	r3, r3, #1
 8004e76:	2b00      	cmp	r3, #0
 8004e78:	d014      	beq.n	8004ea4 <HAL_RCCEx_PeriphCLKConfig+0xf4>
 8004e7a:	f7fd fa59 	bl	8002330 <HAL_GetTick>
 8004e7e:	6138      	str	r0, [r7, #16]
 8004e80:	e00a      	b.n	8004e98 <HAL_RCCEx_PeriphCLKConfig+0xe8>
 8004e82:	f7fd fa55 	bl	8002330 <HAL_GetTick>
 8004e86:	4602      	mov	r2, r0
 8004e88:	693b      	ldr	r3, [r7, #16]
 8004e8a:	1ad3      	subs	r3, r2, r3
 8004e8c:	f241 3288 	movw	r2, #5000	@ 0x1388
 8004e90:	4293      	cmp	r3, r2
 8004e92:	d901      	bls.n	8004e98 <HAL_RCCEx_PeriphCLKConfig+0xe8>
 8004e94:	2303      	movs	r3, #3
 8004e96:	e036      	b.n	8004f06 <HAL_RCCEx_PeriphCLKConfig+0x156>
 8004e98:	4b1d      	ldr	r3, [pc, #116]	@ (8004f10 <HAL_RCCEx_PeriphCLKConfig+0x160>)
 8004e9a:	6a1b      	ldr	r3, [r3, #32]
 8004e9c:	f003 0302 	and.w	r3, r3, #2
 8004ea0:	2b00      	cmp	r3, #0
 8004ea2:	d0ee      	beq.n	8004e82 <HAL_RCCEx_PeriphCLKConfig+0xd2>
 8004ea4:	4b1a      	ldr	r3, [pc, #104]	@ (8004f10 <HAL_RCCEx_PeriphCLKConfig+0x160>)
 8004ea6:	6a1b      	ldr	r3, [r3, #32]
 8004ea8:	f423 7240 	bic.w	r2, r3, #768	@ 0x300
 8004eac:	687b      	ldr	r3, [r7, #4]
 8004eae:	685b      	ldr	r3, [r3, #4]
 8004eb0:	4917      	ldr	r1, [pc, #92]	@ (8004f10 <HAL_RCCEx_PeriphCLKConfig+0x160>)
 8004eb2:	4313      	orrs	r3, r2
 8004eb4:	620b      	str	r3, [r1, #32]
 8004eb6:	7dfb      	ldrb	r3, [r7, #23]
 8004eb8:	2b01      	cmp	r3, #1
 8004eba:	d105      	bne.n	8004ec8 <HAL_RCCEx_PeriphCLKConfig+0x118>
 8004ebc:	4b14      	ldr	r3, [pc, #80]	@ (8004f10 <HAL_RCCEx_PeriphCLKConfig+0x160>)
 8004ebe:	69db      	ldr	r3, [r3, #28]
 8004ec0:	4a13      	ldr	r2, [pc, #76]	@ (8004f10 <HAL_RCCEx_PeriphCLKConfig+0x160>)
 8004ec2:	f023 5380 	bic.w	r3, r3, #268435456	@ 0x10000000
 8004ec6:	61d3      	str	r3, [r2, #28]
 8004ec8:	687b      	ldr	r3, [r7, #4]
 8004eca:	681b      	ldr	r3, [r3, #0]
 8004ecc:	f003 0302 	and.w	r3, r3, #2
 8004ed0:	2b00      	cmp	r3, #0
 8004ed2:	d008      	beq.n	8004ee6 <HAL_RCCEx_PeriphCLKConfig+0x136>
 8004ed4:	4b0e      	ldr	r3, [pc, #56]	@ (8004f10 <HAL_RCCEx_PeriphCLKConfig+0x160>)
 8004ed6:	685b      	ldr	r3, [r3, #4]
 8004ed8:	f423 4240 	bic.w	r2, r3, #49152	@ 0xc000
 8004edc:	687b      	ldr	r3, [r7, #4]
 8004ede:	689b      	ldr	r3, [r3, #8]
 8004ee0:	490b      	ldr	r1, [pc, #44]	@ (8004f10 <HAL_RCCEx_PeriphCLKConfig+0x160>)
 8004ee2:	4313      	orrs	r3, r2
 8004ee4:	604b      	str	r3, [r1, #4]
 8004ee6:	687b      	ldr	r3, [r7, #4]
 8004ee8:	681b      	ldr	r3, [r3, #0]
 8004eea:	f003 0310 	and.w	r3, r3, #16
 8004eee:	2b00      	cmp	r3, #0
 8004ef0:	d008      	beq.n	8004f04 <HAL_RCCEx_PeriphCLKConfig+0x154>
 8004ef2:	4b07      	ldr	r3, [pc, #28]	@ (8004f10 <HAL_RCCEx_PeriphCLKConfig+0x160>)
 8004ef4:	685b      	ldr	r3, [r3, #4]
 8004ef6:	f423 0280 	bic.w	r2, r3, #4194304	@ 0x400000
 8004efa:	687b      	ldr	r3, [r7, #4]
 8004efc:	68db      	ldr	r3, [r3, #12]
 8004efe:	4904      	ldr	r1, [pc, #16]	@ (8004f10 <HAL_RCCEx_PeriphCLKConfig+0x160>)
 8004f00:	4313      	orrs	r3, r2
 8004f02:	604b      	str	r3, [r1, #4]
 8004f04:	2300      	movs	r3, #0
 8004f06:	4618      	mov	r0, r3
 8004f08:	3718      	adds	r7, #24
 8004f0a:	46bd      	mov	sp, r7
 8004f0c:	bd80      	pop	{r7, pc}
 8004f0e:	bf00      	nop
 8004f10:	40021000 	.word	0x40021000
 8004f14:	40007000 	.word	0x40007000
 8004f18:	42420440 	.word	0x42420440

08004f1c <HAL_RCCEx_GetPeriphCLKFreq>:
 8004f1c:	b580      	push	{r7, lr}
 8004f1e:	b088      	sub	sp, #32
 8004f20:	af00      	add	r7, sp, #0
 8004f22:	6078      	str	r0, [r7, #4]
 8004f24:	2300      	movs	r3, #0
 8004f26:	617b      	str	r3, [r7, #20]
 8004f28:	2300      	movs	r3, #0
 8004f2a:	61fb      	str	r3, [r7, #28]
 8004f2c:	2300      	movs	r3, #0
 8004f2e:	613b      	str	r3, [r7, #16]
 8004f30:	2300      	movs	r3, #0
 8004f32:	60fb      	str	r3, [r7, #12]
 8004f34:	2300      	movs	r3, #0
 8004f36:	61bb      	str	r3, [r7, #24]
 8004f38:	687b      	ldr	r3, [r7, #4]
 8004f3a:	2b10      	cmp	r3, #16
 8004f3c:	d00a      	beq.n	8004f54 <HAL_RCCEx_GetPeriphCLKFreq+0x38>
 8004f3e:	687b      	ldr	r3, [r7, #4]
 8004f40:	2b10      	cmp	r3, #16
 8004f42:	f200 808a 	bhi.w	800505a <HAL_RCCEx_GetPeriphCLKFreq+0x13e>
 8004f46:	687b      	ldr	r3, [r7, #4]
 8004f48:	2b01      	cmp	r3, #1
 8004f4a:	d045      	beq.n	8004fd8 <HAL_RCCEx_GetPeriphCLKFreq+0xbc>
 8004f4c:	687b      	ldr	r3, [r7, #4]
 8004f4e:	2b02      	cmp	r3, #2
 8004f50:	d075      	beq.n	800503e <HAL_RCCEx_GetPeriphCLKFreq+0x122>
 8004f52:	e082      	b.n	800505a <HAL_RCCEx_GetPeriphCLKFreq+0x13e>
 8004f54:	4b46      	ldr	r3, [pc, #280]	@ (8005070 <HAL_RCCEx_GetPeriphCLKFreq+0x154>)
 8004f56:	685b      	ldr	r3, [r3, #4]
 8004f58:	60fb      	str	r3, [r7, #12]
 8004f5a:	4b45      	ldr	r3, [pc, #276]	@ (8005070 <HAL_RCCEx_GetPeriphCLKFreq+0x154>)
 8004f5c:	681b      	ldr	r3, [r3, #0]
 8004f5e:	f003 7380 	and.w	r3, r3, #16777216	@ 0x1000000
 8004f62:	2b00      	cmp	r3, #0
 8004f64:	d07b      	beq.n	800505e <HAL_RCCEx_GetPeriphCLKFreq+0x142>
 8004f66:	68fb      	ldr	r3, [r7, #12]
 8004f68:	0c9b      	lsrs	r3, r3, #18
 8004f6a:	f003 030f 	and.w	r3, r3, #15
 8004f6e:	4a41      	ldr	r2, [pc, #260]	@ (8005074 <HAL_RCCEx_GetPeriphCLKFreq+0x158>)
 8004f70:	5cd3      	ldrb	r3, [r2, r3]
 8004f72:	613b      	str	r3, [r7, #16]
 8004f74:	68fb      	ldr	r3, [r7, #12]
 8004f76:	f403 3380 	and.w	r3, r3, #65536	@ 0x10000
 8004f7a:	2b00      	cmp	r3, #0
 8004f7c:	d015      	beq.n	8004faa <HAL_RCCEx_GetPeriphCLKFreq+0x8e>
 8004f7e:	4b3c      	ldr	r3, [pc, #240]	@ (8005070 <HAL_RCCEx_GetPeriphCLKFreq+0x154>)
 8004f80:	685b      	ldr	r3, [r3, #4]
 8004f82:	0c5b      	lsrs	r3, r3, #17
 8004f84:	f003 0301 	and.w	r3, r3, #1
 8004f88:	4a3b      	ldr	r2, [pc, #236]	@ (8005078 <HAL_RCCEx_GetPeriphCLKFreq+0x15c>)
 8004f8a:	5cd3      	ldrb	r3, [r2, r3]
 8004f8c:	617b      	str	r3, [r7, #20]
 8004f8e:	68fb      	ldr	r3, [r7, #12]
 8004f90:	f403 3380 	and.w	r3, r3, #65536	@ 0x10000
 8004f94:	2b00      	cmp	r3, #0
 8004f96:	d00d      	beq.n	8004fb4 <HAL_RCCEx_GetPeriphCLKFreq+0x98>
 8004f98:	4a38      	ldr	r2, [pc, #224]	@ (800507c <HAL_RCCEx_GetPeriphCLKFreq+0x160>)
 8004f9a:	697b      	ldr	r3, [r7, #20]
 8004f9c:	fbb2 f2f3 	udiv	r2, r2, r3
 8004fa0:	693b      	ldr	r3, [r7, #16]
 8004fa2:	fb02 f303 	mul.w	r3, r2, r3
 8004fa6:	61fb      	str	r3, [r7, #28]
 8004fa8:	e004      	b.n	8004fb4 <HAL_RCCEx_GetPeriphCLKFreq+0x98>
 8004faa:	693b      	ldr	r3, [r7, #16]
 8004fac:	4a34      	ldr	r2, [pc, #208]	@ (8005080 <HAL_RCCEx_GetPeriphCLKFreq+0x164>)
 8004fae:	fb02 f303 	mul.w	r3, r2, r3
 8004fb2:	61fb      	str	r3, [r7, #28]
 8004fb4:	4b2e      	ldr	r3, [pc, #184]	@ (8005070 <HAL_RCCEx_GetPeriphCLKFreq+0x154>)
 8004fb6:	685b      	ldr	r3, [r3, #4]
 8004fb8:	f403 0380 	and.w	r3, r3, #4194304	@ 0x400000
 8004fbc:	f5b3 0f80 	cmp.w	r3, #4194304	@ 0x400000
 8004fc0:	d102      	bne.n	8004fc8 <HAL_RCCEx_GetPeriphCLKFreq+0xac>
 8004fc2:	69fb      	ldr	r3, [r7, #28]
 8004fc4:	61bb      	str	r3, [r7, #24]
 8004fc6:	e04a      	b.n	800505e <HAL_RCCEx_GetPeriphCLKFreq+0x142>
 8004fc8:	69fb      	ldr	r3, [r7, #28]
 8004fca:	005b      	lsls	r3, r3, #1
 8004fcc:	4a2d      	ldr	r2, [pc, #180]	@ (8005084 <HAL_RCCEx_GetPeriphCLKFreq+0x168>)
 8004fce:	fba2 2303 	umull	r2, r3, r2, r3
 8004fd2:	085b      	lsrs	r3, r3, #1
 8004fd4:	61bb      	str	r3, [r7, #24]
 8004fd6:	e042      	b.n	800505e <HAL_RCCEx_GetPeriphCLKFreq+0x142>
 8004fd8:	4b25      	ldr	r3, [pc, #148]	@ (8005070 <HAL_RCCEx_GetPeriphCLKFreq+0x154>)
 8004fda:	6a1b      	ldr	r3, [r3, #32]
 8004fdc:	60fb      	str	r3, [r7, #12]
 8004fde:	68fb      	ldr	r3, [r7, #12]
 8004fe0:	f403 7340 	and.w	r3, r3, #768	@ 0x300
 8004fe4:	f5b3 7f80 	cmp.w	r3, #256	@ 0x100
 8004fe8:	d108      	bne.n	8004ffc <HAL_RCCEx_GetPeriphCLKFreq+0xe0>
 8004fea:	68fb      	ldr	r3, [r7, #12]
 8004fec:	f003 0302 	and.w	r3, r3, #2
 8004ff0:	2b00      	cmp	r3, #0
 8004ff2:	d003      	beq.n	8004ffc <HAL_RCCEx_GetPeriphCLKFreq+0xe0>
 8004ff4:	f44f 4300 	mov.w	r3, #32768	@ 0x8000
 8004ff8:	61bb      	str	r3, [r7, #24]
 8004ffa:	e01f      	b.n	800503c <HAL_RCCEx_GetPeriphCLKFreq+0x120>
 8004ffc:	68fb      	ldr	r3, [r7, #12]
 8004ffe:	f403 7340 	and.w	r3, r3, #768	@ 0x300
 8005002:	f5b3 7f00 	cmp.w	r3, #512	@ 0x200
 8005006:	d109      	bne.n	800501c <HAL_RCCEx_GetPeriphCLKFreq+0x100>
 8005008:	4b19      	ldr	r3, [pc, #100]	@ (8005070 <HAL_RCCEx_GetPeriphCLKFreq+0x154>)
 800500a:	6a5b      	ldr	r3, [r3, #36]	@ 0x24
 800500c:	f003 0302 	and.w	r3, r3, #2
 8005010:	2b00      	cmp	r3, #0
 8005012:	d003      	beq.n	800501c <HAL_RCCEx_GetPeriphCLKFreq+0x100>
 8005014:	f649 4340 	movw	r3, #40000	@ 0x9c40
 8005018:	61bb      	str	r3, [r7, #24]
 800501a:	e00f      	b.n	800503c <HAL_RCCEx_GetPeriphCLKFreq+0x120>
 800501c:	68fb      	ldr	r3, [r7, #12]
 800501e:	f403 7340 	and.w	r3, r3, #768	@ 0x300
 8005022:	f5b3 7f40 	cmp.w	r3, #768	@ 0x300
 8005026:	d11c      	bne.n	8005062 <HAL_RCCEx_GetPeriphCLKFreq+0x146>
 8005028:	4b11      	ldr	r3, [pc, #68]	@ (8005070 <HAL_RCCEx_GetPeriphCLKFreq+0x154>)
 800502a:	681b      	ldr	r3, [r3, #0]
 800502c:	f403 3300 	and.w	r3, r3, #131072	@ 0x20000
 8005030:	2b00      	cmp	r3, #0
 8005032:	d016      	beq.n	8005062 <HAL_RCCEx_GetPeriphCLKFreq+0x146>
 8005034:	f24f 4324 	movw	r3, #62500	@ 0xf424
 8005038:	61bb      	str	r3, [r7, #24]
 800503a:	e012      	b.n	8005062 <HAL_RCCEx_GetPeriphCLKFreq+0x146>
 800503c:	e011      	b.n	8005062 <HAL_RCCEx_GetPeriphCLKFreq+0x146>
 800503e:	f7ff fe85 	bl	8004d4c <HAL_RCC_GetPCLK2Freq>
 8005042:	4602      	mov	r2, r0
 8005044:	4b0a      	ldr	r3, [pc, #40]	@ (8005070 <HAL_RCCEx_GetPeriphCLKFreq+0x154>)
 8005046:	685b      	ldr	r3, [r3, #4]
 8005048:	0b9b      	lsrs	r3, r3, #14
 800504a:	f003 0303 	and.w	r3, r3, #3
 800504e:	3301      	adds	r3, #1
 8005050:	005b      	lsls	r3, r3, #1
 8005052:	fbb2 f3f3 	udiv	r3, r2, r3
 8005056:	61bb      	str	r3, [r7, #24]
 8005058:	e004      	b.n	8005064 <HAL_RCCEx_GetPeriphCLKFreq+0x148>
 800505a:	bf00      	nop
 800505c:	e002      	b.n	8005064 <HAL_RCCEx_GetPeriphCLKFreq+0x148>
 800505e:	bf00      	nop
 8005060:	e000      	b.n	8005064 <HAL_RCCEx_GetPeriphCLKFreq+0x148>
 8005062:	bf00      	nop
 8005064:	69bb      	ldr	r3, [r7, #24]
 8005066:	4618      	mov	r0, r3
 8005068:	3720      	adds	r7, #32
 800506a:	46bd      	mov	sp, r7
 800506c:	bd80      	pop	{r7, pc}
 800506e:	bf00      	nop
 8005070:	40021000 	.word	0x40021000
 8005074:	08007004 	.word	0x08007004
 8005078:	08007014 	.word	0x08007014
 800507c:	007a1200 	.word	0x007a1200
 8005080:	003d0900 	.word	0x003d0900
 8005084:	aaaaaaab 	.word	0xaaaaaaab

08005088 <HAL_TIM_Base_Init>:
 8005088:	b580      	push	{r7, lr}
 800508a:	b082      	sub	sp, #8
 800508c:	af00      	add	r7, sp, #0
 800508e:	6078      	str	r0, [r7, #4]
 8005090:	687b      	ldr	r3, [r7, #4]
 8005092:	2b00      	cmp	r3, #0
 8005094:	d101      	bne.n	800509a <HAL_TIM_Base_Init+0x12>
 8005096:	2301      	movs	r3, #1
 8005098:	e041      	b.n	800511e <HAL_TIM_Base_Init+0x96>
 800509a:	687b      	ldr	r3, [r7, #4]
 800509c:	f893 303d 	ldrb.w	r3, [r3, #61]	@ 0x3d
 80050a0:	b2db      	uxtb	r3, r3
 80050a2:	2b00      	cmp	r3, #0
 80050a4:	d106      	bne.n	80050b4 <HAL_TIM_Base_Init+0x2c>
 80050a6:	687b      	ldr	r3, [r7, #4]
 80050a8:	2200      	movs	r2, #0
 80050aa:	f883 203c 	strb.w	r2, [r3, #60]	@ 0x3c
 80050ae:	6878      	ldr	r0, [r7, #4]
 80050b0:	f7fc fdc2 	bl	8001c38 <HAL_TIM_Base_MspInit>
 80050b4:	687b      	ldr	r3, [r7, #4]
 80050b6:	2202      	movs	r2, #2
 80050b8:	f883 203d 	strb.w	r2, [r3, #61]	@ 0x3d
 80050bc:	687b      	ldr	r3, [r7, #4]
 80050be:	681a      	ldr	r2, [r3, #0]
 80050c0:	687b      	ldr	r3, [r7, #4]
 80050c2:	3304      	adds	r3, #4
 80050c4:	4619      	mov	r1, r3
 80050c6:	4610      	mov	r0, r2
 80050c8:	f000 fa5c 	bl	8005584 <TIM_Base_SetConfig>
 80050cc:	687b      	ldr	r3, [r7, #4]
 80050ce:	2201      	movs	r2, #1
 80050d0:	f883 2046 	strb.w	r2, [r3, #70]	@ 0x46
 80050d4:	687b      	ldr	r3, [r7, #4]
 80050d6:	2201      	movs	r2, #1
 80050d8:	f883 203e 	strb.w	r2, [r3, #62]	@ 0x3e
 80050dc:	687b      	ldr	r3, [r7, #4]
 80050de:	2201      	movs	r2, #1
 80050e0:	f883 203f 	strb.w	r2, [r3, #63]	@ 0x3f
 80050e4:	687b      	ldr	r3, [r7, #4]
 80050e6:	2201      	movs	r2, #1
 80050e8:	f883 2040 	strb.w	r2, [r3, #64]	@ 0x40
 80050ec:	687b      	ldr	r3, [r7, #4]
 80050ee:	2201      	movs	r2, #1
 80050f0:	f883 2041 	strb.w	r2, [r3, #65]	@ 0x41
 80050f4:	687b      	ldr	r3, [r7, #4]
 80050f6:	2201      	movs	r2, #1
 80050f8:	f883 2042 	strb.w	r2, [r3, #66]	@ 0x42
 80050fc:	687b      	ldr	r3, [r7, #4]
 80050fe:	2201      	movs	r2, #1
 8005100:	f883 2043 	strb.w	r2, [r3, #67]	@ 0x43
 8005104:	687b      	ldr	r3, [r7, #4]
 8005106:	2201      	movs	r2, #1
 8005108:	f883 2044 	strb.w	r2, [r3, #68]	@ 0x44
 800510c:	687b      	ldr	r3, [r7, #4]
 800510e:	2201      	movs	r2, #1
 8005110:	f883 2045 	strb.w	r2, [r3, #69]	@ 0x45
 8005114:	687b      	ldr	r3, [r7, #4]
 8005116:	2201      	movs	r2, #1
 8005118:	f883 203d 	strb.w	r2, [r3, #61]	@ 0x3d
 800511c:	2300      	movs	r3, #0
 800511e:	4618      	mov	r0, r3
 8005120:	3708      	adds	r7, #8
 8005122:	46bd      	mov	sp, r7
 8005124:	bd80      	pop	{r7, pc}
	...

08005128 <HAL_TIM_Base_Start_IT>:
 8005128:	b480      	push	{r7}
 800512a:	b085      	sub	sp, #20
 800512c:	af00      	add	r7, sp, #0
 800512e:	6078      	str	r0, [r7, #4]
 8005130:	687b      	ldr	r3, [r7, #4]
 8005132:	f893 303d 	ldrb.w	r3, [r3, #61]	@ 0x3d
 8005136:	b2db      	uxtb	r3, r3
 8005138:	2b01      	cmp	r3, #1
 800513a:	d001      	beq.n	8005140 <HAL_TIM_Base_Start_IT+0x18>
 800513c:	2301      	movs	r3, #1
 800513e:	e03a      	b.n	80051b6 <HAL_TIM_Base_Start_IT+0x8e>
 8005140:	687b      	ldr	r3, [r7, #4]
 8005142:	2202      	movs	r2, #2
 8005144:	f883 203d 	strb.w	r2, [r3, #61]	@ 0x3d
 8005148:	687b      	ldr	r3, [r7, #4]
 800514a:	681b      	ldr	r3, [r3, #0]
 800514c:	68da      	ldr	r2, [r3, #12]
 800514e:	687b      	ldr	r3, [r7, #4]
 8005150:	681b      	ldr	r3, [r3, #0]
 8005152:	f042 0201 	orr.w	r2, r2, #1
 8005156:	60da      	str	r2, [r3, #12]
 8005158:	687b      	ldr	r3, [r7, #4]
 800515a:	681b      	ldr	r3, [r3, #0]
 800515c:	4a18      	ldr	r2, [pc, #96]	@ (80051c0 <HAL_TIM_Base_Start_IT+0x98>)
 800515e:	4293      	cmp	r3, r2
 8005160:	d00e      	beq.n	8005180 <HAL_TIM_Base_Start_IT+0x58>
 8005162:	687b      	ldr	r3, [r7, #4]
 8005164:	681b      	ldr	r3, [r3, #0]
 8005166:	f1b3 4f80 	cmp.w	r3, #1073741824	@ 0x40000000
 800516a:	d009      	beq.n	8005180 <HAL_TIM_Base_Start_IT+0x58>
 800516c:	687b      	ldr	r3, [r7, #4]
 800516e:	681b      	ldr	r3, [r3, #0]
 8005170:	4a14      	ldr	r2, [pc, #80]	@ (80051c4 <HAL_TIM_Base_Start_IT+0x9c>)
 8005172:	4293      	cmp	r3, r2
 8005174:	d004      	beq.n	8005180 <HAL_TIM_Base_Start_IT+0x58>
 8005176:	687b      	ldr	r3, [r7, #4]
 8005178:	681b      	ldr	r3, [r3, #0]
 800517a:	4a13      	ldr	r2, [pc, #76]	@ (80051c8 <HAL_TIM_Base_Start_IT+0xa0>)
 800517c:	4293      	cmp	r3, r2
 800517e:	d111      	bne.n	80051a4 <HAL_TIM_Base_Start_IT+0x7c>
 8005180:	687b      	ldr	r3, [r7, #4]
 8005182:	681b      	ldr	r3, [r3, #0]
 8005184:	689b      	ldr	r3, [r3, #8]
 8005186:	f003 0307 	and.w	r3, r3, #7
 800518a:	60fb      	str	r3, [r7, #12]
 800518c:	68fb      	ldr	r3, [r7, #12]
 800518e:	2b06      	cmp	r3, #6
 8005190:	d010      	beq.n	80051b4 <HAL_TIM_Base_Start_IT+0x8c>
 8005192:	687b      	ldr	r3, [r7, #4]
 8005194:	681b      	ldr	r3, [r3, #0]
 8005196:	681a      	ldr	r2, [r3, #0]
 8005198:	687b      	ldr	r3, [r7, #4]
 800519a:	681b      	ldr	r3, [r3, #0]
 800519c:	f042 0201 	orr.w	r2, r2, #1
 80051a0:	601a      	str	r2, [r3, #0]
 80051a2:	e007      	b.n	80051b4 <HAL_TIM_Base_Start_IT+0x8c>
 80051a4:	687b      	ldr	r3, [r7, #4]
 80051a6:	681b      	ldr	r3, [r3, #0]
 80051a8:	681a      	ldr	r2, [r3, #0]
 80051aa:	687b      	ldr	r3, [r7, #4]
 80051ac:	681b      	ldr	r3, [r3, #0]
 80051ae:	f042 0201 	orr.w	r2, r2, #1
 80051b2:	601a      	str	r2, [r3, #0]
 80051b4:	2300      	movs	r3, #0
 80051b6:	4618      	mov	r0, r3
 80051b8:	3714      	adds	r7, #20
 80051ba:	46bd      	mov	sp, r7
 80051bc:	bc80      	pop	{r7}
 80051be:	4770      	bx	lr
 80051c0:	40012c00 	.word	0x40012c00
 80051c4:	40000400 	.word	0x40000400
 80051c8:	40000800 	.word	0x40000800

080051cc <HAL_TIM_IRQHandler>:
 80051cc:	b580      	push	{r7, lr}
 80051ce:	b084      	sub	sp, #16
 80051d0:	af00      	add	r7, sp, #0
 80051d2:	6078      	str	r0, [r7, #4]
 80051d4:	687b      	ldr	r3, [r7, #4]
 80051d6:	681b      	ldr	r3, [r3, #0]
 80051d8:	68db      	ldr	r3, [r3, #12]
 80051da:	60fb      	str	r3, [r7, #12]
 80051dc:	687b      	ldr	r3, [r7, #4]
 80051de:	681b      	ldr	r3, [r3, #0]
 80051e0:	691b      	ldr	r3, [r3, #16]
 80051e2:	60bb      	str	r3, [r7, #8]
 80051e4:	68bb      	ldr	r3, [r7, #8]
 80051e6:	f003 0302 	and.w	r3, r3, #2
 80051ea:	2b00      	cmp	r3, #0
 80051ec:	d020      	beq.n	8005230 <HAL_TIM_IRQHandler+0x64>
 80051ee:	68fb      	ldr	r3, [r7, #12]
 80051f0:	f003 0302 	and.w	r3, r3, #2
 80051f4:	2b00      	cmp	r3, #0
 80051f6:	d01b      	beq.n	8005230 <HAL_TIM_IRQHandler+0x64>
 80051f8:	687b      	ldr	r3, [r7, #4]
 80051fa:	681b      	ldr	r3, [r3, #0]
 80051fc:	f06f 0202 	mvn.w	r2, #2
 8005200:	611a      	str	r2, [r3, #16]
 8005202:	687b      	ldr	r3, [r7, #4]
 8005204:	2201      	movs	r2, #1
 8005206:	771a      	strb	r2, [r3, #28]
 8005208:	687b      	ldr	r3, [r7, #4]
 800520a:	681b      	ldr	r3, [r3, #0]
 800520c:	699b      	ldr	r3, [r3, #24]
 800520e:	f003 0303 	and.w	r3, r3, #3
 8005212:	2b00      	cmp	r3, #0
 8005214:	d003      	beq.n	800521e <HAL_TIM_IRQHandler+0x52>
 8005216:	6878      	ldr	r0, [r7, #4]
 8005218:	f000 f998 	bl	800554c <HAL_TIM_IC_CaptureCallback>
 800521c:	e005      	b.n	800522a <HAL_TIM_IRQHandler+0x5e>
 800521e:	6878      	ldr	r0, [r7, #4]
 8005220:	f000 f98b 	bl	800553a <HAL_TIM_OC_DelayElapsedCallback>
 8005224:	6878      	ldr	r0, [r7, #4]
 8005226:	f000 f99a 	bl	800555e <HAL_TIM_PWM_PulseFinishedCallback>
 800522a:	687b      	ldr	r3, [r7, #4]
 800522c:	2200      	movs	r2, #0
 800522e:	771a      	strb	r2, [r3, #28]
 8005230:	68bb      	ldr	r3, [r7, #8]
 8005232:	f003 0304 	and.w	r3, r3, #4
 8005236:	2b00      	cmp	r3, #0
 8005238:	d020      	beq.n	800527c <HAL_TIM_IRQHandler+0xb0>
 800523a:	68fb      	ldr	r3, [r7, #12]
 800523c:	f003 0304 	and.w	r3, r3, #4
 8005240:	2b00      	cmp	r3, #0
 8005242:	d01b      	beq.n	800527c <HAL_TIM_IRQHandler+0xb0>
 8005244:	687b      	ldr	r3, [r7, #4]
 8005246:	681b      	ldr	r3, [r3, #0]
 8005248:	f06f 0204 	mvn.w	r2, #4
 800524c:	611a      	str	r2, [r3, #16]
 800524e:	687b      	ldr	r3, [r7, #4]
 8005250:	2202      	movs	r2, #2
 8005252:	771a      	strb	r2, [r3, #28]
 8005254:	687b      	ldr	r3, [r7, #4]
 8005256:	681b      	ldr	r3, [r3, #0]
 8005258:	699b      	ldr	r3, [r3, #24]
 800525a:	f403 7340 	and.w	r3, r3, #768	@ 0x300
 800525e:	2b00      	cmp	r3, #0
 8005260:	d003      	beq.n	800526a <HAL_TIM_IRQHandler+0x9e>
 8005262:	6878      	ldr	r0, [r7, #4]
 8005264:	f000 f972 	bl	800554c <HAL_TIM_IC_CaptureCallback>
 8005268:	e005      	b.n	8005276 <HAL_TIM_IRQHandler+0xaa>
 800526a:	6878      	ldr	r0, [r7, #4]
 800526c:	f000 f965 	bl	800553a <HAL_TIM_OC_DelayElapsedCallback>
 8005270:	6878      	ldr	r0, [r7, #4]
 8005272:	f000 f974 	bl	800555e <HAL_TIM_PWM_PulseFinishedCallback>
 8005276:	687b      	ldr	r3, [r7, #4]
 8005278:	2200      	movs	r2, #0
 800527a:	771a      	strb	r2, [r3, #28]
 800527c:	68bb      	ldr	r3, [r7, #8]
 800527e:	f003 0308 	and.w	r3, r3, #8
 8005282:	2b00      	cmp	r3, #0
 8005284:	d020      	beq.n	80052c8 <HAL_TIM_IRQHandler+0xfc>
 8005286:	68fb      	ldr	r3, [r7, #12]
 8005288:	f003 0308 	and.w	r3, r3, #8
 800528c:	2b00      	cmp	r3, #0
 800528e:	d01b      	beq.n	80052c8 <HAL_TIM_IRQHandler+0xfc>
 8005290:	687b      	ldr	r3, [r7, #4]
 8005292:	681b      	ldr	r3, [r3, #0]
 8005294:	f06f 0208 	mvn.w	r2, #8
 8005298:	611a      	str	r2, [r3, #16]
 800529a:	687b      	ldr	r3, [r7, #4]
 800529c:	2204      	movs	r2, #4
 800529e:	771a      	strb	r2, [r3, #28]
 80052a0:	687b      	ldr	r3, [r7, #4]
 80052a2:	681b      	ldr	r3, [r3, #0]
 80052a4:	69db      	ldr	r3, [r3, #28]
 80052a6:	f003 0303 	and.w	r3, r3, #3
 80052aa:	2b00      	cmp	r3, #0
 80052ac:	d003      	beq.n	80052b6 <HAL_TIM_IRQHandler+0xea>
 80052ae:	6878      	ldr	r0, [r7, #4]
 80052b0:	f000 f94c 	bl	800554c <HAL_TIM_IC_CaptureCallback>
 80052b4:	e005      	b.n	80052c2 <HAL_TIM_IRQHandler+0xf6>
 80052b6:	6878      	ldr	r0, [r7, #4]
 80052b8:	f000 f93f 	bl	800553a <HAL_TIM_OC_DelayElapsedCallback>
 80052bc:	6878      	ldr	r0, [r7, #4]
 80052be:	f000 f94e 	bl	800555e <HAL_TIM_PWM_PulseFinishedCallback>
 80052c2:	687b      	ldr	r3, [r7, #4]
 80052c4:	2200      	movs	r2, #0
 80052c6:	771a      	strb	r2, [r3, #28]
 80052c8:	68bb      	ldr	r3, [r7, #8]
 80052ca:	f003 0310 	and.w	r3, r3, #16
 80052ce:	2b00      	cmp	r3, #0
 80052d0:	d020      	beq.n	8005314 <HAL_TIM_IRQHandler+0x148>
 80052d2:	68fb      	ldr	r3, [r7, #12]
 80052d4:	f003 0310 	and.w	r3, r3, #16
 80052d8:	2b00      	cmp	r3, #0
 80052da:	d01b      	beq.n	8005314 <HAL_TIM_IRQHandler+0x148>
 80052dc:	687b      	ldr	r3, [r7, #4]
 80052de:	681b      	ldr	r3, [r3, #0]
 80052e0:	f06f 0210 	mvn.w	r2, #16
 80052e4:	611a      	str	r2, [r3, #16]
 80052e6:	687b      	ldr	r3, [r7, #4]
 80052e8:	2208      	movs	r2, #8
 80052ea:	771a      	strb	r2, [r3, #28]
 80052ec:	687b      	ldr	r3, [r7, #4]
 80052ee:	681b      	ldr	r3, [r3, #0]
 80052f0:	69db      	ldr	r3, [r3, #28]
 80052f2:	f403 7340 	and.w	r3, r3, #768	@ 0x300
 80052f6:	2b00      	cmp	r3, #0
 80052f8:	d003      	beq.n	8005302 <HAL_TIM_IRQHandler+0x136>
 80052fa:	6878      	ldr	r0, [r7, #4]
 80052fc:	f000 f926 	bl	800554c <HAL_TIM_IC_CaptureCallback>
 8005300:	e005      	b.n	800530e <HAL_TIM_IRQHandler+0x142>
 8005302:	6878      	ldr	r0, [r7, #4]
 8005304:	f000 f919 	bl	800553a <HAL_TIM_OC_DelayElapsedCallback>
 8005308:	6878      	ldr	r0, [r7, #4]
 800530a:	f000 f928 	bl	800555e <HAL_TIM_PWM_PulseFinishedCallback>
 800530e:	687b      	ldr	r3, [r7, #4]
 8005310:	2200      	movs	r2, #0
 8005312:	771a      	strb	r2, [r3, #28]
 8005314:	68bb      	ldr	r3, [r7, #8]
 8005316:	f003 0301 	and.w	r3, r3, #1
 800531a:	2b00      	cmp	r3, #0
 800531c:	d00c      	beq.n	8005338 <HAL_TIM_IRQHandler+0x16c>
 800531e:	68fb      	ldr	r3, [r7, #12]
 8005320:	f003 0301 	and.w	r3, r3, #1
 8005324:	2b00      	cmp	r3, #0
 8005326:	d007      	beq.n	8005338 <HAL_TIM_IRQHandler+0x16c>
 8005328:	687b      	ldr	r3, [r7, #4]
 800532a:	681b      	ldr	r3, [r3, #0]
 800532c:	f06f 0201 	mvn.w	r2, #1
 8005330:	611a      	str	r2, [r3, #16]
 8005332:	6878      	ldr	r0, [r7, #4]
 8005334:	f7fb fefa 	bl	800112c <HAL_TIM_PeriodElapsedCallback>
 8005338:	68bb      	ldr	r3, [r7, #8]
 800533a:	f003 0380 	and.w	r3, r3, #128	@ 0x80
 800533e:	2b00      	cmp	r3, #0
 8005340:	d00c      	beq.n	800535c <HAL_TIM_IRQHandler+0x190>
 8005342:	68fb      	ldr	r3, [r7, #12]
 8005344:	f003 0380 	and.w	r3, r3, #128	@ 0x80
 8005348:	2b00      	cmp	r3, #0
 800534a:	d007      	beq.n	800535c <HAL_TIM_IRQHandler+0x190>
 800534c:	687b      	ldr	r3, [r7, #4]
 800534e:	681b      	ldr	r3, [r3, #0]
 8005350:	f06f 0280 	mvn.w	r2, #128	@ 0x80
 8005354:	611a      	str	r2, [r3, #16]
 8005356:	6878      	ldr	r0, [r7, #4]
 8005358:	f000 fa7f 	bl	800585a <HAL_TIMEx_BreakCallback>
 800535c:	68bb      	ldr	r3, [r7, #8]
 800535e:	f003 0340 	and.w	r3, r3, #64	@ 0x40
 8005362:	2b00      	cmp	r3, #0
 8005364:	d00c      	beq.n	8005380 <HAL_TIM_IRQHandler+0x1b4>
 8005366:	68fb      	ldr	r3, [r7, #12]
 8005368:	f003 0340 	and.w	r3, r3, #64	@ 0x40
 800536c:	2b00      	cmp	r3, #0
 800536e:	d007      	beq.n	8005380 <HAL_TIM_IRQHandler+0x1b4>
 8005370:	687b      	ldr	r3, [r7, #4]
 8005372:	681b      	ldr	r3, [r3, #0]
 8005374:	f06f 0240 	mvn.w	r2, #64	@ 0x40
 8005378:	611a      	str	r2, [r3, #16]
 800537a:	6878      	ldr	r0, [r7, #4]
 800537c:	f000 f8f8 	bl	8005570 <HAL_TIM_TriggerCallback>
 8005380:	68bb      	ldr	r3, [r7, #8]
 8005382:	f003 0320 	and.w	r3, r3, #32
 8005386:	2b00      	cmp	r3, #0
 8005388:	d00c      	beq.n	80053a4 <HAL_TIM_IRQHandler+0x1d8>
 800538a:	68fb      	ldr	r3, [r7, #12]
 800538c:	f003 0320 	and.w	r3, r3, #32
 8005390:	2b00      	cmp	r3, #0
 8005392:	d007      	beq.n	80053a4 <HAL_TIM_IRQHandler+0x1d8>
 8005394:	687b      	ldr	r3, [r7, #4]
 8005396:	681b      	ldr	r3, [r3, #0]
 8005398:	f06f 0220 	mvn.w	r2, #32
 800539c:	611a      	str	r2, [r3, #16]
 800539e:	6878      	ldr	r0, [r7, #4]
 80053a0:	f000 fa52 	bl	8005848 <HAL_TIMEx_CommutCallback>
 80053a4:	bf00      	nop
 80053a6:	3710      	adds	r7, #16
 80053a8:	46bd      	mov	sp, r7
 80053aa:	bd80      	pop	{r7, pc}

080053ac <HAL_TIM_ConfigClockSource>:
 80053ac:	b580      	push	{r7, lr}
 80053ae:	b084      	sub	sp, #16
 80053b0:	af00      	add	r7, sp, #0
 80053b2:	6078      	str	r0, [r7, #4]
 80053b4:	6039      	str	r1, [r7, #0]
 80053b6:	2300      	movs	r3, #0
 80053b8:	73fb      	strb	r3, [r7, #15]
 80053ba:	687b      	ldr	r3, [r7, #4]
 80053bc:	f893 303c 	ldrb.w	r3, [r3, #60]	@ 0x3c
 80053c0:	2b01      	cmp	r3, #1
 80053c2:	d101      	bne.n	80053c8 <HAL_TIM_ConfigClockSource+0x1c>
 80053c4:	2302      	movs	r3, #2
 80053c6:	e0b4      	b.n	8005532 <HAL_TIM_ConfigClockSource+0x186>
 80053c8:	687b      	ldr	r3, [r7, #4]
 80053ca:	2201      	movs	r2, #1
 80053cc:	f883 203c 	strb.w	r2, [r3, #60]	@ 0x3c
 80053d0:	687b      	ldr	r3, [r7, #4]
 80053d2:	2202      	movs	r2, #2
 80053d4:	f883 203d 	strb.w	r2, [r3, #61]	@ 0x3d
 80053d8:	687b      	ldr	r3, [r7, #4]
 80053da:	681b      	ldr	r3, [r3, #0]
 80053dc:	689b      	ldr	r3, [r3, #8]
 80053de:	60bb      	str	r3, [r7, #8]
 80053e0:	68bb      	ldr	r3, [r7, #8]
 80053e2:	f023 0377 	bic.w	r3, r3, #119	@ 0x77
 80053e6:	60bb      	str	r3, [r7, #8]
 80053e8:	68bb      	ldr	r3, [r7, #8]
 80053ea:	f423 437f 	bic.w	r3, r3, #65280	@ 0xff00
 80053ee:	60bb      	str	r3, [r7, #8]
 80053f0:	687b      	ldr	r3, [r7, #4]
 80053f2:	681b      	ldr	r3, [r3, #0]
 80053f4:	68ba      	ldr	r2, [r7, #8]
 80053f6:	609a      	str	r2, [r3, #8]
 80053f8:	683b      	ldr	r3, [r7, #0]
 80053fa:	681b      	ldr	r3, [r3, #0]
 80053fc:	f5b3 5f00 	cmp.w	r3, #8192	@ 0x2000
 8005400:	d03e      	beq.n	8005480 <HAL_TIM_ConfigClockSource+0xd4>
 8005402:	f5b3 5f00 	cmp.w	r3, #8192	@ 0x2000
 8005406:	f200 8087 	bhi.w	8005518 <HAL_TIM_ConfigClockSource+0x16c>
 800540a:	f5b3 5f80 	cmp.w	r3, #4096	@ 0x1000
 800540e:	f000 8086 	beq.w	800551e <HAL_TIM_ConfigClockSource+0x172>
 8005412:	f5b3 5f80 	cmp.w	r3, #4096	@ 0x1000
 8005416:	d87f      	bhi.n	8005518 <HAL_TIM_ConfigClockSource+0x16c>
 8005418:	2b70      	cmp	r3, #112	@ 0x70
 800541a:	d01a      	beq.n	8005452 <HAL_TIM_ConfigClockSource+0xa6>
 800541c:	2b70      	cmp	r3, #112	@ 0x70
 800541e:	d87b      	bhi.n	8005518 <HAL_TIM_ConfigClockSource+0x16c>
 8005420:	2b60      	cmp	r3, #96	@ 0x60
 8005422:	d050      	beq.n	80054c6 <HAL_TIM_ConfigClockSource+0x11a>
 8005424:	2b60      	cmp	r3, #96	@ 0x60
 8005426:	d877      	bhi.n	8005518 <HAL_TIM_ConfigClockSource+0x16c>
 8005428:	2b50      	cmp	r3, #80	@ 0x50
 800542a:	d03c      	beq.n	80054a6 <HAL_TIM_ConfigClockSource+0xfa>
 800542c:	2b50      	cmp	r3, #80	@ 0x50
 800542e:	d873      	bhi.n	8005518 <HAL_TIM_ConfigClockSource+0x16c>
 8005430:	2b40      	cmp	r3, #64	@ 0x40
 8005432:	d058      	beq.n	80054e6 <HAL_TIM_ConfigClockSource+0x13a>
 8005434:	2b40      	cmp	r3, #64	@ 0x40
 8005436:	d86f      	bhi.n	8005518 <HAL_TIM_ConfigClockSource+0x16c>
 8005438:	2b30      	cmp	r3, #48	@ 0x30
 800543a:	d064      	beq.n	8005506 <HAL_TIM_ConfigClockSource+0x15a>
 800543c:	2b30      	cmp	r3, #48	@ 0x30
 800543e:	d86b      	bhi.n	8005518 <HAL_TIM_ConfigClockSource+0x16c>
 8005440:	2b20      	cmp	r3, #32
 8005442:	d060      	beq.n	8005506 <HAL_TIM_ConfigClockSource+0x15a>
 8005444:	2b20      	cmp	r3, #32
 8005446:	d867      	bhi.n	8005518 <HAL_TIM_ConfigClockSource+0x16c>
 8005448:	2b00      	cmp	r3, #0
 800544a:	d05c      	beq.n	8005506 <HAL_TIM_ConfigClockSource+0x15a>
 800544c:	2b10      	cmp	r3, #16
 800544e:	d05a      	beq.n	8005506 <HAL_TIM_ConfigClockSource+0x15a>
 8005450:	e062      	b.n	8005518 <HAL_TIM_ConfigClockSource+0x16c>
 8005452:	687b      	ldr	r3, [r7, #4]
 8005454:	6818      	ldr	r0, [r3, #0]
 8005456:	683b      	ldr	r3, [r7, #0]
 8005458:	6899      	ldr	r1, [r3, #8]
 800545a:	683b      	ldr	r3, [r7, #0]
 800545c:	685a      	ldr	r2, [r3, #4]
 800545e:	683b      	ldr	r3, [r7, #0]
 8005460:	68db      	ldr	r3, [r3, #12]
 8005462:	f000 f974 	bl	800574e <TIM_ETR_SetConfig>
 8005466:	687b      	ldr	r3, [r7, #4]
 8005468:	681b      	ldr	r3, [r3, #0]
 800546a:	689b      	ldr	r3, [r3, #8]
 800546c:	60bb      	str	r3, [r7, #8]
 800546e:	68bb      	ldr	r3, [r7, #8]
 8005470:	f043 0377 	orr.w	r3, r3, #119	@ 0x77
 8005474:	60bb      	str	r3, [r7, #8]
 8005476:	687b      	ldr	r3, [r7, #4]
 8005478:	681b      	ldr	r3, [r3, #0]
 800547a:	68ba      	ldr	r2, [r7, #8]
 800547c:	609a      	str	r2, [r3, #8]
 800547e:	e04f      	b.n	8005520 <HAL_TIM_ConfigClockSource+0x174>
 8005480:	687b      	ldr	r3, [r7, #4]
 8005482:	6818      	ldr	r0, [r3, #0]
 8005484:	683b      	ldr	r3, [r7, #0]
 8005486:	6899      	ldr	r1, [r3, #8]
 8005488:	683b      	ldr	r3, [r7, #0]
 800548a:	685a      	ldr	r2, [r3, #4]
 800548c:	683b      	ldr	r3, [r7, #0]
 800548e:	68db      	ldr	r3, [r3, #12]
 8005490:	f000 f95d 	bl	800574e <TIM_ETR_SetConfig>
 8005494:	687b      	ldr	r3, [r7, #4]
 8005496:	681b      	ldr	r3, [r3, #0]
 8005498:	689a      	ldr	r2, [r3, #8]
 800549a:	687b      	ldr	r3, [r7, #4]
 800549c:	681b      	ldr	r3, [r3, #0]
 800549e:	f442 4280 	orr.w	r2, r2, #16384	@ 0x4000
 80054a2:	609a      	str	r2, [r3, #8]
 80054a4:	e03c      	b.n	8005520 <HAL_TIM_ConfigClockSource+0x174>
 80054a6:	687b      	ldr	r3, [r7, #4]
 80054a8:	6818      	ldr	r0, [r3, #0]
 80054aa:	683b      	ldr	r3, [r7, #0]
 80054ac:	6859      	ldr	r1, [r3, #4]
 80054ae:	683b      	ldr	r3, [r7, #0]
 80054b0:	68db      	ldr	r3, [r3, #12]
 80054b2:	461a      	mov	r2, r3
 80054b4:	f000 f8d4 	bl	8005660 <TIM_TI1_ConfigInputStage>
 80054b8:	687b      	ldr	r3, [r7, #4]
 80054ba:	681b      	ldr	r3, [r3, #0]
 80054bc:	2150      	movs	r1, #80	@ 0x50
 80054be:	4618      	mov	r0, r3
 80054c0:	f000 f92b 	bl	800571a <TIM_ITRx_SetConfig>
 80054c4:	e02c      	b.n	8005520 <HAL_TIM_ConfigClockSource+0x174>
 80054c6:	687b      	ldr	r3, [r7, #4]
 80054c8:	6818      	ldr	r0, [r3, #0]
 80054ca:	683b      	ldr	r3, [r7, #0]
 80054cc:	6859      	ldr	r1, [r3, #4]
 80054ce:	683b      	ldr	r3, [r7, #0]
 80054d0:	68db      	ldr	r3, [r3, #12]
 80054d2:	461a      	mov	r2, r3
 80054d4:	f000 f8f2 	bl	80056bc <TIM_TI2_ConfigInputStage>
 80054d8:	687b      	ldr	r3, [r7, #4]
 80054da:	681b      	ldr	r3, [r3, #0]
 80054dc:	2160      	movs	r1, #96	@ 0x60
 80054de:	4618      	mov	r0, r3
 80054e0:	f000 f91b 	bl	800571a <TIM_ITRx_SetConfig>
 80054e4:	e01c      	b.n	8005520 <HAL_TIM_ConfigClockSource+0x174>
 80054e6:	687b      	ldr	r3, [r7, #4]
 80054e8:	6818      	ldr	r0, [r3, #0]
 80054ea:	683b      	ldr	r3, [r7, #0]
 80054ec:	6859      	ldr	r1, [r3, #4]
 80054ee:	683b      	ldr	r3, [r7, #0]
 80054f0:	68db      	ldr	r3, [r3, #12]
 80054f2:	461a      	mov	r2, r3
 80054f4:	f000 f8b4 	bl	8005660 <TIM_TI1_ConfigInputStage>
 80054f8:	687b      	ldr	r3, [r7, #4]
 80054fa:	681b      	ldr	r3, [r3, #0]
 80054fc:	2140      	movs	r1, #64	@ 0x40
 80054fe:	4618      	mov	r0, r3
 8005500:	f000 f90b 	bl	800571a <TIM_ITRx_SetConfig>
 8005504:	e00c      	b.n	8005520 <HAL_TIM_ConfigClockSource+0x174>
 8005506:	687b      	ldr	r3, [r7, #4]
 8005508:	681a      	ldr	r2, [r3, #0]
 800550a:	683b      	ldr	r3, [r7, #0]
 800550c:	681b      	ldr	r3, [r3, #0]
 800550e:	4619      	mov	r1, r3
 8005510:	4610      	mov	r0, r2
 8005512:	f000 f902 	bl	800571a <TIM_ITRx_SetConfig>
 8005516:	e003      	b.n	8005520 <HAL_TIM_ConfigClockSource+0x174>
 8005518:	2301      	movs	r3, #1
 800551a:	73fb      	strb	r3, [r7, #15]
 800551c:	e000      	b.n	8005520 <HAL_TIM_ConfigClockSource+0x174>
 800551e:	bf00      	nop
 8005520:	687b      	ldr	r3, [r7, #4]
 8005522:	2201      	movs	r2, #1
 8005524:	f883 203d 	strb.w	r2, [r3, #61]	@ 0x3d
 8005528:	687b      	ldr	r3, [r7, #4]
 800552a:	2200      	movs	r2, #0
 800552c:	f883 203c 	strb.w	r2, [r3, #60]	@ 0x3c
 8005530:	7bfb      	ldrb	r3, [r7, #15]
 8005532:	4618      	mov	r0, r3
 8005534:	3710      	adds	r7, #16
 8005536:	46bd      	mov	sp, r7
 8005538:	bd80      	pop	{r7, pc}

0800553a <HAL_TIM_OC_DelayElapsedCallback>:
 800553a:	b480      	push	{r7}
 800553c:	b083      	sub	sp, #12
 800553e:	af00      	add	r7, sp, #0
 8005540:	6078      	str	r0, [r7, #4]
 8005542:	bf00      	nop
 8005544:	370c      	adds	r7, #12
 8005546:	46bd      	mov	sp, r7
 8005548:	bc80      	pop	{r7}
 800554a:	4770      	bx	lr

0800554c <HAL_TIM_IC_CaptureCallback>:
 800554c:	b480      	push	{r7}
 800554e:	b083      	sub	sp, #12
 8005550:	af00      	add	r7, sp, #0
 8005552:	6078      	str	r0, [r7, #4]
 8005554:	bf00      	nop
 8005556:	370c      	adds	r7, #12
 8005558:	46bd      	mov	sp, r7
 800555a:	bc80      	pop	{r7}
 800555c:	4770      	bx	lr

0800555e <HAL_TIM_PWM_PulseFinishedCallback>:
 800555e:	b480      	push	{r7}
 8005560:	b083      	sub	sp, #12
 8005562:	af00      	add	r7, sp, #0
 8005564:	6078      	str	r0, [r7, #4]
 8005566:	bf00      	nop
 8005568:	370c      	adds	r7, #12
 800556a:	46bd      	mov	sp, r7
 800556c:	bc80      	pop	{r7}
 800556e:	4770      	bx	lr

08005570 <HAL_TIM_TriggerCallback>:
 8005570:	b480      	push	{r7}
 8005572:	b083      	sub	sp, #12
 8005574:	af00      	add	r7, sp, #0
 8005576:	6078      	str	r0, [r7, #4]
 8005578:	bf00      	nop
 800557a:	370c      	adds	r7, #12
 800557c:	46bd      	mov	sp, r7
 800557e:	bc80      	pop	{r7}
 8005580:	4770      	bx	lr
	...

08005584 <TIM_Base_SetConfig>:
 8005584:	b480      	push	{r7}
 8005586:	b085      	sub	sp, #20
 8005588:	af00      	add	r7, sp, #0
 800558a:	6078      	str	r0, [r7, #4]
 800558c:	6039      	str	r1, [r7, #0]
 800558e:	687b      	ldr	r3, [r7, #4]
 8005590:	681b      	ldr	r3, [r3, #0]
 8005592:	60fb      	str	r3, [r7, #12]
 8005594:	687b      	ldr	r3, [r7, #4]
 8005596:	4a2f      	ldr	r2, [pc, #188]	@ (8005654 <TIM_Base_SetConfig+0xd0>)
 8005598:	4293      	cmp	r3, r2
 800559a:	d00b      	beq.n	80055b4 <TIM_Base_SetConfig+0x30>
 800559c:	687b      	ldr	r3, [r7, #4]
 800559e:	f1b3 4f80 	cmp.w	r3, #1073741824	@ 0x40000000
 80055a2:	d007      	beq.n	80055b4 <TIM_Base_SetConfig+0x30>
 80055a4:	687b      	ldr	r3, [r7, #4]
 80055a6:	4a2c      	ldr	r2, [pc, #176]	@ (8005658 <TIM_Base_SetConfig+0xd4>)
 80055a8:	4293      	cmp	r3, r2
 80055aa:	d003      	beq.n	80055b4 <TIM_Base_SetConfig+0x30>
 80055ac:	687b      	ldr	r3, [r7, #4]
 80055ae:	4a2b      	ldr	r2, [pc, #172]	@ (800565c <TIM_Base_SetConfig+0xd8>)
 80055b0:	4293      	cmp	r3, r2
 80055b2:	d108      	bne.n	80055c6 <TIM_Base_SetConfig+0x42>
 80055b4:	68fb      	ldr	r3, [r7, #12]
 80055b6:	f023 0370 	bic.w	r3, r3, #112	@ 0x70
 80055ba:	60fb      	str	r3, [r7, #12]
 80055bc:	683b      	ldr	r3, [r7, #0]
 80055be:	685b      	ldr	r3, [r3, #4]
 80055c0:	68fa      	ldr	r2, [r7, #12]
 80055c2:	4313      	orrs	r3, r2
 80055c4:	60fb      	str	r3, [r7, #12]
 80055c6:	687b      	ldr	r3, [r7, #4]
 80055c8:	4a22      	ldr	r2, [pc, #136]	@ (8005654 <TIM_Base_SetConfig+0xd0>)
 80055ca:	4293      	cmp	r3, r2
 80055cc:	d00b      	beq.n	80055e6 <TIM_Base_SetConfig+0x62>
 80055ce:	687b      	ldr	r3, [r7, #4]
 80055d0:	f1b3 4f80 	cmp.w	r3, #1073741824	@ 0x40000000
 80055d4:	d007      	beq.n	80055e6 <TIM_Base_SetConfig+0x62>
 80055d6:	687b      	ldr	r3, [r7, #4]
 80055d8:	4a1f      	ldr	r2, [pc, #124]	@ (8005658 <TIM_Base_SetConfig+0xd4>)
 80055da:	4293      	cmp	r3, r2
 80055dc:	d003      	beq.n	80055e6 <TIM_Base_SetConfig+0x62>
 80055de:	687b      	ldr	r3, [r7, #4]
 80055e0:	4a1e      	ldr	r2, [pc, #120]	@ (800565c <TIM_Base_SetConfig+0xd8>)
 80055e2:	4293      	cmp	r3, r2
 80055e4:	d108      	bne.n	80055f8 <TIM_Base_SetConfig+0x74>
 80055e6:	68fb      	ldr	r3, [r7, #12]
 80055e8:	f423 7340 	bic.w	r3, r3, #768	@ 0x300
 80055ec:	60fb      	str	r3, [r7, #12]
 80055ee:	683b      	ldr	r3, [r7, #0]
 80055f0:	68db      	ldr	r3, [r3, #12]
 80055f2:	68fa      	ldr	r2, [r7, #12]
 80055f4:	4313      	orrs	r3, r2
 80055f6:	60fb      	str	r3, [r7, #12]
 80055f8:	68fb      	ldr	r3, [r7, #12]
 80055fa:	f023 0280 	bic.w	r2, r3, #128	@ 0x80
 80055fe:	683b      	ldr	r3, [r7, #0]
 8005600:	695b      	ldr	r3, [r3, #20]
 8005602:	4313      	orrs	r3, r2
 8005604:	60fb      	str	r3, [r7, #12]
 8005606:	687b      	ldr	r3, [r7, #4]
 8005608:	68fa      	ldr	r2, [r7, #12]
 800560a:	601a      	str	r2, [r3, #0]
 800560c:	683b      	ldr	r3, [r7, #0]
 800560e:	689a      	ldr	r2, [r3, #8]
 8005610:	687b      	ldr	r3, [r7, #4]
 8005612:	62da      	str	r2, [r3, #44]	@ 0x2c
 8005614:	683b      	ldr	r3, [r7, #0]
 8005616:	681a      	ldr	r2, [r3, #0]
 8005618:	687b      	ldr	r3, [r7, #4]
 800561a:	629a      	str	r2, [r3, #40]	@ 0x28
 800561c:	687b      	ldr	r3, [r7, #4]
 800561e:	4a0d      	ldr	r2, [pc, #52]	@ (8005654 <TIM_Base_SetConfig+0xd0>)
 8005620:	4293      	cmp	r3, r2
 8005622:	d103      	bne.n	800562c <TIM_Base_SetConfig+0xa8>
 8005624:	683b      	ldr	r3, [r7, #0]
 8005626:	691a      	ldr	r2, [r3, #16]
 8005628:	687b      	ldr	r3, [r7, #4]
 800562a:	631a      	str	r2, [r3, #48]	@ 0x30
 800562c:	687b      	ldr	r3, [r7, #4]
 800562e:	2201      	movs	r2, #1
 8005630:	615a      	str	r2, [r3, #20]
 8005632:	687b      	ldr	r3, [r7, #4]
 8005634:	691b      	ldr	r3, [r3, #16]
 8005636:	f003 0301 	and.w	r3, r3, #1
 800563a:	2b00      	cmp	r3, #0
 800563c:	d005      	beq.n	800564a <TIM_Base_SetConfig+0xc6>
 800563e:	687b      	ldr	r3, [r7, #4]
 8005640:	691b      	ldr	r3, [r3, #16]
 8005642:	f023 0201 	bic.w	r2, r3, #1
 8005646:	687b      	ldr	r3, [r7, #4]
 8005648:	611a      	str	r2, [r3, #16]
 800564a:	bf00      	nop
 800564c:	3714      	adds	r7, #20
 800564e:	46bd      	mov	sp, r7
 8005650:	bc80      	pop	{r7}
 8005652:	4770      	bx	lr
 8005654:	40012c00 	.word	0x40012c00
 8005658:	40000400 	.word	0x40000400
 800565c:	40000800 	.word	0x40000800

08005660 <TIM_TI1_ConfigInputStage>:
 8005660:	b480      	push	{r7}
 8005662:	b087      	sub	sp, #28
 8005664:	af00      	add	r7, sp, #0
 8005666:	60f8      	str	r0, [r7, #12]
 8005668:	60b9      	str	r1, [r7, #8]
 800566a:	607a      	str	r2, [r7, #4]
 800566c:	68fb      	ldr	r3, [r7, #12]
 800566e:	6a1b      	ldr	r3, [r3, #32]
 8005670:	617b      	str	r3, [r7, #20]
 8005672:	68fb      	ldr	r3, [r7, #12]
 8005674:	6a1b      	ldr	r3, [r3, #32]
 8005676:	f023 0201 	bic.w	r2, r3, #1
 800567a:	68fb      	ldr	r3, [r7, #12]
 800567c:	621a      	str	r2, [r3, #32]
 800567e:	68fb      	ldr	r3, [r7, #12]
 8005680:	699b      	ldr	r3, [r3, #24]
 8005682:	613b      	str	r3, [r7, #16]
 8005684:	693b      	ldr	r3, [r7, #16]
 8005686:	f023 03f0 	bic.w	r3, r3, #240	@ 0xf0
 800568a:	613b      	str	r3, [r7, #16]
 800568c:	687b      	ldr	r3, [r7, #4]
 800568e:	011b      	lsls	r3, r3, #4
 8005690:	693a      	ldr	r2, [r7, #16]
 8005692:	4313      	orrs	r3, r2
 8005694:	613b      	str	r3, [r7, #16]
 8005696:	697b      	ldr	r3, [r7, #20]
 8005698:	f023 030a 	bic.w	r3, r3, #10
 800569c:	617b      	str	r3, [r7, #20]
 800569e:	697a      	ldr	r2, [r7, #20]
 80056a0:	68bb      	ldr	r3, [r7, #8]
 80056a2:	4313      	orrs	r3, r2
 80056a4:	617b      	str	r3, [r7, #20]
 80056a6:	68fb      	ldr	r3, [r7, #12]
 80056a8:	693a      	ldr	r2, [r7, #16]
 80056aa:	619a      	str	r2, [r3, #24]
 80056ac:	68fb      	ldr	r3, [r7, #12]
 80056ae:	697a      	ldr	r2, [r7, #20]
 80056b0:	621a      	str	r2, [r3, #32]
 80056b2:	bf00      	nop
 80056b4:	371c      	adds	r7, #28
 80056b6:	46bd      	mov	sp, r7
 80056b8:	bc80      	pop	{r7}
 80056ba:	4770      	bx	lr

080056bc <TIM_TI2_ConfigInputStage>:
 80056bc:	b480      	push	{r7}
 80056be:	b087      	sub	sp, #28
 80056c0:	af00      	add	r7, sp, #0
 80056c2:	60f8      	str	r0, [r7, #12]
 80056c4:	60b9      	str	r1, [r7, #8]
 80056c6:	607a      	str	r2, [r7, #4]
 80056c8:	68fb      	ldr	r3, [r7, #12]
 80056ca:	6a1b      	ldr	r3, [r3, #32]
 80056cc:	617b      	str	r3, [r7, #20]
 80056ce:	68fb      	ldr	r3, [r7, #12]
 80056d0:	6a1b      	ldr	r3, [r3, #32]
 80056d2:	f023 0210 	bic.w	r2, r3, #16
 80056d6:	68fb      	ldr	r3, [r7, #12]
 80056d8:	621a      	str	r2, [r3, #32]
 80056da:	68fb      	ldr	r3, [r7, #12]
 80056dc:	699b      	ldr	r3, [r3, #24]
 80056de:	613b      	str	r3, [r7, #16]
 80056e0:	693b      	ldr	r3, [r7, #16]
 80056e2:	f423 4370 	bic.w	r3, r3, #61440	@ 0xf000
 80056e6:	613b      	str	r3, [r7, #16]
 80056e8:	687b      	ldr	r3, [r7, #4]
 80056ea:	031b      	lsls	r3, r3, #12
 80056ec:	693a      	ldr	r2, [r7, #16]
 80056ee:	4313      	orrs	r3, r2
 80056f0:	613b      	str	r3, [r7, #16]
 80056f2:	697b      	ldr	r3, [r7, #20]
 80056f4:	f023 03a0 	bic.w	r3, r3, #160	@ 0xa0
 80056f8:	617b      	str	r3, [r7, #20]
 80056fa:	68bb      	ldr	r3, [r7, #8]
 80056fc:	011b      	lsls	r3, r3, #4
 80056fe:	697a      	ldr	r2, [r7, #20]
 8005700:	4313      	orrs	r3, r2
 8005702:	617b      	str	r3, [r7, #20]
 8005704:	68fb      	ldr	r3, [r7, #12]
 8005706:	693a      	ldr	r2, [r7, #16]
 8005708:	619a      	str	r2, [r3, #24]
 800570a:	68fb      	ldr	r3, [r7, #12]
 800570c:	697a      	ldr	r2, [r7, #20]
 800570e:	621a      	str	r2, [r3, #32]
 8005710:	bf00      	nop
 8005712:	371c      	adds	r7, #28
 8005714:	46bd      	mov	sp, r7
 8005716:	bc80      	pop	{r7}
 8005718:	4770      	bx	lr

0800571a <TIM_ITRx_SetConfig>:
 800571a:	b480      	push	{r7}
 800571c:	b085      	sub	sp, #20
 800571e:	af00      	add	r7, sp, #0
 8005720:	6078      	str	r0, [r7, #4]
 8005722:	6039      	str	r1, [r7, #0]
 8005724:	687b      	ldr	r3, [r7, #4]
 8005726:	689b      	ldr	r3, [r3, #8]
 8005728:	60fb      	str	r3, [r7, #12]
 800572a:	68fb      	ldr	r3, [r7, #12]
 800572c:	f023 0370 	bic.w	r3, r3, #112	@ 0x70
 8005730:	60fb      	str	r3, [r7, #12]
 8005732:	683a      	ldr	r2, [r7, #0]
 8005734:	68fb      	ldr	r3, [r7, #12]
 8005736:	4313      	orrs	r3, r2
 8005738:	f043 0307 	orr.w	r3, r3, #7
 800573c:	60fb      	str	r3, [r7, #12]
 800573e:	687b      	ldr	r3, [r7, #4]
 8005740:	68fa      	ldr	r2, [r7, #12]
 8005742:	609a      	str	r2, [r3, #8]
 8005744:	bf00      	nop
 8005746:	3714      	adds	r7, #20
 8005748:	46bd      	mov	sp, r7
 800574a:	bc80      	pop	{r7}
 800574c:	4770      	bx	lr

0800574e <TIM_ETR_SetConfig>:
 800574e:	b480      	push	{r7}
 8005750:	b087      	sub	sp, #28
 8005752:	af00      	add	r7, sp, #0
 8005754:	60f8      	str	r0, [r7, #12]
 8005756:	60b9      	str	r1, [r7, #8]
 8005758:	607a      	str	r2, [r7, #4]
 800575a:	603b      	str	r3, [r7, #0]
 800575c:	68fb      	ldr	r3, [r7, #12]
 800575e:	689b      	ldr	r3, [r3, #8]
 8005760:	617b      	str	r3, [r7, #20]
 8005762:	697b      	ldr	r3, [r7, #20]
 8005764:	f423 437f 	bic.w	r3, r3, #65280	@ 0xff00
 8005768:	617b      	str	r3, [r7, #20]
 800576a:	683b      	ldr	r3, [r7, #0]
 800576c:	021a      	lsls	r2, r3, #8
 800576e:	687b      	ldr	r3, [r7, #4]
 8005770:	431a      	orrs	r2, r3
 8005772:	68bb      	ldr	r3, [r7, #8]
 8005774:	4313      	orrs	r3, r2
 8005776:	697a      	ldr	r2, [r7, #20]
 8005778:	4313      	orrs	r3, r2
 800577a:	617b      	str	r3, [r7, #20]
 800577c:	68fb      	ldr	r3, [r7, #12]
 800577e:	697a      	ldr	r2, [r7, #20]
 8005780:	609a      	str	r2, [r3, #8]
 8005782:	bf00      	nop
 8005784:	371c      	adds	r7, #28
 8005786:	46bd      	mov	sp, r7
 8005788:	bc80      	pop	{r7}
 800578a:	4770      	bx	lr

0800578c <HAL_TIMEx_MasterConfigSynchronization>:
 800578c:	b480      	push	{r7}
 800578e:	b085      	sub	sp, #20
 8005790:	af00      	add	r7, sp, #0
 8005792:	6078      	str	r0, [r7, #4]
 8005794:	6039      	str	r1, [r7, #0]
 8005796:	687b      	ldr	r3, [r7, #4]
 8005798:	f893 303c 	ldrb.w	r3, [r3, #60]	@ 0x3c
 800579c:	2b01      	cmp	r3, #1
 800579e:	d101      	bne.n	80057a4 <HAL_TIMEx_MasterConfigSynchronization+0x18>
 80057a0:	2302      	movs	r3, #2
 80057a2:	e046      	b.n	8005832 <HAL_TIMEx_MasterConfigSynchronization+0xa6>
 80057a4:	687b      	ldr	r3, [r7, #4]
 80057a6:	2201      	movs	r2, #1
 80057a8:	f883 203c 	strb.w	r2, [r3, #60]	@ 0x3c
 80057ac:	687b      	ldr	r3, [r7, #4]
 80057ae:	2202      	movs	r2, #2
 80057b0:	f883 203d 	strb.w	r2, [r3, #61]	@ 0x3d
 80057b4:	687b      	ldr	r3, [r7, #4]
 80057b6:	681b      	ldr	r3, [r3, #0]
 80057b8:	685b      	ldr	r3, [r3, #4]
 80057ba:	60fb      	str	r3, [r7, #12]
 80057bc:	687b      	ldr	r3, [r7, #4]
 80057be:	681b      	ldr	r3, [r3, #0]
 80057c0:	689b      	ldr	r3, [r3, #8]
 80057c2:	60bb      	str	r3, [r7, #8]
 80057c4:	68fb      	ldr	r3, [r7, #12]
 80057c6:	f023 0370 	bic.w	r3, r3, #112	@ 0x70
 80057ca:	60fb      	str	r3, [r7, #12]
 80057cc:	683b      	ldr	r3, [r7, #0]
 80057ce:	681b      	ldr	r3, [r3, #0]
 80057d0:	68fa      	ldr	r2, [r7, #12]
 80057d2:	4313      	orrs	r3, r2
 80057d4:	60fb      	str	r3, [r7, #12]
 80057d6:	687b      	ldr	r3, [r7, #4]
 80057d8:	681b      	ldr	r3, [r3, #0]
 80057da:	68fa      	ldr	r2, [r7, #12]
 80057dc:	605a      	str	r2, [r3, #4]
 80057de:	687b      	ldr	r3, [r7, #4]
 80057e0:	681b      	ldr	r3, [r3, #0]
 80057e2:	4a16      	ldr	r2, [pc, #88]	@ (800583c <HAL_TIMEx_MasterConfigSynchronization+0xb0>)
 80057e4:	4293      	cmp	r3, r2
 80057e6:	d00e      	beq.n	8005806 <HAL_TIMEx_MasterConfigSynchronization+0x7a>
 80057e8:	687b      	ldr	r3, [r7, #4]
 80057ea:	681b      	ldr	r3, [r3, #0]
 80057ec:	f1b3 4f80 	cmp.w	r3, #1073741824	@ 0x40000000
 80057f0:	d009      	beq.n	8005806 <HAL_TIMEx_MasterConfigSynchronization+0x7a>
 80057f2:	687b      	ldr	r3, [r7, #4]
 80057f4:	681b      	ldr	r3, [r3, #0]
 80057f6:	4a12      	ldr	r2, [pc, #72]	@ (8005840 <HAL_TIMEx_MasterConfigSynchronization+0xb4>)
 80057f8:	4293      	cmp	r3, r2
 80057fa:	d004      	beq.n	8005806 <HAL_TIMEx_MasterConfigSynchronization+0x7a>
 80057fc:	687b      	ldr	r3, [r7, #4]
 80057fe:	681b      	ldr	r3, [r3, #0]
 8005800:	4a10      	ldr	r2, [pc, #64]	@ (8005844 <HAL_TIMEx_MasterConfigSynchronization+0xb8>)
 8005802:	4293      	cmp	r3, r2
 8005804:	d10c      	bne.n	8005820 <HAL_TIMEx_MasterConfigSynchronization+0x94>
 8005806:	68bb      	ldr	r3, [r7, #8]
 8005808:	f023 0380 	bic.w	r3, r3, #128	@ 0x80
 800580c:	60bb      	str	r3, [r7, #8]
 800580e:	683b      	ldr	r3, [r7, #0]
 8005810:	685b      	ldr	r3, [r3, #4]
 8005812:	68ba      	ldr	r2, [r7, #8]
 8005814:	4313      	orrs	r3, r2
 8005816:	60bb      	str	r3, [r7, #8]
 8005818:	687b      	ldr	r3, [r7, #4]
 800581a:	681b      	ldr	r3, [r3, #0]
 800581c:	68ba      	ldr	r2, [r7, #8]
 800581e:	609a      	str	r2, [r3, #8]
 8005820:	687b      	ldr	r3, [r7, #4]
 8005822:	2201      	movs	r2, #1
 8005824:	f883 203d 	strb.w	r2, [r3, #61]	@ 0x3d
 8005828:	687b      	ldr	r3, [r7, #4]
 800582a:	2200      	movs	r2, #0
 800582c:	f883 203c 	strb.w	r2, [r3, #60]	@ 0x3c
 8005830:	2300      	movs	r3, #0
 8005832:	4618      	mov	r0, r3
 8005834:	3714      	adds	r7, #20
 8005836:	46bd      	mov	sp, r7
 8005838:	bc80      	pop	{r7}
 800583a:	4770      	bx	lr
 800583c:	40012c00 	.word	0x40012c00
 8005840:	40000400 	.word	0x40000400
 8005844:	40000800 	.word	0x40000800

08005848 <HAL_TIMEx_CommutCallback>:
 8005848:	b480      	push	{r7}
 800584a:	b083      	sub	sp, #12
 800584c:	af00      	add	r7, sp, #0
 800584e:	6078      	str	r0, [r7, #4]
 8005850:	bf00      	nop
 8005852:	370c      	adds	r7, #12
 8005854:	46bd      	mov	sp, r7
 8005856:	bc80      	pop	{r7}
 8005858:	4770      	bx	lr

0800585a <HAL_TIMEx_BreakCallback>:
 800585a:	b480      	push	{r7}
 800585c:	b083      	sub	sp, #12
 800585e:	af00      	add	r7, sp, #0
 8005860:	6078      	str	r0, [r7, #4]
 8005862:	bf00      	nop
 8005864:	370c      	adds	r7, #12
 8005866:	46bd      	mov	sp, r7
 8005868:	bc80      	pop	{r7}
 800586a:	4770      	bx	lr

0800586c <HAL_UART_Init>:
 800586c:	b580      	push	{r7, lr}
 800586e:	b082      	sub	sp, #8
 8005870:	af00      	add	r7, sp, #0
 8005872:	6078      	str	r0, [r7, #4]
 8005874:	687b      	ldr	r3, [r7, #4]
 8005876:	2b00      	cmp	r3, #0
 8005878:	d101      	bne.n	800587e <HAL_UART_Init+0x12>
 800587a:	2301      	movs	r3, #1
 800587c:	e042      	b.n	8005904 <HAL_UART_Init+0x98>
 800587e:	687b      	ldr	r3, [r7, #4]
 8005880:	f893 3041 	ldrb.w	r3, [r3, #65]	@ 0x41
 8005884:	b2db      	uxtb	r3, r3
 8005886:	2b00      	cmp	r3, #0
 8005888:	d106      	bne.n	8005898 <HAL_UART_Init+0x2c>
 800588a:	687b      	ldr	r3, [r7, #4]
 800588c:	2200      	movs	r2, #0
 800588e:	f883 2040 	strb.w	r2, [r3, #64]	@ 0x40
 8005892:	6878      	ldr	r0, [r7, #4]
 8005894:	f7fc f9f4 	bl	8001c80 <HAL_UART_MspInit>
 8005898:	687b      	ldr	r3, [r7, #4]
 800589a:	2224      	movs	r2, #36	@ 0x24
 800589c:	f883 2041 	strb.w	r2, [r3, #65]	@ 0x41
 80058a0:	687b      	ldr	r3, [r7, #4]
 80058a2:	681b      	ldr	r3, [r3, #0]
 80058a4:	68da      	ldr	r2, [r3, #12]
 80058a6:	687b      	ldr	r3, [r7, #4]
 80058a8:	681b      	ldr	r3, [r3, #0]
 80058aa:	f422 5200 	bic.w	r2, r2, #8192	@ 0x2000
 80058ae:	60da      	str	r2, [r3, #12]
 80058b0:	6878      	ldr	r0, [r7, #4]
 80058b2:	f000 fdb7 	bl	8006424 <UART_SetConfig>
 80058b6:	687b      	ldr	r3, [r7, #4]
 80058b8:	681b      	ldr	r3, [r3, #0]
 80058ba:	691a      	ldr	r2, [r3, #16]
 80058bc:	687b      	ldr	r3, [r7, #4]
 80058be:	681b      	ldr	r3, [r3, #0]
 80058c0:	f422 4290 	bic.w	r2, r2, #18432	@ 0x4800
 80058c4:	611a      	str	r2, [r3, #16]
 80058c6:	687b      	ldr	r3, [r7, #4]
 80058c8:	681b      	ldr	r3, [r3, #0]
 80058ca:	695a      	ldr	r2, [r3, #20]
 80058cc:	687b      	ldr	r3, [r7, #4]
 80058ce:	681b      	ldr	r3, [r3, #0]
 80058d0:	f022 022a 	bic.w	r2, r2, #42	@ 0x2a
 80058d4:	615a      	str	r2, [r3, #20]
 80058d6:	687b      	ldr	r3, [r7, #4]
 80058d8:	681b      	ldr	r3, [r3, #0]
 80058da:	68da      	ldr	r2, [r3, #12]
 80058dc:	687b      	ldr	r3, [r7, #4]
 80058de:	681b      	ldr	r3, [r3, #0]
 80058e0:	f442 5200 	orr.w	r2, r2, #8192	@ 0x2000
 80058e4:	60da      	str	r2, [r3, #12]
 80058e6:	687b      	ldr	r3, [r7, #4]
 80058e8:	2200      	movs	r2, #0
 80058ea:	645a      	str	r2, [r3, #68]	@ 0x44
 80058ec:	687b      	ldr	r3, [r7, #4]
 80058ee:	2220      	movs	r2, #32
 80058f0:	f883 2041 	strb.w	r2, [r3, #65]	@ 0x41
 80058f4:	687b      	ldr	r3, [r7, #4]
 80058f6:	2220      	movs	r2, #32
 80058f8:	f883 2042 	strb.w	r2, [r3, #66]	@ 0x42
 80058fc:	687b      	ldr	r3, [r7, #4]
 80058fe:	2200      	movs	r2, #0
 8005900:	635a      	str	r2, [r3, #52]	@ 0x34
 8005902:	2300      	movs	r3, #0
 8005904:	4618      	mov	r0, r3
 8005906:	3708      	adds	r7, #8
 8005908:	46bd      	mov	sp, r7
 800590a:	bd80      	pop	{r7, pc}

0800590c <HAL_UART_Transmit>:
 800590c:	b580      	push	{r7, lr}
 800590e:	b08a      	sub	sp, #40	@ 0x28
 8005910:	af02      	add	r7, sp, #8
 8005912:	60f8      	str	r0, [r7, #12]
 8005914:	60b9      	str	r1, [r7, #8]
 8005916:	603b      	str	r3, [r7, #0]
 8005918:	4613      	mov	r3, r2
 800591a:	80fb      	strh	r3, [r7, #6]
 800591c:	2300      	movs	r3, #0
 800591e:	617b      	str	r3, [r7, #20]
 8005920:	68fb      	ldr	r3, [r7, #12]
 8005922:	f893 3041 	ldrb.w	r3, [r3, #65]	@ 0x41
 8005926:	b2db      	uxtb	r3, r3
 8005928:	2b20      	cmp	r3, #32
 800592a:	d175      	bne.n	8005a18 <HAL_UART_Transmit+0x10c>
 800592c:	68bb      	ldr	r3, [r7, #8]
 800592e:	2b00      	cmp	r3, #0
 8005930:	d002      	beq.n	8005938 <HAL_UART_Transmit+0x2c>
 8005932:	88fb      	ldrh	r3, [r7, #6]
 8005934:	2b00      	cmp	r3, #0
 8005936:	d101      	bne.n	800593c <HAL_UART_Transmit+0x30>
 8005938:	2301      	movs	r3, #1
 800593a:	e06e      	b.n	8005a1a <HAL_UART_Transmit+0x10e>
 800593c:	68fb      	ldr	r3, [r7, #12]
 800593e:	2200      	movs	r2, #0
 8005940:	645a      	str	r2, [r3, #68]	@ 0x44
 8005942:	68fb      	ldr	r3, [r7, #12]
 8005944:	2221      	movs	r2, #33	@ 0x21
 8005946:	f883 2041 	strb.w	r2, [r3, #65]	@ 0x41
 800594a:	f7fc fcf1 	bl	8002330 <HAL_GetTick>
 800594e:	6178      	str	r0, [r7, #20]
 8005950:	68fb      	ldr	r3, [r7, #12]
 8005952:	88fa      	ldrh	r2, [r7, #6]
 8005954:	849a      	strh	r2, [r3, #36]	@ 0x24
 8005956:	68fb      	ldr	r3, [r7, #12]
 8005958:	88fa      	ldrh	r2, [r7, #6]
 800595a:	84da      	strh	r2, [r3, #38]	@ 0x26
 800595c:	68fb      	ldr	r3, [r7, #12]
 800595e:	689b      	ldr	r3, [r3, #8]
 8005960:	f5b3 5f80 	cmp.w	r3, #4096	@ 0x1000
 8005964:	d108      	bne.n	8005978 <HAL_UART_Transmit+0x6c>
 8005966:	68fb      	ldr	r3, [r7, #12]
 8005968:	691b      	ldr	r3, [r3, #16]
 800596a:	2b00      	cmp	r3, #0
 800596c:	d104      	bne.n	8005978 <HAL_UART_Transmit+0x6c>
 800596e:	2300      	movs	r3, #0
 8005970:	61fb      	str	r3, [r7, #28]
 8005972:	68bb      	ldr	r3, [r7, #8]
 8005974:	61bb      	str	r3, [r7, #24]
 8005976:	e003      	b.n	8005980 <HAL_UART_Transmit+0x74>
 8005978:	68bb      	ldr	r3, [r7, #8]
 800597a:	61fb      	str	r3, [r7, #28]
 800597c:	2300      	movs	r3, #0
 800597e:	61bb      	str	r3, [r7, #24]
 8005980:	e02e      	b.n	80059e0 <HAL_UART_Transmit+0xd4>
 8005982:	683b      	ldr	r3, [r7, #0]
 8005984:	9300      	str	r3, [sp, #0]
 8005986:	697b      	ldr	r3, [r7, #20]
 8005988:	2200      	movs	r2, #0
 800598a:	2180      	movs	r1, #128	@ 0x80
 800598c:	68f8      	ldr	r0, [r7, #12]
 800598e:	f000 fb1c 	bl	8005fca <UART_WaitOnFlagUntilTimeout>
 8005992:	4603      	mov	r3, r0
 8005994:	2b00      	cmp	r3, #0
 8005996:	d005      	beq.n	80059a4 <HAL_UART_Transmit+0x98>
 8005998:	68fb      	ldr	r3, [r7, #12]
 800599a:	2220      	movs	r2, #32
 800599c:	f883 2041 	strb.w	r2, [r3, #65]	@ 0x41
 80059a0:	2303      	movs	r3, #3
 80059a2:	e03a      	b.n	8005a1a <HAL_UART_Transmit+0x10e>
 80059a4:	69fb      	ldr	r3, [r7, #28]
 80059a6:	2b00      	cmp	r3, #0
 80059a8:	d10b      	bne.n	80059c2 <HAL_UART_Transmit+0xb6>
 80059aa:	69bb      	ldr	r3, [r7, #24]
 80059ac:	881b      	ldrh	r3, [r3, #0]
 80059ae:	461a      	mov	r2, r3
 80059b0:	68fb      	ldr	r3, [r7, #12]
 80059b2:	681b      	ldr	r3, [r3, #0]
 80059b4:	f3c2 0208 	ubfx	r2, r2, #0, #9
 80059b8:	605a      	str	r2, [r3, #4]
 80059ba:	69bb      	ldr	r3, [r7, #24]
 80059bc:	3302      	adds	r3, #2
 80059be:	61bb      	str	r3, [r7, #24]
 80059c0:	e007      	b.n	80059d2 <HAL_UART_Transmit+0xc6>
 80059c2:	69fb      	ldr	r3, [r7, #28]
 80059c4:	781a      	ldrb	r2, [r3, #0]
 80059c6:	68fb      	ldr	r3, [r7, #12]
 80059c8:	681b      	ldr	r3, [r3, #0]
 80059ca:	605a      	str	r2, [r3, #4]
 80059cc:	69fb      	ldr	r3, [r7, #28]
 80059ce:	3301      	adds	r3, #1
 80059d0:	61fb      	str	r3, [r7, #28]
 80059d2:	68fb      	ldr	r3, [r7, #12]
 80059d4:	8cdb      	ldrh	r3, [r3, #38]	@ 0x26
 80059d6:	b29b      	uxth	r3, r3
 80059d8:	3b01      	subs	r3, #1
 80059da:	b29a      	uxth	r2, r3
 80059dc:	68fb      	ldr	r3, [r7, #12]
 80059de:	84da      	strh	r2, [r3, #38]	@ 0x26
 80059e0:	68fb      	ldr	r3, [r7, #12]
 80059e2:	8cdb      	ldrh	r3, [r3, #38]	@ 0x26
 80059e4:	b29b      	uxth	r3, r3
 80059e6:	2b00      	cmp	r3, #0
 80059e8:	d1cb      	bne.n	8005982 <HAL_UART_Transmit+0x76>
 80059ea:	683b      	ldr	r3, [r7, #0]
 80059ec:	9300      	str	r3, [sp, #0]
 80059ee:	697b      	ldr	r3, [r7, #20]
 80059f0:	2200      	movs	r2, #0
 80059f2:	2140      	movs	r1, #64	@ 0x40
 80059f4:	68f8      	ldr	r0, [r7, #12]
 80059f6:	f000 fae8 	bl	8005fca <UART_WaitOnFlagUntilTimeout>
 80059fa:	4603      	mov	r3, r0
 80059fc:	2b00      	cmp	r3, #0
 80059fe:	d005      	beq.n	8005a0c <HAL_UART_Transmit+0x100>
 8005a00:	68fb      	ldr	r3, [r7, #12]
 8005a02:	2220      	movs	r2, #32
 8005a04:	f883 2041 	strb.w	r2, [r3, #65]	@ 0x41
 8005a08:	2303      	movs	r3, #3
 8005a0a:	e006      	b.n	8005a1a <HAL_UART_Transmit+0x10e>
 8005a0c:	68fb      	ldr	r3, [r7, #12]
 8005a0e:	2220      	movs	r2, #32
 8005a10:	f883 2041 	strb.w	r2, [r3, #65]	@ 0x41
 8005a14:	2300      	movs	r3, #0
 8005a16:	e000      	b.n	8005a1a <HAL_UART_Transmit+0x10e>
 8005a18:	2302      	movs	r3, #2
 8005a1a:	4618      	mov	r0, r3
 8005a1c:	3720      	adds	r7, #32
 8005a1e:	46bd      	mov	sp, r7
 8005a20:	bd80      	pop	{r7, pc}

08005a22 <HAL_UART_Receive_IT>:
 8005a22:	b580      	push	{r7, lr}
 8005a24:	b084      	sub	sp, #16
 8005a26:	af00      	add	r7, sp, #0
 8005a28:	60f8      	str	r0, [r7, #12]
 8005a2a:	60b9      	str	r1, [r7, #8]
 8005a2c:	4613      	mov	r3, r2
 8005a2e:	80fb      	strh	r3, [r7, #6]
 8005a30:	68fb      	ldr	r3, [r7, #12]
 8005a32:	f893 3042 	ldrb.w	r3, [r3, #66]	@ 0x42
 8005a36:	b2db      	uxtb	r3, r3
 8005a38:	2b20      	cmp	r3, #32
 8005a3a:	d112      	bne.n	8005a62 <HAL_UART_Receive_IT+0x40>
 8005a3c:	68bb      	ldr	r3, [r7, #8]
 8005a3e:	2b00      	cmp	r3, #0
 8005a40:	d002      	beq.n	8005a48 <HAL_UART_Receive_IT+0x26>
 8005a42:	88fb      	ldrh	r3, [r7, #6]
 8005a44:	2b00      	cmp	r3, #0
 8005a46:	d101      	bne.n	8005a4c <HAL_UART_Receive_IT+0x2a>
 8005a48:	2301      	movs	r3, #1
 8005a4a:	e00b      	b.n	8005a64 <HAL_UART_Receive_IT+0x42>
 8005a4c:	68fb      	ldr	r3, [r7, #12]
 8005a4e:	2200      	movs	r2, #0
 8005a50:	631a      	str	r2, [r3, #48]	@ 0x30
 8005a52:	88fb      	ldrh	r3, [r7, #6]
 8005a54:	461a      	mov	r2, r3
 8005a56:	68b9      	ldr	r1, [r7, #8]
 8005a58:	68f8      	ldr	r0, [r7, #12]
 8005a5a:	f000 fb0f 	bl	800607c <UART_Start_Receive_IT>
 8005a5e:	4603      	mov	r3, r0
 8005a60:	e000      	b.n	8005a64 <HAL_UART_Receive_IT+0x42>
 8005a62:	2302      	movs	r3, #2
 8005a64:	4618      	mov	r0, r3
 8005a66:	3710      	adds	r7, #16
 8005a68:	46bd      	mov	sp, r7
 8005a6a:	bd80      	pop	{r7, pc}

08005a6c <HAL_UART_IRQHandler>:
 8005a6c:	b580      	push	{r7, lr}
 8005a6e:	b0ba      	sub	sp, #232	@ 0xe8
 8005a70:	af00      	add	r7, sp, #0
 8005a72:	6078      	str	r0, [r7, #4]
 8005a74:	687b      	ldr	r3, [r7, #4]
 8005a76:	681b      	ldr	r3, [r3, #0]
 8005a78:	681b      	ldr	r3, [r3, #0]
 8005a7a:	f8c7 30e4 	str.w	r3, [r7, #228]	@ 0xe4
 8005a7e:	687b      	ldr	r3, [r7, #4]
 8005a80:	681b      	ldr	r3, [r3, #0]
 8005a82:	68db      	ldr	r3, [r3, #12]
 8005a84:	f8c7 30e0 	str.w	r3, [r7, #224]	@ 0xe0
 8005a88:	687b      	ldr	r3, [r7, #4]
 8005a8a:	681b      	ldr	r3, [r3, #0]
 8005a8c:	695b      	ldr	r3, [r3, #20]
 8005a8e:	f8c7 30dc 	str.w	r3, [r7, #220]	@ 0xdc
 8005a92:	2300      	movs	r3, #0
 8005a94:	f8c7 30d8 	str.w	r3, [r7, #216]	@ 0xd8
 8005a98:	2300      	movs	r3, #0
 8005a9a:	f8c7 30d4 	str.w	r3, [r7, #212]	@ 0xd4
 8005a9e:	f8d7 30e4 	ldr.w	r3, [r7, #228]	@ 0xe4
 8005aa2:	f003 030f 	and.w	r3, r3, #15
 8005aa6:	f8c7 30d8 	str.w	r3, [r7, #216]	@ 0xd8
 8005aaa:	f8d7 30d8 	ldr.w	r3, [r7, #216]	@ 0xd8
 8005aae:	2b00      	cmp	r3, #0
 8005ab0:	d10f      	bne.n	8005ad2 <HAL_UART_IRQHandler+0x66>
 8005ab2:	f8d7 30e4 	ldr.w	r3, [r7, #228]	@ 0xe4
 8005ab6:	f003 0320 	and.w	r3, r3, #32
 8005aba:	2b00      	cmp	r3, #0
 8005abc:	d009      	beq.n	8005ad2 <HAL_UART_IRQHandler+0x66>
 8005abe:	f8d7 30e0 	ldr.w	r3, [r7, #224]	@ 0xe0
 8005ac2:	f003 0320 	and.w	r3, r3, #32
 8005ac6:	2b00      	cmp	r3, #0
 8005ac8:	d003      	beq.n	8005ad2 <HAL_UART_IRQHandler+0x66>
 8005aca:	6878      	ldr	r0, [r7, #4]
 8005acc:	f000 fbec 	bl	80062a8 <UART_Receive_IT>
 8005ad0:	e25b      	b.n	8005f8a <HAL_UART_IRQHandler+0x51e>
 8005ad2:	f8d7 30d8 	ldr.w	r3, [r7, #216]	@ 0xd8
 8005ad6:	2b00      	cmp	r3, #0
 8005ad8:	f000 80de 	beq.w	8005c98 <HAL_UART_IRQHandler+0x22c>
 8005adc:	f8d7 30dc 	ldr.w	r3, [r7, #220]	@ 0xdc
 8005ae0:	f003 0301 	and.w	r3, r3, #1
 8005ae4:	2b00      	cmp	r3, #0
 8005ae6:	d106      	bne.n	8005af6 <HAL_UART_IRQHandler+0x8a>
 8005ae8:	f8d7 30e0 	ldr.w	r3, [r7, #224]	@ 0xe0
 8005aec:	f403 7390 	and.w	r3, r3, #288	@ 0x120
 8005af0:	2b00      	cmp	r3, #0
 8005af2:	f000 80d1 	beq.w	8005c98 <HAL_UART_IRQHandler+0x22c>
 8005af6:	f8d7 30e4 	ldr.w	r3, [r7, #228]	@ 0xe4
 8005afa:	f003 0301 	and.w	r3, r3, #1
 8005afe:	2b00      	cmp	r3, #0
 8005b00:	d00b      	beq.n	8005b1a <HAL_UART_IRQHandler+0xae>
 8005b02:	f8d7 30e0 	ldr.w	r3, [r7, #224]	@ 0xe0
 8005b06:	f403 7380 	and.w	r3, r3, #256	@ 0x100
 8005b0a:	2b00      	cmp	r3, #0
 8005b0c:	d005      	beq.n	8005b1a <HAL_UART_IRQHandler+0xae>
 8005b0e:	687b      	ldr	r3, [r7, #4]
 8005b10:	6c5b      	ldr	r3, [r3, #68]	@ 0x44
 8005b12:	f043 0201 	orr.w	r2, r3, #1
 8005b16:	687b      	ldr	r3, [r7, #4]
 8005b18:	645a      	str	r2, [r3, #68]	@ 0x44
 8005b1a:	f8d7 30e4 	ldr.w	r3, [r7, #228]	@ 0xe4
 8005b1e:	f003 0304 	and.w	r3, r3, #4
 8005b22:	2b00      	cmp	r3, #0
 8005b24:	d00b      	beq.n	8005b3e <HAL_UART_IRQHandler+0xd2>
 8005b26:	f8d7 30dc 	ldr.w	r3, [r7, #220]	@ 0xdc
 8005b2a:	f003 0301 	and.w	r3, r3, #1
 8005b2e:	2b00      	cmp	r3, #0
 8005b30:	d005      	beq.n	8005b3e <HAL_UART_IRQHandler+0xd2>
 8005b32:	687b      	ldr	r3, [r7, #4]
 8005b34:	6c5b      	ldr	r3, [r3, #68]	@ 0x44
 8005b36:	f043 0202 	orr.w	r2, r3, #2
 8005b3a:	687b      	ldr	r3, [r7, #4]
 8005b3c:	645a      	str	r2, [r3, #68]	@ 0x44
 8005b3e:	f8d7 30e4 	ldr.w	r3, [r7, #228]	@ 0xe4
 8005b42:	f003 0302 	and.w	r3, r3, #2
 8005b46:	2b00      	cmp	r3, #0
 8005b48:	d00b      	beq.n	8005b62 <HAL_UART_IRQHandler+0xf6>
 8005b4a:	f8d7 30dc 	ldr.w	r3, [r7, #220]	@ 0xdc
 8005b4e:	f003 0301 	and.w	r3, r3, #1
 8005b52:	2b00      	cmp	r3, #0
 8005b54:	d005      	beq.n	8005b62 <HAL_UART_IRQHandler+0xf6>
 8005b56:	687b      	ldr	r3, [r7, #4]
 8005b58:	6c5b      	ldr	r3, [r3, #68]	@ 0x44
 8005b5a:	f043 0204 	orr.w	r2, r3, #4
 8005b5e:	687b      	ldr	r3, [r7, #4]
 8005b60:	645a      	str	r2, [r3, #68]	@ 0x44
 8005b62:	f8d7 30e4 	ldr.w	r3, [r7, #228]	@ 0xe4
 8005b66:	f003 0308 	and.w	r3, r3, #8
 8005b6a:	2b00      	cmp	r3, #0
 8005b6c:	d011      	beq.n	8005b92 <HAL_UART_IRQHandler+0x126>
 8005b6e:	f8d7 30e0 	ldr.w	r3, [r7, #224]	@ 0xe0
 8005b72:	f003 0320 	and.w	r3, r3, #32
 8005b76:	2b00      	cmp	r3, #0
 8005b78:	d105      	bne.n	8005b86 <HAL_UART_IRQHandler+0x11a>
 8005b7a:	f8d7 30dc 	ldr.w	r3, [r7, #220]	@ 0xdc
 8005b7e:	f003 0301 	and.w	r3, r3, #1
 8005b82:	2b00      	cmp	r3, #0
 8005b84:	d005      	beq.n	8005b92 <HAL_UART_IRQHandler+0x126>
 8005b86:	687b      	ldr	r3, [r7, #4]
 8005b88:	6c5b      	ldr	r3, [r3, #68]	@ 0x44
 8005b8a:	f043 0208 	orr.w	r2, r3, #8
 8005b8e:	687b      	ldr	r3, [r7, #4]
 8005b90:	645a      	str	r2, [r3, #68]	@ 0x44
 8005b92:	687b      	ldr	r3, [r7, #4]
 8005b94:	6c5b      	ldr	r3, [r3, #68]	@ 0x44
 8005b96:	2b00      	cmp	r3, #0
 8005b98:	f000 81f2 	beq.w	8005f80 <HAL_UART_IRQHandler+0x514>
 8005b9c:	f8d7 30e4 	ldr.w	r3, [r7, #228]	@ 0xe4
 8005ba0:	f003 0320 	and.w	r3, r3, #32
 8005ba4:	2b00      	cmp	r3, #0
 8005ba6:	d008      	beq.n	8005bba <HAL_UART_IRQHandler+0x14e>
 8005ba8:	f8d7 30e0 	ldr.w	r3, [r7, #224]	@ 0xe0
 8005bac:	f003 0320 	and.w	r3, r3, #32
 8005bb0:	2b00      	cmp	r3, #0
 8005bb2:	d002      	beq.n	8005bba <HAL_UART_IRQHandler+0x14e>
 8005bb4:	6878      	ldr	r0, [r7, #4]
 8005bb6:	f000 fb77 	bl	80062a8 <UART_Receive_IT>
 8005bba:	687b      	ldr	r3, [r7, #4]
 8005bbc:	681b      	ldr	r3, [r3, #0]
 8005bbe:	695b      	ldr	r3, [r3, #20]
 8005bc0:	f003 0340 	and.w	r3, r3, #64	@ 0x40
 8005bc4:	2b00      	cmp	r3, #0
 8005bc6:	bf14      	ite	ne
 8005bc8:	2301      	movne	r3, #1
 8005bca:	2300      	moveq	r3, #0
 8005bcc:	b2db      	uxtb	r3, r3
 8005bce:	f8c7 30d4 	str.w	r3, [r7, #212]	@ 0xd4
 8005bd2:	687b      	ldr	r3, [r7, #4]
 8005bd4:	6c5b      	ldr	r3, [r3, #68]	@ 0x44
 8005bd6:	f003 0308 	and.w	r3, r3, #8
 8005bda:	2b00      	cmp	r3, #0
 8005bdc:	d103      	bne.n	8005be6 <HAL_UART_IRQHandler+0x17a>
 8005bde:	f8d7 30d4 	ldr.w	r3, [r7, #212]	@ 0xd4
 8005be2:	2b00      	cmp	r3, #0
 8005be4:	d04f      	beq.n	8005c86 <HAL_UART_IRQHandler+0x21a>
 8005be6:	6878      	ldr	r0, [r7, #4]
 8005be8:	f000 fa81 	bl	80060ee <UART_EndRxTransfer>
 8005bec:	687b      	ldr	r3, [r7, #4]
 8005bee:	681b      	ldr	r3, [r3, #0]
 8005bf0:	695b      	ldr	r3, [r3, #20]
 8005bf2:	f003 0340 	and.w	r3, r3, #64	@ 0x40
 8005bf6:	2b00      	cmp	r3, #0
 8005bf8:	d041      	beq.n	8005c7e <HAL_UART_IRQHandler+0x212>
 8005bfa:	687b      	ldr	r3, [r7, #4]
 8005bfc:	681b      	ldr	r3, [r3, #0]
 8005bfe:	3314      	adds	r3, #20
 8005c00:	f8c7 309c 	str.w	r3, [r7, #156]	@ 0x9c
 8005c04:	f8d7 309c 	ldr.w	r3, [r7, #156]	@ 0x9c
 8005c08:	e853 3f00 	ldrex	r3, [r3]
 8005c0c:	f8c7 3098 	str.w	r3, [r7, #152]	@ 0x98
 8005c10:	f8d7 3098 	ldr.w	r3, [r7, #152]	@ 0x98
 8005c14:	f023 0340 	bic.w	r3, r3, #64	@ 0x40
 8005c18:	f8c7 30d0 	str.w	r3, [r7, #208]	@ 0xd0
 8005c1c:	687b      	ldr	r3, [r7, #4]
 8005c1e:	681b      	ldr	r3, [r3, #0]
 8005c20:	3314      	adds	r3, #20
 8005c22:	f8d7 20d0 	ldr.w	r2, [r7, #208]	@ 0xd0
 8005c26:	f8c7 20a8 	str.w	r2, [r7, #168]	@ 0xa8
 8005c2a:	f8c7 30a4 	str.w	r3, [r7, #164]	@ 0xa4
 8005c2e:	f8d7 10a4 	ldr.w	r1, [r7, #164]	@ 0xa4
 8005c32:	f8d7 20a8 	ldr.w	r2, [r7, #168]	@ 0xa8
 8005c36:	e841 2300 	strex	r3, r2, [r1]
 8005c3a:	f8c7 30a0 	str.w	r3, [r7, #160]	@ 0xa0
 8005c3e:	f8d7 30a0 	ldr.w	r3, [r7, #160]	@ 0xa0
 8005c42:	2b00      	cmp	r3, #0
 8005c44:	d1d9      	bne.n	8005bfa <HAL_UART_IRQHandler+0x18e>
 8005c46:	687b      	ldr	r3, [r7, #4]
 8005c48:	6bdb      	ldr	r3, [r3, #60]	@ 0x3c
 8005c4a:	2b00      	cmp	r3, #0
 8005c4c:	d013      	beq.n	8005c76 <HAL_UART_IRQHandler+0x20a>
 8005c4e:	687b      	ldr	r3, [r7, #4]
 8005c50:	6bdb      	ldr	r3, [r3, #60]	@ 0x3c
 8005c52:	4a7e      	ldr	r2, [pc, #504]	@ (8005e4c <HAL_UART_IRQHandler+0x3e0>)
 8005c54:	635a      	str	r2, [r3, #52]	@ 0x34
 8005c56:	687b      	ldr	r3, [r7, #4]
 8005c58:	6bdb      	ldr	r3, [r3, #60]	@ 0x3c
 8005c5a:	4618      	mov	r0, r3
 8005c5c:	f7fd f90a 	bl	8002e74 <HAL_DMA_Abort_IT>
 8005c60:	4603      	mov	r3, r0
 8005c62:	2b00      	cmp	r3, #0
 8005c64:	d016      	beq.n	8005c94 <HAL_UART_IRQHandler+0x228>
 8005c66:	687b      	ldr	r3, [r7, #4]
 8005c68:	6bdb      	ldr	r3, [r3, #60]	@ 0x3c
 8005c6a:	6b5b      	ldr	r3, [r3, #52]	@ 0x34
 8005c6c:	687a      	ldr	r2, [r7, #4]
 8005c6e:	6bd2      	ldr	r2, [r2, #60]	@ 0x3c
 8005c70:	4610      	mov	r0, r2
 8005c72:	4798      	blx	r3
 8005c74:	e00e      	b.n	8005c94 <HAL_UART_IRQHandler+0x228>
 8005c76:	6878      	ldr	r0, [r7, #4]
 8005c78:	f000 f993 	bl	8005fa2 <HAL_UART_ErrorCallback>
 8005c7c:	e00a      	b.n	8005c94 <HAL_UART_IRQHandler+0x228>
 8005c7e:	6878      	ldr	r0, [r7, #4]
 8005c80:	f000 f98f 	bl	8005fa2 <HAL_UART_ErrorCallback>
 8005c84:	e006      	b.n	8005c94 <HAL_UART_IRQHandler+0x228>
 8005c86:	6878      	ldr	r0, [r7, #4]
 8005c88:	f000 f98b 	bl	8005fa2 <HAL_UART_ErrorCallback>
 8005c8c:	687b      	ldr	r3, [r7, #4]
 8005c8e:	2200      	movs	r2, #0
 8005c90:	645a      	str	r2, [r3, #68]	@ 0x44
 8005c92:	e175      	b.n	8005f80 <HAL_UART_IRQHandler+0x514>
 8005c94:	bf00      	nop
 8005c96:	e173      	b.n	8005f80 <HAL_UART_IRQHandler+0x514>
 8005c98:	687b      	ldr	r3, [r7, #4]
 8005c9a:	6b1b      	ldr	r3, [r3, #48]	@ 0x30
 8005c9c:	2b01      	cmp	r3, #1
 8005c9e:	f040 814f 	bne.w	8005f40 <HAL_UART_IRQHandler+0x4d4>
 8005ca2:	f8d7 30e4 	ldr.w	r3, [r7, #228]	@ 0xe4
 8005ca6:	f003 0310 	and.w	r3, r3, #16
 8005caa:	2b00      	cmp	r3, #0
 8005cac:	f000 8148 	beq.w	8005f40 <HAL_UART_IRQHandler+0x4d4>
 8005cb0:	f8d7 30e0 	ldr.w	r3, [r7, #224]	@ 0xe0
 8005cb4:	f003 0310 	and.w	r3, r3, #16
 8005cb8:	2b00      	cmp	r3, #0
 8005cba:	f000 8141 	beq.w	8005f40 <HAL_UART_IRQHandler+0x4d4>
 8005cbe:	2300      	movs	r3, #0
 8005cc0:	60bb      	str	r3, [r7, #8]
 8005cc2:	687b      	ldr	r3, [r7, #4]
 8005cc4:	681b      	ldr	r3, [r3, #0]
 8005cc6:	681b      	ldr	r3, [r3, #0]
 8005cc8:	60bb      	str	r3, [r7, #8]
 8005cca:	687b      	ldr	r3, [r7, #4]
 8005ccc:	681b      	ldr	r3, [r3, #0]
 8005cce:	685b      	ldr	r3, [r3, #4]
 8005cd0:	60bb      	str	r3, [r7, #8]
 8005cd2:	68bb      	ldr	r3, [r7, #8]
 8005cd4:	687b      	ldr	r3, [r7, #4]
 8005cd6:	681b      	ldr	r3, [r3, #0]
 8005cd8:	695b      	ldr	r3, [r3, #20]
 8005cda:	f003 0340 	and.w	r3, r3, #64	@ 0x40
 8005cde:	2b00      	cmp	r3, #0
 8005ce0:	f000 80b6 	beq.w	8005e50 <HAL_UART_IRQHandler+0x3e4>
 8005ce4:	687b      	ldr	r3, [r7, #4]
 8005ce6:	6bdb      	ldr	r3, [r3, #60]	@ 0x3c
 8005ce8:	681b      	ldr	r3, [r3, #0]
 8005cea:	685b      	ldr	r3, [r3, #4]
 8005cec:	f8a7 30be 	strh.w	r3, [r7, #190]	@ 0xbe
 8005cf0:	f8b7 30be 	ldrh.w	r3, [r7, #190]	@ 0xbe
 8005cf4:	2b00      	cmp	r3, #0
 8005cf6:	f000 8145 	beq.w	8005f84 <HAL_UART_IRQHandler+0x518>
 8005cfa:	687b      	ldr	r3, [r7, #4]
 8005cfc:	8d9b      	ldrh	r3, [r3, #44]	@ 0x2c
 8005cfe:	f8b7 20be 	ldrh.w	r2, [r7, #190]	@ 0xbe
 8005d02:	429a      	cmp	r2, r3
 8005d04:	f080 813e 	bcs.w	8005f84 <HAL_UART_IRQHandler+0x518>
 8005d08:	687b      	ldr	r3, [r7, #4]
 8005d0a:	f8b7 20be 	ldrh.w	r2, [r7, #190]	@ 0xbe
 8005d0e:	85da      	strh	r2, [r3, #46]	@ 0x2e
 8005d10:	687b      	ldr	r3, [r7, #4]
 8005d12:	6bdb      	ldr	r3, [r3, #60]	@ 0x3c
 8005d14:	699b      	ldr	r3, [r3, #24]
 8005d16:	2b20      	cmp	r3, #32
 8005d18:	f000 8088 	beq.w	8005e2c <HAL_UART_IRQHandler+0x3c0>
 8005d1c:	687b      	ldr	r3, [r7, #4]
 8005d1e:	681b      	ldr	r3, [r3, #0]
 8005d20:	330c      	adds	r3, #12
 8005d22:	f8c7 3088 	str.w	r3, [r7, #136]	@ 0x88
 8005d26:	f8d7 3088 	ldr.w	r3, [r7, #136]	@ 0x88
 8005d2a:	e853 3f00 	ldrex	r3, [r3]
 8005d2e:	f8c7 3084 	str.w	r3, [r7, #132]	@ 0x84
 8005d32:	f8d7 3084 	ldr.w	r3, [r7, #132]	@ 0x84
 8005d36:	f423 7380 	bic.w	r3, r3, #256	@ 0x100
 8005d3a:	f8c7 30b8 	str.w	r3, [r7, #184]	@ 0xb8
 8005d3e:	687b      	ldr	r3, [r7, #4]
 8005d40:	681b      	ldr	r3, [r3, #0]
 8005d42:	330c      	adds	r3, #12
 8005d44:	f8d7 20b8 	ldr.w	r2, [r7, #184]	@ 0xb8
 8005d48:	f8c7 2094 	str.w	r2, [r7, #148]	@ 0x94
 8005d4c:	f8c7 3090 	str.w	r3, [r7, #144]	@ 0x90
 8005d50:	f8d7 1090 	ldr.w	r1, [r7, #144]	@ 0x90
 8005d54:	f8d7 2094 	ldr.w	r2, [r7, #148]	@ 0x94
 8005d58:	e841 2300 	strex	r3, r2, [r1]
 8005d5c:	f8c7 308c 	str.w	r3, [r7, #140]	@ 0x8c
 8005d60:	f8d7 308c 	ldr.w	r3, [r7, #140]	@ 0x8c
 8005d64:	2b00      	cmp	r3, #0
 8005d66:	d1d9      	bne.n	8005d1c <HAL_UART_IRQHandler+0x2b0>
 8005d68:	687b      	ldr	r3, [r7, #4]
 8005d6a:	681b      	ldr	r3, [r3, #0]
 8005d6c:	3314      	adds	r3, #20
 8005d6e:	677b      	str	r3, [r7, #116]	@ 0x74
 8005d70:	6f7b      	ldr	r3, [r7, #116]	@ 0x74
 8005d72:	e853 3f00 	ldrex	r3, [r3]
 8005d76:	673b      	str	r3, [r7, #112]	@ 0x70
 8005d78:	6f3b      	ldr	r3, [r7, #112]	@ 0x70
 8005d7a:	f023 0301 	bic.w	r3, r3, #1
 8005d7e:	f8c7 30b4 	str.w	r3, [r7, #180]	@ 0xb4
 8005d82:	687b      	ldr	r3, [r7, #4]
 8005d84:	681b      	ldr	r3, [r3, #0]
 8005d86:	3314      	adds	r3, #20
 8005d88:	f8d7 20b4 	ldr.w	r2, [r7, #180]	@ 0xb4
 8005d8c:	f8c7 2080 	str.w	r2, [r7, #128]	@ 0x80
 8005d90:	67fb      	str	r3, [r7, #124]	@ 0x7c
 8005d92:	6ff9      	ldr	r1, [r7, #124]	@ 0x7c
 8005d94:	f8d7 2080 	ldr.w	r2, [r7, #128]	@ 0x80
 8005d98:	e841 2300 	strex	r3, r2, [r1]
 8005d9c:	67bb      	str	r3, [r7, #120]	@ 0x78
 8005d9e:	6fbb      	ldr	r3, [r7, #120]	@ 0x78
 8005da0:	2b00      	cmp	r3, #0
 8005da2:	d1e1      	bne.n	8005d68 <HAL_UART_IRQHandler+0x2fc>
 8005da4:	687b      	ldr	r3, [r7, #4]
 8005da6:	681b      	ldr	r3, [r3, #0]
 8005da8:	3314      	adds	r3, #20
 8005daa:	663b      	str	r3, [r7, #96]	@ 0x60
 8005dac:	6e3b      	ldr	r3, [r7, #96]	@ 0x60
 8005dae:	e853 3f00 	ldrex	r3, [r3]
 8005db2:	65fb      	str	r3, [r7, #92]	@ 0x5c
 8005db4:	6dfb      	ldr	r3, [r7, #92]	@ 0x5c
 8005db6:	f023 0340 	bic.w	r3, r3, #64	@ 0x40
 8005dba:	f8c7 30b0 	str.w	r3, [r7, #176]	@ 0xb0
 8005dbe:	687b      	ldr	r3, [r7, #4]
 8005dc0:	681b      	ldr	r3, [r3, #0]
 8005dc2:	3314      	adds	r3, #20
 8005dc4:	f8d7 20b0 	ldr.w	r2, [r7, #176]	@ 0xb0
 8005dc8:	66fa      	str	r2, [r7, #108]	@ 0x6c
 8005dca:	66bb      	str	r3, [r7, #104]	@ 0x68
 8005dcc:	6eb9      	ldr	r1, [r7, #104]	@ 0x68
 8005dce:	6efa      	ldr	r2, [r7, #108]	@ 0x6c
 8005dd0:	e841 2300 	strex	r3, r2, [r1]
 8005dd4:	667b      	str	r3, [r7, #100]	@ 0x64
 8005dd6:	6e7b      	ldr	r3, [r7, #100]	@ 0x64
 8005dd8:	2b00      	cmp	r3, #0
 8005dda:	d1e3      	bne.n	8005da4 <HAL_UART_IRQHandler+0x338>
 8005ddc:	687b      	ldr	r3, [r7, #4]
 8005dde:	2220      	movs	r2, #32
 8005de0:	f883 2042 	strb.w	r2, [r3, #66]	@ 0x42
 8005de4:	687b      	ldr	r3, [r7, #4]
 8005de6:	2200      	movs	r2, #0
 8005de8:	631a      	str	r2, [r3, #48]	@ 0x30
 8005dea:	687b      	ldr	r3, [r7, #4]
 8005dec:	681b      	ldr	r3, [r3, #0]
 8005dee:	330c      	adds	r3, #12
 8005df0:	64fb      	str	r3, [r7, #76]	@ 0x4c
 8005df2:	6cfb      	ldr	r3, [r7, #76]	@ 0x4c
 8005df4:	e853 3f00 	ldrex	r3, [r3]
 8005df8:	64bb      	str	r3, [r7, #72]	@ 0x48
 8005dfa:	6cbb      	ldr	r3, [r7, #72]	@ 0x48
 8005dfc:	f023 0310 	bic.w	r3, r3, #16
 8005e00:	f8c7 30ac 	str.w	r3, [r7, #172]	@ 0xac
 8005e04:	687b      	ldr	r3, [r7, #4]
 8005e06:	681b      	ldr	r3, [r3, #0]
 8005e08:	330c      	adds	r3, #12
 8005e0a:	f8d7 20ac 	ldr.w	r2, [r7, #172]	@ 0xac
 8005e0e:	65ba      	str	r2, [r7, #88]	@ 0x58
 8005e10:	657b      	str	r3, [r7, #84]	@ 0x54
 8005e12:	6d79      	ldr	r1, [r7, #84]	@ 0x54
 8005e14:	6dba      	ldr	r2, [r7, #88]	@ 0x58
 8005e16:	e841 2300 	strex	r3, r2, [r1]
 8005e1a:	653b      	str	r3, [r7, #80]	@ 0x50
 8005e1c:	6d3b      	ldr	r3, [r7, #80]	@ 0x50
 8005e1e:	2b00      	cmp	r3, #0
 8005e20:	d1e3      	bne.n	8005dea <HAL_UART_IRQHandler+0x37e>
 8005e22:	687b      	ldr	r3, [r7, #4]
 8005e24:	6bdb      	ldr	r3, [r3, #60]	@ 0x3c
 8005e26:	4618      	mov	r0, r3
 8005e28:	f7fc ffe9 	bl	8002dfe <HAL_DMA_Abort>
 8005e2c:	687b      	ldr	r3, [r7, #4]
 8005e2e:	2202      	movs	r2, #2
 8005e30:	635a      	str	r2, [r3, #52]	@ 0x34
 8005e32:	687b      	ldr	r3, [r7, #4]
 8005e34:	8d9a      	ldrh	r2, [r3, #44]	@ 0x2c
 8005e36:	687b      	ldr	r3, [r7, #4]
 8005e38:	8ddb      	ldrh	r3, [r3, #46]	@ 0x2e
 8005e3a:	b29b      	uxth	r3, r3
 8005e3c:	1ad3      	subs	r3, r2, r3
 8005e3e:	b29b      	uxth	r3, r3
 8005e40:	4619      	mov	r1, r3
 8005e42:	6878      	ldr	r0, [r7, #4]
 8005e44:	f000 f8b6 	bl	8005fb4 <HAL_UARTEx_RxEventCallback>
 8005e48:	e09c      	b.n	8005f84 <HAL_UART_IRQHandler+0x518>
 8005e4a:	bf00      	nop
 8005e4c:	080061b3 	.word	0x080061b3
 8005e50:	687b      	ldr	r3, [r7, #4]
 8005e52:	8d9a      	ldrh	r2, [r3, #44]	@ 0x2c
 8005e54:	687b      	ldr	r3, [r7, #4]
 8005e56:	8ddb      	ldrh	r3, [r3, #46]	@ 0x2e
 8005e58:	b29b      	uxth	r3, r3
 8005e5a:	1ad3      	subs	r3, r2, r3
 8005e5c:	f8a7 30ce 	strh.w	r3, [r7, #206]	@ 0xce
 8005e60:	687b      	ldr	r3, [r7, #4]
 8005e62:	8ddb      	ldrh	r3, [r3, #46]	@ 0x2e
 8005e64:	b29b      	uxth	r3, r3
 8005e66:	2b00      	cmp	r3, #0
 8005e68:	f000 808e 	beq.w	8005f88 <HAL_UART_IRQHandler+0x51c>
 8005e6c:	f8b7 30ce 	ldrh.w	r3, [r7, #206]	@ 0xce
 8005e70:	2b00      	cmp	r3, #0
 8005e72:	f000 8089 	beq.w	8005f88 <HAL_UART_IRQHandler+0x51c>
 8005e76:	687b      	ldr	r3, [r7, #4]
 8005e78:	681b      	ldr	r3, [r3, #0]
 8005e7a:	330c      	adds	r3, #12
 8005e7c:	63bb      	str	r3, [r7, #56]	@ 0x38
 8005e7e:	6bbb      	ldr	r3, [r7, #56]	@ 0x38
 8005e80:	e853 3f00 	ldrex	r3, [r3]
 8005e84:	637b      	str	r3, [r7, #52]	@ 0x34
 8005e86:	6b7b      	ldr	r3, [r7, #52]	@ 0x34
 8005e88:	f423 7390 	bic.w	r3, r3, #288	@ 0x120
 8005e8c:	f8c7 30c8 	str.w	r3, [r7, #200]	@ 0xc8
 8005e90:	687b      	ldr	r3, [r7, #4]
 8005e92:	681b      	ldr	r3, [r3, #0]
 8005e94:	330c      	adds	r3, #12
 8005e96:	f8d7 20c8 	ldr.w	r2, [r7, #200]	@ 0xc8
 8005e9a:	647a      	str	r2, [r7, #68]	@ 0x44
 8005e9c:	643b      	str	r3, [r7, #64]	@ 0x40
 8005e9e:	6c39      	ldr	r1, [r7, #64]	@ 0x40
 8005ea0:	6c7a      	ldr	r2, [r7, #68]	@ 0x44
 8005ea2:	e841 2300 	strex	r3, r2, [r1]
 8005ea6:	63fb      	str	r3, [r7, #60]	@ 0x3c
 8005ea8:	6bfb      	ldr	r3, [r7, #60]	@ 0x3c
 8005eaa:	2b00      	cmp	r3, #0
 8005eac:	d1e3      	bne.n	8005e76 <HAL_UART_IRQHandler+0x40a>
 8005eae:	687b      	ldr	r3, [r7, #4]
 8005eb0:	681b      	ldr	r3, [r3, #0]
 8005eb2:	3314      	adds	r3, #20
 8005eb4:	627b      	str	r3, [r7, #36]	@ 0x24
 8005eb6:	6a7b      	ldr	r3, [r7, #36]	@ 0x24
 8005eb8:	e853 3f00 	ldrex	r3, [r3]
 8005ebc:	623b      	str	r3, [r7, #32]
 8005ebe:	6a3b      	ldr	r3, [r7, #32]
 8005ec0:	f023 0301 	bic.w	r3, r3, #1
 8005ec4:	f8c7 30c4 	str.w	r3, [r7, #196]	@ 0xc4
 8005ec8:	687b      	ldr	r3, [r7, #4]
 8005eca:	681b      	ldr	r3, [r3, #0]
 8005ecc:	3314      	adds	r3, #20
 8005ece:	f8d7 20c4 	ldr.w	r2, [r7, #196]	@ 0xc4
 8005ed2:	633a      	str	r2, [r7, #48]	@ 0x30
 8005ed4:	62fb      	str	r3, [r7, #44]	@ 0x2c
 8005ed6:	6af9      	ldr	r1, [r7, #44]	@ 0x2c
 8005ed8:	6b3a      	ldr	r2, [r7, #48]	@ 0x30
 8005eda:	e841 2300 	strex	r3, r2, [r1]
 8005ede:	62bb      	str	r3, [r7, #40]	@ 0x28
 8005ee0:	6abb      	ldr	r3, [r7, #40]	@ 0x28
 8005ee2:	2b00      	cmp	r3, #0
 8005ee4:	d1e3      	bne.n	8005eae <HAL_UART_IRQHandler+0x442>
 8005ee6:	687b      	ldr	r3, [r7, #4]
 8005ee8:	2220      	movs	r2, #32
 8005eea:	f883 2042 	strb.w	r2, [r3, #66]	@ 0x42
 8005eee:	687b      	ldr	r3, [r7, #4]
 8005ef0:	2200      	movs	r2, #0
 8005ef2:	631a      	str	r2, [r3, #48]	@ 0x30
 8005ef4:	687b      	ldr	r3, [r7, #4]
 8005ef6:	681b      	ldr	r3, [r3, #0]
 8005ef8:	330c      	adds	r3, #12
 8005efa:	613b      	str	r3, [r7, #16]
 8005efc:	693b      	ldr	r3, [r7, #16]
 8005efe:	e853 3f00 	ldrex	r3, [r3]
 8005f02:	60fb      	str	r3, [r7, #12]
 8005f04:	68fb      	ldr	r3, [r7, #12]
 8005f06:	f023 0310 	bic.w	r3, r3, #16
 8005f0a:	f8c7 30c0 	str.w	r3, [r7, #192]	@ 0xc0
 8005f0e:	687b      	ldr	r3, [r7, #4]
 8005f10:	681b      	ldr	r3, [r3, #0]
 8005f12:	330c      	adds	r3, #12
 8005f14:	f8d7 20c0 	ldr.w	r2, [r7, #192]	@ 0xc0
 8005f18:	61fa      	str	r2, [r7, #28]
 8005f1a:	61bb      	str	r3, [r7, #24]
 8005f1c:	69b9      	ldr	r1, [r7, #24]
 8005f1e:	69fa      	ldr	r2, [r7, #28]
 8005f20:	e841 2300 	strex	r3, r2, [r1]
 8005f24:	617b      	str	r3, [r7, #20]
 8005f26:	697b      	ldr	r3, [r7, #20]
 8005f28:	2b00      	cmp	r3, #0
 8005f2a:	d1e3      	bne.n	8005ef4 <HAL_UART_IRQHandler+0x488>
 8005f2c:	687b      	ldr	r3, [r7, #4]
 8005f2e:	2202      	movs	r2, #2
 8005f30:	635a      	str	r2, [r3, #52]	@ 0x34
 8005f32:	f8b7 30ce 	ldrh.w	r3, [r7, #206]	@ 0xce
 8005f36:	4619      	mov	r1, r3
 8005f38:	6878      	ldr	r0, [r7, #4]
 8005f3a:	f000 f83b 	bl	8005fb4 <HAL_UARTEx_RxEventCallback>
 8005f3e:	e023      	b.n	8005f88 <HAL_UART_IRQHandler+0x51c>
 8005f40:	f8d7 30e4 	ldr.w	r3, [r7, #228]	@ 0xe4
 8005f44:	f003 0380 	and.w	r3, r3, #128	@ 0x80
 8005f48:	2b00      	cmp	r3, #0
 8005f4a:	d009      	beq.n	8005f60 <HAL_UART_IRQHandler+0x4f4>
 8005f4c:	f8d7 30e0 	ldr.w	r3, [r7, #224]	@ 0xe0
 8005f50:	f003 0380 	and.w	r3, r3, #128	@ 0x80
 8005f54:	2b00      	cmp	r3, #0
 8005f56:	d003      	beq.n	8005f60 <HAL_UART_IRQHandler+0x4f4>
 8005f58:	6878      	ldr	r0, [r7, #4]
 8005f5a:	f000 f93e 	bl	80061da <UART_Transmit_IT>
 8005f5e:	e014      	b.n	8005f8a <HAL_UART_IRQHandler+0x51e>
 8005f60:	f8d7 30e4 	ldr.w	r3, [r7, #228]	@ 0xe4
 8005f64:	f003 0340 	and.w	r3, r3, #64	@ 0x40
 8005f68:	2b00      	cmp	r3, #0
 8005f6a:	d00e      	beq.n	8005f8a <HAL_UART_IRQHandler+0x51e>
 8005f6c:	f8d7 30e0 	ldr.w	r3, [r7, #224]	@ 0xe0
 8005f70:	f003 0340 	and.w	r3, r3, #64	@ 0x40
 8005f74:	2b00      	cmp	r3, #0
 8005f76:	d008      	beq.n	8005f8a <HAL_UART_IRQHandler+0x51e>
 8005f78:	6878      	ldr	r0, [r7, #4]
 8005f7a:	f000 f97d 	bl	8006278 <UART_EndTransmit_IT>
 8005f7e:	e004      	b.n	8005f8a <HAL_UART_IRQHandler+0x51e>
 8005f80:	bf00      	nop
 8005f82:	e002      	b.n	8005f8a <HAL_UART_IRQHandler+0x51e>
 8005f84:	bf00      	nop
 8005f86:	e000      	b.n	8005f8a <HAL_UART_IRQHandler+0x51e>
 8005f88:	bf00      	nop
 8005f8a:	37e8      	adds	r7, #232	@ 0xe8
 8005f8c:	46bd      	mov	sp, r7
 8005f8e:	bd80      	pop	{r7, pc}

08005f90 <HAL_UART_TxCpltCallback>:
 8005f90:	b480      	push	{r7}
 8005f92:	b083      	sub	sp, #12
 8005f94:	af00      	add	r7, sp, #0
 8005f96:	6078      	str	r0, [r7, #4]
 8005f98:	bf00      	nop
 8005f9a:	370c      	adds	r7, #12
 8005f9c:	46bd      	mov	sp, r7
 8005f9e:	bc80      	pop	{r7}
 8005fa0:	4770      	bx	lr

08005fa2 <HAL_UART_ErrorCallback>:
 8005fa2:	b480      	push	{r7}
 8005fa4:	b083      	sub	sp, #12
 8005fa6:	af00      	add	r7, sp, #0
 8005fa8:	6078      	str	r0, [r7, #4]
 8005faa:	bf00      	nop
 8005fac:	370c      	adds	r7, #12
 8005fae:	46bd      	mov	sp, r7
 8005fb0:	bc80      	pop	{r7}
 8005fb2:	4770      	bx	lr

08005fb4 <HAL_UARTEx_RxEventCallback>:
 8005fb4:	b480      	push	{r7}
 8005fb6:	b083      	sub	sp, #12
 8005fb8:	af00      	add	r7, sp, #0
 8005fba:	6078      	str	r0, [r7, #4]
 8005fbc:	460b      	mov	r3, r1
 8005fbe:	807b      	strh	r3, [r7, #2]
 8005fc0:	bf00      	nop
 8005fc2:	370c      	adds	r7, #12
 8005fc4:	46bd      	mov	sp, r7
 8005fc6:	bc80      	pop	{r7}
 8005fc8:	4770      	bx	lr

08005fca <UART_WaitOnFlagUntilTimeout>:
 8005fca:	b580      	push	{r7, lr}
 8005fcc:	b086      	sub	sp, #24
 8005fce:	af00      	add	r7, sp, #0
 8005fd0:	60f8      	str	r0, [r7, #12]
 8005fd2:	60b9      	str	r1, [r7, #8]
 8005fd4:	603b      	str	r3, [r7, #0]
 8005fd6:	4613      	mov	r3, r2
 8005fd8:	71fb      	strb	r3, [r7, #7]
 8005fda:	e03b      	b.n	8006054 <UART_WaitOnFlagUntilTimeout+0x8a>
 8005fdc:	6a3b      	ldr	r3, [r7, #32]
 8005fde:	f1b3 3fff 	cmp.w	r3, #4294967295
 8005fe2:	d037      	beq.n	8006054 <UART_WaitOnFlagUntilTimeout+0x8a>
 8005fe4:	f7fc f9a4 	bl	8002330 <HAL_GetTick>
 8005fe8:	4602      	mov	r2, r0
 8005fea:	683b      	ldr	r3, [r7, #0]
 8005fec:	1ad3      	subs	r3, r2, r3
 8005fee:	6a3a      	ldr	r2, [r7, #32]
 8005ff0:	429a      	cmp	r2, r3
 8005ff2:	d302      	bcc.n	8005ffa <UART_WaitOnFlagUntilTimeout+0x30>
 8005ff4:	6a3b      	ldr	r3, [r7, #32]
 8005ff6:	2b00      	cmp	r3, #0
 8005ff8:	d101      	bne.n	8005ffe <UART_WaitOnFlagUntilTimeout+0x34>
 8005ffa:	2303      	movs	r3, #3
 8005ffc:	e03a      	b.n	8006074 <UART_WaitOnFlagUntilTimeout+0xaa>
 8005ffe:	68fb      	ldr	r3, [r7, #12]
 8006000:	681b      	ldr	r3, [r3, #0]
 8006002:	68db      	ldr	r3, [r3, #12]
 8006004:	f003 0304 	and.w	r3, r3, #4
 8006008:	2b00      	cmp	r3, #0
 800600a:	d023      	beq.n	8006054 <UART_WaitOnFlagUntilTimeout+0x8a>
 800600c:	68bb      	ldr	r3, [r7, #8]
 800600e:	2b80      	cmp	r3, #128	@ 0x80
 8006010:	d020      	beq.n	8006054 <UART_WaitOnFlagUntilTimeout+0x8a>
 8006012:	68bb      	ldr	r3, [r7, #8]
 8006014:	2b40      	cmp	r3, #64	@ 0x40
 8006016:	d01d      	beq.n	8006054 <UART_WaitOnFlagUntilTimeout+0x8a>
 8006018:	68fb      	ldr	r3, [r7, #12]
 800601a:	681b      	ldr	r3, [r3, #0]
 800601c:	681b      	ldr	r3, [r3, #0]
 800601e:	f003 0308 	and.w	r3, r3, #8
 8006022:	2b08      	cmp	r3, #8
 8006024:	d116      	bne.n	8006054 <UART_WaitOnFlagUntilTimeout+0x8a>
 8006026:	2300      	movs	r3, #0
 8006028:	617b      	str	r3, [r7, #20]
 800602a:	68fb      	ldr	r3, [r7, #12]
 800602c:	681b      	ldr	r3, [r3, #0]
 800602e:	681b      	ldr	r3, [r3, #0]
 8006030:	617b      	str	r3, [r7, #20]
 8006032:	68fb      	ldr	r3, [r7, #12]
 8006034:	681b      	ldr	r3, [r3, #0]
 8006036:	685b      	ldr	r3, [r3, #4]
 8006038:	617b      	str	r3, [r7, #20]
 800603a:	697b      	ldr	r3, [r7, #20]
 800603c:	68f8      	ldr	r0, [r7, #12]
 800603e:	f000 f856 	bl	80060ee <UART_EndRxTransfer>
 8006042:	68fb      	ldr	r3, [r7, #12]
 8006044:	2208      	movs	r2, #8
 8006046:	645a      	str	r2, [r3, #68]	@ 0x44
 8006048:	68fb      	ldr	r3, [r7, #12]
 800604a:	2200      	movs	r2, #0
 800604c:	f883 2040 	strb.w	r2, [r3, #64]	@ 0x40
 8006050:	2301      	movs	r3, #1
 8006052:	e00f      	b.n	8006074 <UART_WaitOnFlagUntilTimeout+0xaa>
 8006054:	68fb      	ldr	r3, [r7, #12]
 8006056:	681b      	ldr	r3, [r3, #0]
 8006058:	681a      	ldr	r2, [r3, #0]
 800605a:	68bb      	ldr	r3, [r7, #8]
 800605c:	4013      	ands	r3, r2
 800605e:	68ba      	ldr	r2, [r7, #8]
 8006060:	429a      	cmp	r2, r3
 8006062:	bf0c      	ite	eq
 8006064:	2301      	moveq	r3, #1
 8006066:	2300      	movne	r3, #0
 8006068:	b2db      	uxtb	r3, r3
 800606a:	461a      	mov	r2, r3
 800606c:	79fb      	ldrb	r3, [r7, #7]
 800606e:	429a      	cmp	r2, r3
 8006070:	d0b4      	beq.n	8005fdc <UART_WaitOnFlagUntilTimeout+0x12>
 8006072:	2300      	movs	r3, #0
 8006074:	4618      	mov	r0, r3
 8006076:	3718      	adds	r7, #24
 8006078:	46bd      	mov	sp, r7
 800607a:	bd80      	pop	{r7, pc}

0800607c <UART_Start_Receive_IT>:
 800607c:	b480      	push	{r7}
 800607e:	b085      	sub	sp, #20
 8006080:	af00      	add	r7, sp, #0
 8006082:	60f8      	str	r0, [r7, #12]
 8006084:	60b9      	str	r1, [r7, #8]
 8006086:	4613      	mov	r3, r2
 8006088:	80fb      	strh	r3, [r7, #6]
 800608a:	68fb      	ldr	r3, [r7, #12]
 800608c:	68ba      	ldr	r2, [r7, #8]
 800608e:	629a      	str	r2, [r3, #40]	@ 0x28
 8006090:	68fb      	ldr	r3, [r7, #12]
 8006092:	88fa      	ldrh	r2, [r7, #6]
 8006094:	859a      	strh	r2, [r3, #44]	@ 0x2c
 8006096:	68fb      	ldr	r3, [r7, #12]
 8006098:	88fa      	ldrh	r2, [r7, #6]
 800609a:	85da      	strh	r2, [r3, #46]	@ 0x2e
 800609c:	68fb      	ldr	r3, [r7, #12]
 800609e:	2200      	movs	r2, #0
 80060a0:	645a      	str	r2, [r3, #68]	@ 0x44
 80060a2:	68fb      	ldr	r3, [r7, #12]
 80060a4:	2222      	movs	r2, #34	@ 0x22
 80060a6:	f883 2042 	strb.w	r2, [r3, #66]	@ 0x42
 80060aa:	68fb      	ldr	r3, [r7, #12]
 80060ac:	691b      	ldr	r3, [r3, #16]
 80060ae:	2b00      	cmp	r3, #0
 80060b0:	d007      	beq.n	80060c2 <UART_Start_Receive_IT+0x46>
 80060b2:	68fb      	ldr	r3, [r7, #12]
 80060b4:	681b      	ldr	r3, [r3, #0]
 80060b6:	68da      	ldr	r2, [r3, #12]
 80060b8:	68fb      	ldr	r3, [r7, #12]
 80060ba:	681b      	ldr	r3, [r3, #0]
 80060bc:	f442 7280 	orr.w	r2, r2, #256	@ 0x100
 80060c0:	60da      	str	r2, [r3, #12]
 80060c2:	68fb      	ldr	r3, [r7, #12]
 80060c4:	681b      	ldr	r3, [r3, #0]
 80060c6:	695a      	ldr	r2, [r3, #20]
 80060c8:	68fb      	ldr	r3, [r7, #12]
 80060ca:	681b      	ldr	r3, [r3, #0]
 80060cc:	f042 0201 	orr.w	r2, r2, #1
 80060d0:	615a      	str	r2, [r3, #20]
 80060d2:	68fb      	ldr	r3, [r7, #12]
 80060d4:	681b      	ldr	r3, [r3, #0]
 80060d6:	68da      	ldr	r2, [r3, #12]
 80060d8:	68fb      	ldr	r3, [r7, #12]
 80060da:	681b      	ldr	r3, [r3, #0]
 80060dc:	f042 0220 	orr.w	r2, r2, #32
 80060e0:	60da      	str	r2, [r3, #12]
 80060e2:	2300      	movs	r3, #0
 80060e4:	4618      	mov	r0, r3
 80060e6:	3714      	adds	r7, #20
 80060e8:	46bd      	mov	sp, r7
 80060ea:	bc80      	pop	{r7}
 80060ec:	4770      	bx	lr

080060ee <UART_EndRxTransfer>:
 80060ee:	b480      	push	{r7}
 80060f0:	b095      	sub	sp, #84	@ 0x54
 80060f2:	af00      	add	r7, sp, #0
 80060f4:	6078      	str	r0, [r7, #4]
 80060f6:	687b      	ldr	r3, [r7, #4]
 80060f8:	681b      	ldr	r3, [r3, #0]
 80060fa:	330c      	adds	r3, #12
 80060fc:	637b      	str	r3, [r7, #52]	@ 0x34
 80060fe:	6b7b      	ldr	r3, [r7, #52]	@ 0x34
 8006100:	e853 3f00 	ldrex	r3, [r3]
 8006104:	633b      	str	r3, [r7, #48]	@ 0x30
 8006106:	6b3b      	ldr	r3, [r7, #48]	@ 0x30
 8006108:	f423 7390 	bic.w	r3, r3, #288	@ 0x120
 800610c:	64fb      	str	r3, [r7, #76]	@ 0x4c
 800610e:	687b      	ldr	r3, [r7, #4]
 8006110:	681b      	ldr	r3, [r3, #0]
 8006112:	330c      	adds	r3, #12
 8006114:	6cfa      	ldr	r2, [r7, #76]	@ 0x4c
 8006116:	643a      	str	r2, [r7, #64]	@ 0x40
 8006118:	63fb      	str	r3, [r7, #60]	@ 0x3c
 800611a:	6bf9      	ldr	r1, [r7, #60]	@ 0x3c
 800611c:	6c3a      	ldr	r2, [r7, #64]	@ 0x40
 800611e:	e841 2300 	strex	r3, r2, [r1]
 8006122:	63bb      	str	r3, [r7, #56]	@ 0x38
 8006124:	6bbb      	ldr	r3, [r7, #56]	@ 0x38
 8006126:	2b00      	cmp	r3, #0
 8006128:	d1e5      	bne.n	80060f6 <UART_EndRxTransfer+0x8>
 800612a:	687b      	ldr	r3, [r7, #4]
 800612c:	681b      	ldr	r3, [r3, #0]
 800612e:	3314      	adds	r3, #20
 8006130:	623b      	str	r3, [r7, #32]
 8006132:	6a3b      	ldr	r3, [r7, #32]
 8006134:	e853 3f00 	ldrex	r3, [r3]
 8006138:	61fb      	str	r3, [r7, #28]
 800613a:	69fb      	ldr	r3, [r7, #28]
 800613c:	f023 0301 	bic.w	r3, r3, #1
 8006140:	64bb      	str	r3, [r7, #72]	@ 0x48
 8006142:	687b      	ldr	r3, [r7, #4]
 8006144:	681b      	ldr	r3, [r3, #0]
 8006146:	3314      	adds	r3, #20
 8006148:	6cba      	ldr	r2, [r7, #72]	@ 0x48
 800614a:	62fa      	str	r2, [r7, #44]	@ 0x2c
 800614c:	62bb      	str	r3, [r7, #40]	@ 0x28
 800614e:	6ab9      	ldr	r1, [r7, #40]	@ 0x28
 8006150:	6afa      	ldr	r2, [r7, #44]	@ 0x2c
 8006152:	e841 2300 	strex	r3, r2, [r1]
 8006156:	627b      	str	r3, [r7, #36]	@ 0x24
 8006158:	6a7b      	ldr	r3, [r7, #36]	@ 0x24
 800615a:	2b00      	cmp	r3, #0
 800615c:	d1e5      	bne.n	800612a <UART_EndRxTransfer+0x3c>
 800615e:	687b      	ldr	r3, [r7, #4]
 8006160:	6b1b      	ldr	r3, [r3, #48]	@ 0x30
 8006162:	2b01      	cmp	r3, #1
 8006164:	d119      	bne.n	800619a <UART_EndRxTransfer+0xac>
 8006166:	687b      	ldr	r3, [r7, #4]
 8006168:	681b      	ldr	r3, [r3, #0]
 800616a:	330c      	adds	r3, #12
 800616c:	60fb      	str	r3, [r7, #12]
 800616e:	68fb      	ldr	r3, [r7, #12]
 8006170:	e853 3f00 	ldrex	r3, [r3]
 8006174:	60bb      	str	r3, [r7, #8]
 8006176:	68bb      	ldr	r3, [r7, #8]
 8006178:	f023 0310 	bic.w	r3, r3, #16
 800617c:	647b      	str	r3, [r7, #68]	@ 0x44
 800617e:	687b      	ldr	r3, [r7, #4]
 8006180:	681b      	ldr	r3, [r3, #0]
 8006182:	330c      	adds	r3, #12
 8006184:	6c7a      	ldr	r2, [r7, #68]	@ 0x44
 8006186:	61ba      	str	r2, [r7, #24]
 8006188:	617b      	str	r3, [r7, #20]
 800618a:	6979      	ldr	r1, [r7, #20]
 800618c:	69ba      	ldr	r2, [r7, #24]
 800618e:	e841 2300 	strex	r3, r2, [r1]
 8006192:	613b      	str	r3, [r7, #16]
 8006194:	693b      	ldr	r3, [r7, #16]
 8006196:	2b00      	cmp	r3, #0
 8006198:	d1e5      	bne.n	8006166 <UART_EndRxTransfer+0x78>
 800619a:	687b      	ldr	r3, [r7, #4]
 800619c:	2220      	movs	r2, #32
 800619e:	f883 2042 	strb.w	r2, [r3, #66]	@ 0x42
 80061a2:	687b      	ldr	r3, [r7, #4]
 80061a4:	2200      	movs	r2, #0
 80061a6:	631a      	str	r2, [r3, #48]	@ 0x30
 80061a8:	bf00      	nop
 80061aa:	3754      	adds	r7, #84	@ 0x54
 80061ac:	46bd      	mov	sp, r7
 80061ae:	bc80      	pop	{r7}
 80061b0:	4770      	bx	lr

080061b2 <UART_DMAAbortOnError>:
 80061b2:	b580      	push	{r7, lr}
 80061b4:	b084      	sub	sp, #16
 80061b6:	af00      	add	r7, sp, #0
 80061b8:	6078      	str	r0, [r7, #4]
 80061ba:	687b      	ldr	r3, [r7, #4]
 80061bc:	6a5b      	ldr	r3, [r3, #36]	@ 0x24
 80061be:	60fb      	str	r3, [r7, #12]
 80061c0:	68fb      	ldr	r3, [r7, #12]
 80061c2:	2200      	movs	r2, #0
 80061c4:	85da      	strh	r2, [r3, #46]	@ 0x2e
 80061c6:	68fb      	ldr	r3, [r7, #12]
 80061c8:	2200      	movs	r2, #0
 80061ca:	84da      	strh	r2, [r3, #38]	@ 0x26
 80061cc:	68f8      	ldr	r0, [r7, #12]
 80061ce:	f7ff fee8 	bl	8005fa2 <HAL_UART_ErrorCallback>
 80061d2:	bf00      	nop
 80061d4:	3710      	adds	r7, #16
 80061d6:	46bd      	mov	sp, r7
 80061d8:	bd80      	pop	{r7, pc}

080061da <UART_Transmit_IT>:
 80061da:	b480      	push	{r7}
 80061dc:	b085      	sub	sp, #20
 80061de:	af00      	add	r7, sp, #0
 80061e0:	6078      	str	r0, [r7, #4]
 80061e2:	687b      	ldr	r3, [r7, #4]
 80061e4:	f893 3041 	ldrb.w	r3, [r3, #65]	@ 0x41
 80061e8:	b2db      	uxtb	r3, r3
 80061ea:	2b21      	cmp	r3, #33	@ 0x21
 80061ec:	d13e      	bne.n	800626c <UART_Transmit_IT+0x92>
 80061ee:	687b      	ldr	r3, [r7, #4]
 80061f0:	689b      	ldr	r3, [r3, #8]
 80061f2:	f5b3 5f80 	cmp.w	r3, #4096	@ 0x1000
 80061f6:	d114      	bne.n	8006222 <UART_Transmit_IT+0x48>
 80061f8:	687b      	ldr	r3, [r7, #4]
 80061fa:	691b      	ldr	r3, [r3, #16]
 80061fc:	2b00      	cmp	r3, #0
 80061fe:	d110      	bne.n	8006222 <UART_Transmit_IT+0x48>
 8006200:	687b      	ldr	r3, [r7, #4]
 8006202:	6a1b      	ldr	r3, [r3, #32]
 8006204:	60fb      	str	r3, [r7, #12]
 8006206:	68fb      	ldr	r3, [r7, #12]
 8006208:	881b      	ldrh	r3, [r3, #0]
 800620a:	461a      	mov	r2, r3
 800620c:	687b      	ldr	r3, [r7, #4]
 800620e:	681b      	ldr	r3, [r3, #0]
 8006210:	f3c2 0208 	ubfx	r2, r2, #0, #9
 8006214:	605a      	str	r2, [r3, #4]
 8006216:	687b      	ldr	r3, [r7, #4]
 8006218:	6a1b      	ldr	r3, [r3, #32]
 800621a:	1c9a      	adds	r2, r3, #2
 800621c:	687b      	ldr	r3, [r7, #4]
 800621e:	621a      	str	r2, [r3, #32]
 8006220:	e008      	b.n	8006234 <UART_Transmit_IT+0x5a>
 8006222:	687b      	ldr	r3, [r7, #4]
 8006224:	6a1b      	ldr	r3, [r3, #32]
 8006226:	1c59      	adds	r1, r3, #1
 8006228:	687a      	ldr	r2, [r7, #4]
 800622a:	6211      	str	r1, [r2, #32]
 800622c:	781a      	ldrb	r2, [r3, #0]
 800622e:	687b      	ldr	r3, [r7, #4]
 8006230:	681b      	ldr	r3, [r3, #0]
 8006232:	605a      	str	r2, [r3, #4]
 8006234:	687b      	ldr	r3, [r7, #4]
 8006236:	8cdb      	ldrh	r3, [r3, #38]	@ 0x26
 8006238:	b29b      	uxth	r3, r3
 800623a:	3b01      	subs	r3, #1
 800623c:	b29b      	uxth	r3, r3
 800623e:	687a      	ldr	r2, [r7, #4]
 8006240:	4619      	mov	r1, r3
 8006242:	84d1      	strh	r1, [r2, #38]	@ 0x26
 8006244:	2b00      	cmp	r3, #0
 8006246:	d10f      	bne.n	8006268 <UART_Transmit_IT+0x8e>
 8006248:	687b      	ldr	r3, [r7, #4]
 800624a:	681b      	ldr	r3, [r3, #0]
 800624c:	68da      	ldr	r2, [r3, #12]
 800624e:	687b      	ldr	r3, [r7, #4]
 8006250:	681b      	ldr	r3, [r3, #0]
 8006252:	f022 0280 	bic.w	r2, r2, #128	@ 0x80
 8006256:	60da      	str	r2, [r3, #12]
 8006258:	687b      	ldr	r3, [r7, #4]
 800625a:	681b      	ldr	r3, [r3, #0]
 800625c:	68da      	ldr	r2, [r3, #12]
 800625e:	687b      	ldr	r3, [r7, #4]
 8006260:	681b      	ldr	r3, [r3, #0]
 8006262:	f042 0240 	orr.w	r2, r2, #64	@ 0x40
 8006266:	60da      	str	r2, [r3, #12]
 8006268:	2300      	movs	r3, #0
 800626a:	e000      	b.n	800626e <UART_Transmit_IT+0x94>
 800626c:	2302      	movs	r3, #2
 800626e:	4618      	mov	r0, r3
 8006270:	3714      	adds	r7, #20
 8006272:	46bd      	mov	sp, r7
 8006274:	bc80      	pop	{r7}
 8006276:	4770      	bx	lr

08006278 <UART_EndTransmit_IT>:
 8006278:	b580      	push	{r7, lr}
 800627a:	b082      	sub	sp, #8
 800627c:	af00      	add	r7, sp, #0
 800627e:	6078      	str	r0, [r7, #4]
 8006280:	687b      	ldr	r3, [r7, #4]
 8006282:	681b      	ldr	r3, [r3, #0]
 8006284:	68da      	ldr	r2, [r3, #12]
 8006286:	687b      	ldr	r3, [r7, #4]
 8006288:	681b      	ldr	r3, [r3, #0]
 800628a:	f022 0240 	bic.w	r2, r2, #64	@ 0x40
 800628e:	60da      	str	r2, [r3, #12]
 8006290:	687b      	ldr	r3, [r7, #4]
 8006292:	2220      	movs	r2, #32
 8006294:	f883 2041 	strb.w	r2, [r3, #65]	@ 0x41
 8006298:	6878      	ldr	r0, [r7, #4]
 800629a:	f7ff fe79 	bl	8005f90 <HAL_UART_TxCpltCallback>
 800629e:	2300      	movs	r3, #0
 80062a0:	4618      	mov	r0, r3
 80062a2:	3708      	adds	r7, #8
 80062a4:	46bd      	mov	sp, r7
 80062a6:	bd80      	pop	{r7, pc}

080062a8 <UART_Receive_IT>:
 80062a8:	b580      	push	{r7, lr}
 80062aa:	b08c      	sub	sp, #48	@ 0x30
 80062ac:	af00      	add	r7, sp, #0
 80062ae:	6078      	str	r0, [r7, #4]
 80062b0:	687b      	ldr	r3, [r7, #4]
 80062b2:	f893 3042 	ldrb.w	r3, [r3, #66]	@ 0x42
 80062b6:	b2db      	uxtb	r3, r3
 80062b8:	2b22      	cmp	r3, #34	@ 0x22
 80062ba:	f040 80ae 	bne.w	800641a <UART_Receive_IT+0x172>
 80062be:	687b      	ldr	r3, [r7, #4]
 80062c0:	689b      	ldr	r3, [r3, #8]
 80062c2:	f5b3 5f80 	cmp.w	r3, #4096	@ 0x1000
 80062c6:	d117      	bne.n	80062f8 <UART_Receive_IT+0x50>
 80062c8:	687b      	ldr	r3, [r7, #4]
 80062ca:	691b      	ldr	r3, [r3, #16]
 80062cc:	2b00      	cmp	r3, #0
 80062ce:	d113      	bne.n	80062f8 <UART_Receive_IT+0x50>
 80062d0:	2300      	movs	r3, #0
 80062d2:	62fb      	str	r3, [r7, #44]	@ 0x2c
 80062d4:	687b      	ldr	r3, [r7, #4]
 80062d6:	6a9b      	ldr	r3, [r3, #40]	@ 0x28
 80062d8:	62bb      	str	r3, [r7, #40]	@ 0x28
 80062da:	687b      	ldr	r3, [r7, #4]
 80062dc:	681b      	ldr	r3, [r3, #0]
 80062de:	685b      	ldr	r3, [r3, #4]
 80062e0:	b29b      	uxth	r3, r3
 80062e2:	f3c3 0308 	ubfx	r3, r3, #0, #9
 80062e6:	b29a      	uxth	r2, r3
 80062e8:	6abb      	ldr	r3, [r7, #40]	@ 0x28
 80062ea:	801a      	strh	r2, [r3, #0]
 80062ec:	687b      	ldr	r3, [r7, #4]
 80062ee:	6a9b      	ldr	r3, [r3, #40]	@ 0x28
 80062f0:	1c9a      	adds	r2, r3, #2
 80062f2:	687b      	ldr	r3, [r7, #4]
 80062f4:	629a      	str	r2, [r3, #40]	@ 0x28
 80062f6:	e026      	b.n	8006346 <UART_Receive_IT+0x9e>
 80062f8:	687b      	ldr	r3, [r7, #4]
 80062fa:	6a9b      	ldr	r3, [r3, #40]	@ 0x28
 80062fc:	62fb      	str	r3, [r7, #44]	@ 0x2c
 80062fe:	2300      	movs	r3, #0
 8006300:	62bb      	str	r3, [r7, #40]	@ 0x28
 8006302:	687b      	ldr	r3, [r7, #4]
 8006304:	689b      	ldr	r3, [r3, #8]
 8006306:	f5b3 5f80 	cmp.w	r3, #4096	@ 0x1000
 800630a:	d007      	beq.n	800631c <UART_Receive_IT+0x74>
 800630c:	687b      	ldr	r3, [r7, #4]
 800630e:	689b      	ldr	r3, [r3, #8]
 8006310:	2b00      	cmp	r3, #0
 8006312:	d10a      	bne.n	800632a <UART_Receive_IT+0x82>
 8006314:	687b      	ldr	r3, [r7, #4]
 8006316:	691b      	ldr	r3, [r3, #16]
 8006318:	2b00      	cmp	r3, #0
 800631a:	d106      	bne.n	800632a <UART_Receive_IT+0x82>
 800631c:	687b      	ldr	r3, [r7, #4]
 800631e:	681b      	ldr	r3, [r3, #0]
 8006320:	685b      	ldr	r3, [r3, #4]
 8006322:	b2da      	uxtb	r2, r3
 8006324:	6afb      	ldr	r3, [r7, #44]	@ 0x2c
 8006326:	701a      	strb	r2, [r3, #0]
 8006328:	e008      	b.n	800633c <UART_Receive_IT+0x94>
 800632a:	687b      	ldr	r3, [r7, #4]
 800632c:	681b      	ldr	r3, [r3, #0]
 800632e:	685b      	ldr	r3, [r3, #4]
 8006330:	b2db      	uxtb	r3, r3
 8006332:	f003 037f 	and.w	r3, r3, #127	@ 0x7f
 8006336:	b2da      	uxtb	r2, r3
 8006338:	6afb      	ldr	r3, [r7, #44]	@ 0x2c
 800633a:	701a      	strb	r2, [r3, #0]
 800633c:	687b      	ldr	r3, [r7, #4]
 800633e:	6a9b      	ldr	r3, [r3, #40]	@ 0x28
 8006340:	1c5a      	adds	r2, r3, #1
 8006342:	687b      	ldr	r3, [r7, #4]
 8006344:	629a      	str	r2, [r3, #40]	@ 0x28
 8006346:	687b      	ldr	r3, [r7, #4]
 8006348:	8ddb      	ldrh	r3, [r3, #46]	@ 0x2e
 800634a:	b29b      	uxth	r3, r3
 800634c:	3b01      	subs	r3, #1
 800634e:	b29b      	uxth	r3, r3
 8006350:	687a      	ldr	r2, [r7, #4]
 8006352:	4619      	mov	r1, r3
 8006354:	85d1      	strh	r1, [r2, #46]	@ 0x2e
 8006356:	2b00      	cmp	r3, #0
 8006358:	d15d      	bne.n	8006416 <UART_Receive_IT+0x16e>
 800635a:	687b      	ldr	r3, [r7, #4]
 800635c:	681b      	ldr	r3, [r3, #0]
 800635e:	68da      	ldr	r2, [r3, #12]
 8006360:	687b      	ldr	r3, [r7, #4]
 8006362:	681b      	ldr	r3, [r3, #0]
 8006364:	f022 0220 	bic.w	r2, r2, #32
 8006368:	60da      	str	r2, [r3, #12]
 800636a:	687b      	ldr	r3, [r7, #4]
 800636c:	681b      	ldr	r3, [r3, #0]
 800636e:	68da      	ldr	r2, [r3, #12]
 8006370:	687b      	ldr	r3, [r7, #4]
 8006372:	681b      	ldr	r3, [r3, #0]
 8006374:	f422 7280 	bic.w	r2, r2, #256	@ 0x100
 8006378:	60da      	str	r2, [r3, #12]
 800637a:	687b      	ldr	r3, [r7, #4]
 800637c:	681b      	ldr	r3, [r3, #0]
 800637e:	695a      	ldr	r2, [r3, #20]
 8006380:	687b      	ldr	r3, [r7, #4]
 8006382:	681b      	ldr	r3, [r3, #0]
 8006384:	f022 0201 	bic.w	r2, r2, #1
 8006388:	615a      	str	r2, [r3, #20]
 800638a:	687b      	ldr	r3, [r7, #4]
 800638c:	2220      	movs	r2, #32
 800638e:	f883 2042 	strb.w	r2, [r3, #66]	@ 0x42
 8006392:	687b      	ldr	r3, [r7, #4]
 8006394:	2200      	movs	r2, #0
 8006396:	635a      	str	r2, [r3, #52]	@ 0x34
 8006398:	687b      	ldr	r3, [r7, #4]
 800639a:	6b1b      	ldr	r3, [r3, #48]	@ 0x30
 800639c:	2b01      	cmp	r3, #1
 800639e:	d135      	bne.n	800640c <UART_Receive_IT+0x164>
 80063a0:	687b      	ldr	r3, [r7, #4]
 80063a2:	2200      	movs	r2, #0
 80063a4:	631a      	str	r2, [r3, #48]	@ 0x30
 80063a6:	687b      	ldr	r3, [r7, #4]
 80063a8:	681b      	ldr	r3, [r3, #0]
 80063aa:	330c      	adds	r3, #12
 80063ac:	617b      	str	r3, [r7, #20]
 80063ae:	697b      	ldr	r3, [r7, #20]
 80063b0:	e853 3f00 	ldrex	r3, [r3]
 80063b4:	613b      	str	r3, [r7, #16]
 80063b6:	693b      	ldr	r3, [r7, #16]
 80063b8:	f023 0310 	bic.w	r3, r3, #16
 80063bc:	627b      	str	r3, [r7, #36]	@ 0x24
 80063be:	687b      	ldr	r3, [r7, #4]
 80063c0:	681b      	ldr	r3, [r3, #0]
 80063c2:	330c      	adds	r3, #12
 80063c4:	6a7a      	ldr	r2, [r7, #36]	@ 0x24
 80063c6:	623a      	str	r2, [r7, #32]
 80063c8:	61fb      	str	r3, [r7, #28]
 80063ca:	69f9      	ldr	r1, [r7, #28]
 80063cc:	6a3a      	ldr	r2, [r7, #32]
 80063ce:	e841 2300 	strex	r3, r2, [r1]
 80063d2:	61bb      	str	r3, [r7, #24]
 80063d4:	69bb      	ldr	r3, [r7, #24]
 80063d6:	2b00      	cmp	r3, #0
 80063d8:	d1e5      	bne.n	80063a6 <UART_Receive_IT+0xfe>
 80063da:	687b      	ldr	r3, [r7, #4]
 80063dc:	681b      	ldr	r3, [r3, #0]
 80063de:	681b      	ldr	r3, [r3, #0]
 80063e0:	f003 0310 	and.w	r3, r3, #16
 80063e4:	2b10      	cmp	r3, #16
 80063e6:	d10a      	bne.n	80063fe <UART_Receive_IT+0x156>
 80063e8:	2300      	movs	r3, #0
 80063ea:	60fb      	str	r3, [r7, #12]
 80063ec:	687b      	ldr	r3, [r7, #4]
 80063ee:	681b      	ldr	r3, [r3, #0]
 80063f0:	681b      	ldr	r3, [r3, #0]
 80063f2:	60fb      	str	r3, [r7, #12]
 80063f4:	687b      	ldr	r3, [r7, #4]
 80063f6:	681b      	ldr	r3, [r3, #0]
 80063f8:	685b      	ldr	r3, [r3, #4]
 80063fa:	60fb      	str	r3, [r7, #12]
 80063fc:	68fb      	ldr	r3, [r7, #12]
 80063fe:	687b      	ldr	r3, [r7, #4]
 8006400:	8d9b      	ldrh	r3, [r3, #44]	@ 0x2c
 8006402:	4619      	mov	r1, r3
 8006404:	6878      	ldr	r0, [r7, #4]
 8006406:	f7ff fdd5 	bl	8005fb4 <HAL_UARTEx_RxEventCallback>
 800640a:	e002      	b.n	8006412 <UART_Receive_IT+0x16a>
 800640c:	6878      	ldr	r0, [r7, #4]
 800640e:	f7fa fc27 	bl	8000c60 <HAL_UART_RxCpltCallback>
 8006412:	2300      	movs	r3, #0
 8006414:	e002      	b.n	800641c <UART_Receive_IT+0x174>
 8006416:	2300      	movs	r3, #0
 8006418:	e000      	b.n	800641c <UART_Receive_IT+0x174>
 800641a:	2302      	movs	r3, #2
 800641c:	4618      	mov	r0, r3
 800641e:	3730      	adds	r7, #48	@ 0x30
 8006420:	46bd      	mov	sp, r7
 8006422:	bd80      	pop	{r7, pc}

08006424 <UART_SetConfig>:
 8006424:	b580      	push	{r7, lr}
 8006426:	b084      	sub	sp, #16
 8006428:	af00      	add	r7, sp, #0
 800642a:	6078      	str	r0, [r7, #4]
 800642c:	687b      	ldr	r3, [r7, #4]
 800642e:	681b      	ldr	r3, [r3, #0]
 8006430:	691b      	ldr	r3, [r3, #16]
 8006432:	f423 5140 	bic.w	r1, r3, #12288	@ 0x3000
 8006436:	687b      	ldr	r3, [r7, #4]
 8006438:	68da      	ldr	r2, [r3, #12]
 800643a:	687b      	ldr	r3, [r7, #4]
 800643c:	681b      	ldr	r3, [r3, #0]
 800643e:	430a      	orrs	r2, r1
 8006440:	611a      	str	r2, [r3, #16]
 8006442:	687b      	ldr	r3, [r7, #4]
 8006444:	689a      	ldr	r2, [r3, #8]
 8006446:	687b      	ldr	r3, [r7, #4]
 8006448:	691b      	ldr	r3, [r3, #16]
 800644a:	431a      	orrs	r2, r3
 800644c:	687b      	ldr	r3, [r7, #4]
 800644e:	695b      	ldr	r3, [r3, #20]
 8006450:	4313      	orrs	r3, r2
 8006452:	60bb      	str	r3, [r7, #8]
 8006454:	687b      	ldr	r3, [r7, #4]
 8006456:	681b      	ldr	r3, [r3, #0]
 8006458:	68db      	ldr	r3, [r3, #12]
 800645a:	f423 53b0 	bic.w	r3, r3, #5632	@ 0x1600
 800645e:	f023 030c 	bic.w	r3, r3, #12
 8006462:	687a      	ldr	r2, [r7, #4]
 8006464:	6812      	ldr	r2, [r2, #0]
 8006466:	68b9      	ldr	r1, [r7, #8]
 8006468:	430b      	orrs	r3, r1
 800646a:	60d3      	str	r3, [r2, #12]
 800646c:	687b      	ldr	r3, [r7, #4]
 800646e:	681b      	ldr	r3, [r3, #0]
 8006470:	695b      	ldr	r3, [r3, #20]
 8006472:	f423 7140 	bic.w	r1, r3, #768	@ 0x300
 8006476:	687b      	ldr	r3, [r7, #4]
 8006478:	699a      	ldr	r2, [r3, #24]
 800647a:	687b      	ldr	r3, [r7, #4]
 800647c:	681b      	ldr	r3, [r3, #0]
 800647e:	430a      	orrs	r2, r1
 8006480:	615a      	str	r2, [r3, #20]
 8006482:	687b      	ldr	r3, [r7, #4]
 8006484:	681b      	ldr	r3, [r3, #0]
 8006486:	4a2c      	ldr	r2, [pc, #176]	@ (8006538 <UART_SetConfig+0x114>)
 8006488:	4293      	cmp	r3, r2
 800648a:	d103      	bne.n	8006494 <UART_SetConfig+0x70>
 800648c:	f7fe fc5e 	bl	8004d4c <HAL_RCC_GetPCLK2Freq>
 8006490:	60f8      	str	r0, [r7, #12]
 8006492:	e002      	b.n	800649a <UART_SetConfig+0x76>
 8006494:	f7fe fc46 	bl	8004d24 <HAL_RCC_GetPCLK1Freq>
 8006498:	60f8      	str	r0, [r7, #12]
 800649a:	68fa      	ldr	r2, [r7, #12]
 800649c:	4613      	mov	r3, r2
 800649e:	009b      	lsls	r3, r3, #2
 80064a0:	4413      	add	r3, r2
 80064a2:	009a      	lsls	r2, r3, #2
 80064a4:	441a      	add	r2, r3
 80064a6:	687b      	ldr	r3, [r7, #4]
 80064a8:	685b      	ldr	r3, [r3, #4]
 80064aa:	009b      	lsls	r3, r3, #2
 80064ac:	fbb2 f3f3 	udiv	r3, r2, r3
 80064b0:	4a22      	ldr	r2, [pc, #136]	@ (800653c <UART_SetConfig+0x118>)
 80064b2:	fba2 2303 	umull	r2, r3, r2, r3
 80064b6:	095b      	lsrs	r3, r3, #5
 80064b8:	0119      	lsls	r1, r3, #4
 80064ba:	68fa      	ldr	r2, [r7, #12]
 80064bc:	4613      	mov	r3, r2
 80064be:	009b      	lsls	r3, r3, #2
 80064c0:	4413      	add	r3, r2
 80064c2:	009a      	lsls	r2, r3, #2
 80064c4:	441a      	add	r2, r3
 80064c6:	687b      	ldr	r3, [r7, #4]
 80064c8:	685b      	ldr	r3, [r3, #4]
 80064ca:	009b      	lsls	r3, r3, #2
 80064cc:	fbb2 f2f3 	udiv	r2, r2, r3
 80064d0:	4b1a      	ldr	r3, [pc, #104]	@ (800653c <UART_SetConfig+0x118>)
 80064d2:	fba3 0302 	umull	r0, r3, r3, r2
 80064d6:	095b      	lsrs	r3, r3, #5
 80064d8:	2064      	movs	r0, #100	@ 0x64
 80064da:	fb00 f303 	mul.w	r3, r0, r3
 80064de:	1ad3      	subs	r3, r2, r3
 80064e0:	011b      	lsls	r3, r3, #4
 80064e2:	3332      	adds	r3, #50	@ 0x32
 80064e4:	4a15      	ldr	r2, [pc, #84]	@ (800653c <UART_SetConfig+0x118>)
 80064e6:	fba2 2303 	umull	r2, r3, r2, r3
 80064ea:	095b      	lsrs	r3, r3, #5
 80064ec:	f003 03f0 	and.w	r3, r3, #240	@ 0xf0
 80064f0:	4419      	add	r1, r3
 80064f2:	68fa      	ldr	r2, [r7, #12]
 80064f4:	4613      	mov	r3, r2
 80064f6:	009b      	lsls	r3, r3, #2
 80064f8:	4413      	add	r3, r2
 80064fa:	009a      	lsls	r2, r3, #2
 80064fc:	441a      	add	r2, r3
 80064fe:	687b      	ldr	r3, [r7, #4]
 8006500:	685b      	ldr	r3, [r3, #4]
 8006502:	009b      	lsls	r3, r3, #2
 8006504:	fbb2 f2f3 	udiv	r2, r2, r3
 8006508:	4b0c      	ldr	r3, [pc, #48]	@ (800653c <UART_SetConfig+0x118>)
 800650a:	fba3 0302 	umull	r0, r3, r3, r2
 800650e:	095b      	lsrs	r3, r3, #5
 8006510:	2064      	movs	r0, #100	@ 0x64
 8006512:	fb00 f303 	mul.w	r3, r0, r3
 8006516:	1ad3      	subs	r3, r2, r3
 8006518:	011b      	lsls	r3, r3, #4
 800651a:	3332      	adds	r3, #50	@ 0x32
 800651c:	4a07      	ldr	r2, [pc, #28]	@ (800653c <UART_SetConfig+0x118>)
 800651e:	fba2 2303 	umull	r2, r3, r2, r3
 8006522:	095b      	lsrs	r3, r3, #5
 8006524:	f003 020f 	and.w	r2, r3, #15
 8006528:	687b      	ldr	r3, [r7, #4]
 800652a:	681b      	ldr	r3, [r3, #0]
 800652c:	440a      	add	r2, r1
 800652e:	609a      	str	r2, [r3, #8]
 8006530:	bf00      	nop
 8006532:	3710      	adds	r7, #16
 8006534:	46bd      	mov	sp, r7
 8006536:	bd80      	pop	{r7, pc}
 8006538:	40013800 	.word	0x40013800
 800653c:	51eb851f 	.word	0x51eb851f

08006540 <sniprintf>:
 8006540:	b40c      	push	{r2, r3}
 8006542:	b530      	push	{r4, r5, lr}
 8006544:	4b17      	ldr	r3, [pc, #92]	@ (80065a4 <sniprintf+0x64>)
 8006546:	1e0c      	subs	r4, r1, #0
 8006548:	681d      	ldr	r5, [r3, #0]
 800654a:	b09d      	sub	sp, #116	@ 0x74
 800654c:	da08      	bge.n	8006560 <sniprintf+0x20>
 800654e:	238b      	movs	r3, #139	@ 0x8b
 8006550:	f04f 30ff 	mov.w	r0, #4294967295
 8006554:	602b      	str	r3, [r5, #0]
 8006556:	b01d      	add	sp, #116	@ 0x74
 8006558:	e8bd 4030 	ldmia.w	sp!, {r4, r5, lr}
 800655c:	b002      	add	sp, #8
 800655e:	4770      	bx	lr
 8006560:	f44f 7302 	mov.w	r3, #520	@ 0x208
 8006564:	f8ad 3014 	strh.w	r3, [sp, #20]
 8006568:	bf0c      	ite	eq
 800656a:	4623      	moveq	r3, r4
 800656c:	f104 33ff 	addne.w	r3, r4, #4294967295
 8006570:	9304      	str	r3, [sp, #16]
 8006572:	9307      	str	r3, [sp, #28]
 8006574:	f64f 73ff 	movw	r3, #65535	@ 0xffff
 8006578:	9002      	str	r0, [sp, #8]
 800657a:	9006      	str	r0, [sp, #24]
 800657c:	f8ad 3016 	strh.w	r3, [sp, #22]
 8006580:	4628      	mov	r0, r5
 8006582:	ab21      	add	r3, sp, #132	@ 0x84
 8006584:	9a20      	ldr	r2, [sp, #128]	@ 0x80
 8006586:	a902      	add	r1, sp, #8
 8006588:	9301      	str	r3, [sp, #4]
 800658a:	f000 f9b3 	bl	80068f4 <_svfiprintf_r>
 800658e:	1c43      	adds	r3, r0, #1
 8006590:	bfbc      	itt	lt
 8006592:	238b      	movlt	r3, #139	@ 0x8b
 8006594:	602b      	strlt	r3, [r5, #0]
 8006596:	2c00      	cmp	r4, #0
 8006598:	d0dd      	beq.n	8006556 <sniprintf+0x16>
 800659a:	2200      	movs	r2, #0
 800659c:	9b02      	ldr	r3, [sp, #8]
 800659e:	701a      	strb	r2, [r3, #0]
 80065a0:	e7d9      	b.n	8006556 <sniprintf+0x16>
 80065a2:	bf00      	nop
 80065a4:	20000010 	.word	0x20000010

080065a8 <siprintf>:
 80065a8:	b40e      	push	{r1, r2, r3}
 80065aa:	f06f 4100 	mvn.w	r1, #2147483648	@ 0x80000000
 80065ae:	b500      	push	{lr}
 80065b0:	b09c      	sub	sp, #112	@ 0x70
 80065b2:	ab1d      	add	r3, sp, #116	@ 0x74
 80065b4:	9002      	str	r0, [sp, #8]
 80065b6:	9006      	str	r0, [sp, #24]
 80065b8:	9107      	str	r1, [sp, #28]
 80065ba:	9104      	str	r1, [sp, #16]
 80065bc:	4808      	ldr	r0, [pc, #32]	@ (80065e0 <siprintf+0x38>)
 80065be:	4909      	ldr	r1, [pc, #36]	@ (80065e4 <siprintf+0x3c>)
 80065c0:	f853 2b04 	ldr.w	r2, [r3], #4
 80065c4:	9105      	str	r1, [sp, #20]
 80065c6:	6800      	ldr	r0, [r0, #0]
 80065c8:	a902      	add	r1, sp, #8
 80065ca:	9301      	str	r3, [sp, #4]
 80065cc:	f000 f992 	bl	80068f4 <_svfiprintf_r>
 80065d0:	2200      	movs	r2, #0
 80065d2:	9b02      	ldr	r3, [sp, #8]
 80065d4:	701a      	strb	r2, [r3, #0]
 80065d6:	b01c      	add	sp, #112	@ 0x70
 80065d8:	f85d eb04 	ldr.w	lr, [sp], #4
 80065dc:	b003      	add	sp, #12
 80065de:	4770      	bx	lr
 80065e0:	20000010 	.word	0x20000010
 80065e4:	ffff0208 	.word	0xffff0208

080065e8 <memset>:
 80065e8:	4603      	mov	r3, r0
 80065ea:	4402      	add	r2, r0
 80065ec:	4293      	cmp	r3, r2
 80065ee:	d100      	bne.n	80065f2 <memset+0xa>
 80065f0:	4770      	bx	lr
 80065f2:	f803 1b01 	strb.w	r1, [r3], #1
 80065f6:	e7f9      	b.n	80065ec <memset+0x4>

080065f8 <__errno>:
 80065f8:	4b01      	ldr	r3, [pc, #4]	@ (8006600 <__errno+0x8>)
 80065fa:	6818      	ldr	r0, [r3, #0]
 80065fc:	4770      	bx	lr
 80065fe:	bf00      	nop
 8006600:	20000010 	.word	0x20000010

08006604 <__libc_init_array>:
 8006604:	b570      	push	{r4, r5, r6, lr}
 8006606:	2600      	movs	r6, #0
 8006608:	4d0c      	ldr	r5, [pc, #48]	@ (800663c <__libc_init_array+0x38>)
 800660a:	4c0d      	ldr	r4, [pc, #52]	@ (8006640 <__libc_init_array+0x3c>)
 800660c:	1b64      	subs	r4, r4, r5
 800660e:	10a4      	asrs	r4, r4, #2
 8006610:	42a6      	cmp	r6, r4
 8006612:	d109      	bne.n	8006628 <__libc_init_array+0x24>
 8006614:	f000 fc78 	bl	8006f08 <_init>
 8006618:	2600      	movs	r6, #0
 800661a:	4d0a      	ldr	r5, [pc, #40]	@ (8006644 <__libc_init_array+0x40>)
 800661c:	4c0a      	ldr	r4, [pc, #40]	@ (8006648 <__libc_init_array+0x44>)
 800661e:	1b64      	subs	r4, r4, r5
 8006620:	10a4      	asrs	r4, r4, #2
 8006622:	42a6      	cmp	r6, r4
 8006624:	d105      	bne.n	8006632 <__libc_init_array+0x2e>
 8006626:	bd70      	pop	{r4, r5, r6, pc}
 8006628:	f855 3b04 	ldr.w	r3, [r5], #4
 800662c:	4798      	blx	r3
 800662e:	3601      	adds	r6, #1
 8006630:	e7ee      	b.n	8006610 <__libc_init_array+0xc>
 8006632:	f855 3b04 	ldr.w	r3, [r5], #4
 8006636:	4798      	blx	r3
 8006638:	3601      	adds	r6, #1
 800663a:	e7f2      	b.n	8006622 <__libc_init_array+0x1e>
 800663c:	08007054 	.word	0x08007054
 8006640:	08007054 	.word	0x08007054
 8006644:	08007054 	.word	0x08007054
 8006648:	08007058 	.word	0x08007058

0800664c <__retarget_lock_acquire_recursive>:
 800664c:	4770      	bx	lr

0800664e <__retarget_lock_release_recursive>:
 800664e:	4770      	bx	lr

08006650 <_free_r>:
 8006650:	b538      	push	{r3, r4, r5, lr}
 8006652:	4605      	mov	r5, r0
 8006654:	2900      	cmp	r1, #0
 8006656:	d040      	beq.n	80066da <_free_r+0x8a>
 8006658:	f851 3c04 	ldr.w	r3, [r1, #-4]
 800665c:	1f0c      	subs	r4, r1, #4
 800665e:	2b00      	cmp	r3, #0
 8006660:	bfb8      	it	lt
 8006662:	18e4      	addlt	r4, r4, r3
 8006664:	f000 f8de 	bl	8006824 <__malloc_lock>
 8006668:	4a1c      	ldr	r2, [pc, #112]	@ (80066dc <_free_r+0x8c>)
 800666a:	6813      	ldr	r3, [r2, #0]
 800666c:	b933      	cbnz	r3, 800667c <_free_r+0x2c>
 800666e:	6063      	str	r3, [r4, #4]
 8006670:	6014      	str	r4, [r2, #0]
 8006672:	4628      	mov	r0, r5
 8006674:	e8bd 4038 	ldmia.w	sp!, {r3, r4, r5, lr}
 8006678:	f000 b8da 	b.w	8006830 <__malloc_unlock>
 800667c:	42a3      	cmp	r3, r4
 800667e:	d908      	bls.n	8006692 <_free_r+0x42>
 8006680:	6820      	ldr	r0, [r4, #0]
 8006682:	1821      	adds	r1, r4, r0
 8006684:	428b      	cmp	r3, r1
 8006686:	bf01      	itttt	eq
 8006688:	6819      	ldreq	r1, [r3, #0]
 800668a:	685b      	ldreq	r3, [r3, #4]
 800668c:	1809      	addeq	r1, r1, r0
 800668e:	6021      	streq	r1, [r4, #0]
 8006690:	e7ed      	b.n	800666e <_free_r+0x1e>
 8006692:	461a      	mov	r2, r3
 8006694:	685b      	ldr	r3, [r3, #4]
 8006696:	b10b      	cbz	r3, 800669c <_free_r+0x4c>
 8006698:	42a3      	cmp	r3, r4
 800669a:	d9fa      	bls.n	8006692 <_free_r+0x42>
 800669c:	6811      	ldr	r1, [r2, #0]
 800669e:	1850      	adds	r0, r2, r1
 80066a0:	42a0      	cmp	r0, r4
 80066a2:	d10b      	bne.n	80066bc <_free_r+0x6c>
 80066a4:	6820      	ldr	r0, [r4, #0]
 80066a6:	4401      	add	r1, r0
 80066a8:	1850      	adds	r0, r2, r1
 80066aa:	4283      	cmp	r3, r0
 80066ac:	6011      	str	r1, [r2, #0]
 80066ae:	d1e0      	bne.n	8006672 <_free_r+0x22>
 80066b0:	6818      	ldr	r0, [r3, #0]
 80066b2:	685b      	ldr	r3, [r3, #4]
 80066b4:	4408      	add	r0, r1
 80066b6:	6010      	str	r0, [r2, #0]
 80066b8:	6053      	str	r3, [r2, #4]
 80066ba:	e7da      	b.n	8006672 <_free_r+0x22>
 80066bc:	d902      	bls.n	80066c4 <_free_r+0x74>
 80066be:	230c      	movs	r3, #12
 80066c0:	602b      	str	r3, [r5, #0]
 80066c2:	e7d6      	b.n	8006672 <_free_r+0x22>
 80066c4:	6820      	ldr	r0, [r4, #0]
 80066c6:	1821      	adds	r1, r4, r0
 80066c8:	428b      	cmp	r3, r1
 80066ca:	bf01      	itttt	eq
 80066cc:	6819      	ldreq	r1, [r3, #0]
 80066ce:	685b      	ldreq	r3, [r3, #4]
 80066d0:	1809      	addeq	r1, r1, r0
 80066d2:	6021      	streq	r1, [r4, #0]
 80066d4:	6063      	str	r3, [r4, #4]
 80066d6:	6054      	str	r4, [r2, #4]
 80066d8:	e7cb      	b.n	8006672 <_free_r+0x22>
 80066da:	bd38      	pop	{r3, r4, r5, pc}
 80066dc:	20000424 	.word	0x20000424

080066e0 <sbrk_aligned>:
 80066e0:	b570      	push	{r4, r5, r6, lr}
 80066e2:	4e0f      	ldr	r6, [pc, #60]	@ (8006720 <sbrk_aligned+0x40>)
 80066e4:	460c      	mov	r4, r1
 80066e6:	6831      	ldr	r1, [r6, #0]
 80066e8:	4605      	mov	r5, r0
 80066ea:	b911      	cbnz	r1, 80066f2 <sbrk_aligned+0x12>
 80066ec:	f000 fbaa 	bl	8006e44 <_sbrk_r>
 80066f0:	6030      	str	r0, [r6, #0]
 80066f2:	4621      	mov	r1, r4
 80066f4:	4628      	mov	r0, r5
 80066f6:	f000 fba5 	bl	8006e44 <_sbrk_r>
 80066fa:	1c43      	adds	r3, r0, #1
 80066fc:	d103      	bne.n	8006706 <sbrk_aligned+0x26>
 80066fe:	f04f 34ff 	mov.w	r4, #4294967295
 8006702:	4620      	mov	r0, r4
 8006704:	bd70      	pop	{r4, r5, r6, pc}
 8006706:	1cc4      	adds	r4, r0, #3
 8006708:	f024 0403 	bic.w	r4, r4, #3
 800670c:	42a0      	cmp	r0, r4
 800670e:	d0f8      	beq.n	8006702 <sbrk_aligned+0x22>
 8006710:	1a21      	subs	r1, r4, r0
 8006712:	4628      	mov	r0, r5
 8006714:	f000 fb96 	bl	8006e44 <_sbrk_r>
 8006718:	3001      	adds	r0, #1
 800671a:	d1f2      	bne.n	8006702 <sbrk_aligned+0x22>
 800671c:	e7ef      	b.n	80066fe <sbrk_aligned+0x1e>
 800671e:	bf00      	nop
 8006720:	20000420 	.word	0x20000420

08006724 <_malloc_r>:
 8006724:	e92d 43f8 	stmdb	sp!, {r3, r4, r5, r6, r7, r8, r9, lr}
 8006728:	1ccd      	adds	r5, r1, #3
 800672a:	f025 0503 	bic.w	r5, r5, #3
 800672e:	3508      	adds	r5, #8
 8006730:	2d0c      	cmp	r5, #12
 8006732:	bf38      	it	cc
 8006734:	250c      	movcc	r5, #12
 8006736:	2d00      	cmp	r5, #0
 8006738:	4606      	mov	r6, r0
 800673a:	db01      	blt.n	8006740 <_malloc_r+0x1c>
 800673c:	42a9      	cmp	r1, r5
 800673e:	d904      	bls.n	800674a <_malloc_r+0x26>
 8006740:	230c      	movs	r3, #12
 8006742:	6033      	str	r3, [r6, #0]
 8006744:	2000      	movs	r0, #0
 8006746:	e8bd 83f8 	ldmia.w	sp!, {r3, r4, r5, r6, r7, r8, r9, pc}
 800674a:	f8df 80d4 	ldr.w	r8, [pc, #212]	@ 8006820 <_malloc_r+0xfc>
 800674e:	f000 f869 	bl	8006824 <__malloc_lock>
 8006752:	f8d8 3000 	ldr.w	r3, [r8]
 8006756:	461c      	mov	r4, r3
 8006758:	bb44      	cbnz	r4, 80067ac <_malloc_r+0x88>
 800675a:	4629      	mov	r1, r5
 800675c:	4630      	mov	r0, r6
 800675e:	f7ff ffbf 	bl	80066e0 <sbrk_aligned>
 8006762:	1c43      	adds	r3, r0, #1
 8006764:	4604      	mov	r4, r0
 8006766:	d158      	bne.n	800681a <_malloc_r+0xf6>
 8006768:	f8d8 4000 	ldr.w	r4, [r8]
 800676c:	4627      	mov	r7, r4
 800676e:	2f00      	cmp	r7, #0
 8006770:	d143      	bne.n	80067fa <_malloc_r+0xd6>
 8006772:	2c00      	cmp	r4, #0
 8006774:	d04b      	beq.n	800680e <_malloc_r+0xea>
 8006776:	6823      	ldr	r3, [r4, #0]
 8006778:	4639      	mov	r1, r7
 800677a:	4630      	mov	r0, r6
 800677c:	eb04 0903 	add.w	r9, r4, r3
 8006780:	f000 fb60 	bl	8006e44 <_sbrk_r>
 8006784:	4581      	cmp	r9, r0
 8006786:	d142      	bne.n	800680e <_malloc_r+0xea>
 8006788:	6821      	ldr	r1, [r4, #0]
 800678a:	4630      	mov	r0, r6
 800678c:	1a6d      	subs	r5, r5, r1
 800678e:	4629      	mov	r1, r5
 8006790:	f7ff ffa6 	bl	80066e0 <sbrk_aligned>
 8006794:	3001      	adds	r0, #1
 8006796:	d03a      	beq.n	800680e <_malloc_r+0xea>
 8006798:	6823      	ldr	r3, [r4, #0]
 800679a:	442b      	add	r3, r5
 800679c:	6023      	str	r3, [r4, #0]
 800679e:	f8d8 3000 	ldr.w	r3, [r8]
 80067a2:	685a      	ldr	r2, [r3, #4]
 80067a4:	bb62      	cbnz	r2, 8006800 <_malloc_r+0xdc>
 80067a6:	f8c8 7000 	str.w	r7, [r8]
 80067aa:	e00f      	b.n	80067cc <_malloc_r+0xa8>
 80067ac:	6822      	ldr	r2, [r4, #0]
 80067ae:	1b52      	subs	r2, r2, r5
 80067b0:	d420      	bmi.n	80067f4 <_malloc_r+0xd0>
 80067b2:	2a0b      	cmp	r2, #11
 80067b4:	d917      	bls.n	80067e6 <_malloc_r+0xc2>
 80067b6:	1961      	adds	r1, r4, r5
 80067b8:	42a3      	cmp	r3, r4
 80067ba:	6025      	str	r5, [r4, #0]
 80067bc:	bf18      	it	ne
 80067be:	6059      	strne	r1, [r3, #4]
 80067c0:	6863      	ldr	r3, [r4, #4]
 80067c2:	bf08      	it	eq
 80067c4:	f8c8 1000 	streq.w	r1, [r8]
 80067c8:	5162      	str	r2, [r4, r5]
 80067ca:	604b      	str	r3, [r1, #4]
 80067cc:	4630      	mov	r0, r6
 80067ce:	f000 f82f 	bl	8006830 <__malloc_unlock>
 80067d2:	f104 000b 	add.w	r0, r4, #11
 80067d6:	1d23      	adds	r3, r4, #4
 80067d8:	f020 0007 	bic.w	r0, r0, #7
 80067dc:	1ac2      	subs	r2, r0, r3
 80067de:	bf1c      	itt	ne
 80067e0:	1a1b      	subne	r3, r3, r0
 80067e2:	50a3      	strne	r3, [r4, r2]
 80067e4:	e7af      	b.n	8006746 <_malloc_r+0x22>
 80067e6:	6862      	ldr	r2, [r4, #4]
 80067e8:	42a3      	cmp	r3, r4
 80067ea:	bf0c      	ite	eq
 80067ec:	f8c8 2000 	streq.w	r2, [r8]
 80067f0:	605a      	strne	r2, [r3, #4]
 80067f2:	e7eb      	b.n	80067cc <_malloc_r+0xa8>
 80067f4:	4623      	mov	r3, r4
 80067f6:	6864      	ldr	r4, [r4, #4]
 80067f8:	e7ae      	b.n	8006758 <_malloc_r+0x34>
 80067fa:	463c      	mov	r4, r7
 80067fc:	687f      	ldr	r7, [r7, #4]
 80067fe:	e7b6      	b.n	800676e <_malloc_r+0x4a>
 8006800:	461a      	mov	r2, r3
 8006802:	685b      	ldr	r3, [r3, #4]
 8006804:	42a3      	cmp	r3, r4
 8006806:	d1fb      	bne.n	8006800 <_malloc_r+0xdc>
 8006808:	2300      	movs	r3, #0
 800680a:	6053      	str	r3, [r2, #4]
 800680c:	e7de      	b.n	80067cc <_malloc_r+0xa8>
 800680e:	230c      	movs	r3, #12
 8006810:	4630      	mov	r0, r6
 8006812:	6033      	str	r3, [r6, #0]
 8006814:	f000 f80c 	bl	8006830 <__malloc_unlock>
 8006818:	e794      	b.n	8006744 <_malloc_r+0x20>
 800681a:	6005      	str	r5, [r0, #0]
 800681c:	e7d6      	b.n	80067cc <_malloc_r+0xa8>
 800681e:	bf00      	nop
 8006820:	20000424 	.word	0x20000424

08006824 <__malloc_lock>:
 8006824:	4801      	ldr	r0, [pc, #4]	@ (800682c <__malloc_lock+0x8>)
 8006826:	f7ff bf11 	b.w	800664c <__retarget_lock_acquire_recursive>
 800682a:	bf00      	nop
 800682c:	2000041c 	.word	0x2000041c

08006830 <__malloc_unlock>:
 8006830:	4801      	ldr	r0, [pc, #4]	@ (8006838 <__malloc_unlock+0x8>)
 8006832:	f7ff bf0c 	b.w	800664e <__retarget_lock_release_recursive>
 8006836:	bf00      	nop
 8006838:	2000041c 	.word	0x2000041c

0800683c <__ssputs_r>:
 800683c:	e92d 47f0 	stmdb	sp!, {r4, r5, r6, r7, r8, r9, sl, lr}
 8006840:	461f      	mov	r7, r3
 8006842:	688e      	ldr	r6, [r1, #8]
 8006844:	4682      	mov	sl, r0
 8006846:	42be      	cmp	r6, r7
 8006848:	460c      	mov	r4, r1
 800684a:	4690      	mov	r8, r2
 800684c:	680b      	ldr	r3, [r1, #0]
 800684e:	d82d      	bhi.n	80068ac <__ssputs_r+0x70>
 8006850:	f9b1 200c 	ldrsh.w	r2, [r1, #12]
 8006854:	f412 6f90 	tst.w	r2, #1152	@ 0x480
 8006858:	d026      	beq.n	80068a8 <__ssputs_r+0x6c>
 800685a:	6965      	ldr	r5, [r4, #20]
 800685c:	6909      	ldr	r1, [r1, #16]
 800685e:	eb05 0545 	add.w	r5, r5, r5, lsl #1
 8006862:	eba3 0901 	sub.w	r9, r3, r1
 8006866:	eb05 75d5 	add.w	r5, r5, r5, lsr #31
 800686a:	1c7b      	adds	r3, r7, #1
 800686c:	444b      	add	r3, r9
 800686e:	106d      	asrs	r5, r5, #1
 8006870:	429d      	cmp	r5, r3
 8006872:	bf38      	it	cc
 8006874:	461d      	movcc	r5, r3
 8006876:	0553      	lsls	r3, r2, #21
 8006878:	d527      	bpl.n	80068ca <__ssputs_r+0x8e>
 800687a:	4629      	mov	r1, r5
 800687c:	f7ff ff52 	bl	8006724 <_malloc_r>
 8006880:	4606      	mov	r6, r0
 8006882:	b360      	cbz	r0, 80068de <__ssputs_r+0xa2>
 8006884:	464a      	mov	r2, r9
 8006886:	6921      	ldr	r1, [r4, #16]
 8006888:	f000 fafa 	bl	8006e80 <memcpy>
 800688c:	89a3      	ldrh	r3, [r4, #12]
 800688e:	f423 6390 	bic.w	r3, r3, #1152	@ 0x480
 8006892:	f043 0380 	orr.w	r3, r3, #128	@ 0x80
 8006896:	81a3      	strh	r3, [r4, #12]
 8006898:	6126      	str	r6, [r4, #16]
 800689a:	444e      	add	r6, r9
 800689c:	6026      	str	r6, [r4, #0]
 800689e:	463e      	mov	r6, r7
 80068a0:	6165      	str	r5, [r4, #20]
 80068a2:	eba5 0509 	sub.w	r5, r5, r9
 80068a6:	60a5      	str	r5, [r4, #8]
 80068a8:	42be      	cmp	r6, r7
 80068aa:	d900      	bls.n	80068ae <__ssputs_r+0x72>
 80068ac:	463e      	mov	r6, r7
 80068ae:	4632      	mov	r2, r6
 80068b0:	4641      	mov	r1, r8
 80068b2:	6820      	ldr	r0, [r4, #0]
 80068b4:	f000 faac 	bl	8006e10 <memmove>
 80068b8:	2000      	movs	r0, #0
 80068ba:	68a3      	ldr	r3, [r4, #8]
 80068bc:	1b9b      	subs	r3, r3, r6
 80068be:	60a3      	str	r3, [r4, #8]
 80068c0:	6823      	ldr	r3, [r4, #0]
 80068c2:	4433      	add	r3, r6
 80068c4:	6023      	str	r3, [r4, #0]
 80068c6:	e8bd 87f0 	ldmia.w	sp!, {r4, r5, r6, r7, r8, r9, sl, pc}
 80068ca:	462a      	mov	r2, r5
 80068cc:	f000 fae6 	bl	8006e9c <_realloc_r>
 80068d0:	4606      	mov	r6, r0
 80068d2:	2800      	cmp	r0, #0
 80068d4:	d1e0      	bne.n	8006898 <__ssputs_r+0x5c>
 80068d6:	4650      	mov	r0, sl
 80068d8:	6921      	ldr	r1, [r4, #16]
 80068da:	f7ff feb9 	bl	8006650 <_free_r>
 80068de:	230c      	movs	r3, #12
 80068e0:	f8ca 3000 	str.w	r3, [sl]
 80068e4:	89a3      	ldrh	r3, [r4, #12]
 80068e6:	f04f 30ff 	mov.w	r0, #4294967295
 80068ea:	f043 0340 	orr.w	r3, r3, #64	@ 0x40
 80068ee:	81a3      	strh	r3, [r4, #12]
 80068f0:	e7e9      	b.n	80068c6 <__ssputs_r+0x8a>
	...

080068f4 <_svfiprintf_r>:
 80068f4:	e92d 4ff0 	stmdb	sp!, {r4, r5, r6, r7, r8, r9, sl, fp, lr}
 80068f8:	4698      	mov	r8, r3
 80068fa:	898b      	ldrh	r3, [r1, #12]
 80068fc:	4607      	mov	r7, r0
 80068fe:	061b      	lsls	r3, r3, #24
 8006900:	460d      	mov	r5, r1
 8006902:	4614      	mov	r4, r2
 8006904:	b09d      	sub	sp, #116	@ 0x74
 8006906:	d510      	bpl.n	800692a <_svfiprintf_r+0x36>
 8006908:	690b      	ldr	r3, [r1, #16]
 800690a:	b973      	cbnz	r3, 800692a <_svfiprintf_r+0x36>
 800690c:	2140      	movs	r1, #64	@ 0x40
 800690e:	f7ff ff09 	bl	8006724 <_malloc_r>
 8006912:	6028      	str	r0, [r5, #0]
 8006914:	6128      	str	r0, [r5, #16]
 8006916:	b930      	cbnz	r0, 8006926 <_svfiprintf_r+0x32>
 8006918:	230c      	movs	r3, #12
 800691a:	603b      	str	r3, [r7, #0]
 800691c:	f04f 30ff 	mov.w	r0, #4294967295
 8006920:	b01d      	add	sp, #116	@ 0x74
 8006922:	e8bd 8ff0 	ldmia.w	sp!, {r4, r5, r6, r7, r8, r9, sl, fp, pc}
 8006926:	2340      	movs	r3, #64	@ 0x40
 8006928:	616b      	str	r3, [r5, #20]
 800692a:	2300      	movs	r3, #0
 800692c:	9309      	str	r3, [sp, #36]	@ 0x24
 800692e:	2320      	movs	r3, #32
 8006930:	f88d 3029 	strb.w	r3, [sp, #41]	@ 0x29
 8006934:	2330      	movs	r3, #48	@ 0x30
 8006936:	f04f 0901 	mov.w	r9, #1
 800693a:	f8cd 800c 	str.w	r8, [sp, #12]
 800693e:	f8df 8198 	ldr.w	r8, [pc, #408]	@ 8006ad8 <_svfiprintf_r+0x1e4>
 8006942:	f88d 302a 	strb.w	r3, [sp, #42]	@ 0x2a
 8006946:	4623      	mov	r3, r4
 8006948:	469a      	mov	sl, r3
 800694a:	f813 2b01 	ldrb.w	r2, [r3], #1
 800694e:	b10a      	cbz	r2, 8006954 <_svfiprintf_r+0x60>
 8006950:	2a25      	cmp	r2, #37	@ 0x25
 8006952:	d1f9      	bne.n	8006948 <_svfiprintf_r+0x54>
 8006954:	ebba 0b04 	subs.w	fp, sl, r4
 8006958:	d00b      	beq.n	8006972 <_svfiprintf_r+0x7e>
 800695a:	465b      	mov	r3, fp
 800695c:	4622      	mov	r2, r4
 800695e:	4629      	mov	r1, r5
 8006960:	4638      	mov	r0, r7
 8006962:	f7ff ff6b 	bl	800683c <__ssputs_r>
 8006966:	3001      	adds	r0, #1
 8006968:	f000 80a7 	beq.w	8006aba <_svfiprintf_r+0x1c6>
 800696c:	9a09      	ldr	r2, [sp, #36]	@ 0x24
 800696e:	445a      	add	r2, fp
 8006970:	9209      	str	r2, [sp, #36]	@ 0x24
 8006972:	f89a 3000 	ldrb.w	r3, [sl]
 8006976:	2b00      	cmp	r3, #0
 8006978:	f000 809f 	beq.w	8006aba <_svfiprintf_r+0x1c6>
 800697c:	2300      	movs	r3, #0
 800697e:	f04f 32ff 	mov.w	r2, #4294967295
 8006982:	e9cd 2305 	strd	r2, r3, [sp, #20]
 8006986:	f10a 0a01 	add.w	sl, sl, #1
 800698a:	9304      	str	r3, [sp, #16]
 800698c:	9307      	str	r3, [sp, #28]
 800698e:	f88d 3053 	strb.w	r3, [sp, #83]	@ 0x53
 8006992:	931a      	str	r3, [sp, #104]	@ 0x68
 8006994:	4654      	mov	r4, sl
 8006996:	2205      	movs	r2, #5
 8006998:	f814 1b01 	ldrb.w	r1, [r4], #1
 800699c:	484e      	ldr	r0, [pc, #312]	@ (8006ad8 <_svfiprintf_r+0x1e4>)
 800699e:	f000 fa61 	bl	8006e64 <memchr>
 80069a2:	9a04      	ldr	r2, [sp, #16]
 80069a4:	b9d8      	cbnz	r0, 80069de <_svfiprintf_r+0xea>
 80069a6:	06d0      	lsls	r0, r2, #27
 80069a8:	bf44      	itt	mi
 80069aa:	2320      	movmi	r3, #32
 80069ac:	f88d 3053 	strbmi.w	r3, [sp, #83]	@ 0x53
 80069b0:	0711      	lsls	r1, r2, #28
 80069b2:	bf44      	itt	mi
 80069b4:	232b      	movmi	r3, #43	@ 0x2b
 80069b6:	f88d 3053 	strbmi.w	r3, [sp, #83]	@ 0x53
 80069ba:	f89a 3000 	ldrb.w	r3, [sl]
 80069be:	2b2a      	cmp	r3, #42	@ 0x2a
 80069c0:	d015      	beq.n	80069ee <_svfiprintf_r+0xfa>
 80069c2:	4654      	mov	r4, sl
 80069c4:	2000      	movs	r0, #0
 80069c6:	f04f 0c0a 	mov.w	ip, #10
 80069ca:	9a07      	ldr	r2, [sp, #28]
 80069cc:	4621      	mov	r1, r4
 80069ce:	f811 3b01 	ldrb.w	r3, [r1], #1
 80069d2:	3b30      	subs	r3, #48	@ 0x30
 80069d4:	2b09      	cmp	r3, #9
 80069d6:	d94b      	bls.n	8006a70 <_svfiprintf_r+0x17c>
 80069d8:	b1b0      	cbz	r0, 8006a08 <_svfiprintf_r+0x114>
 80069da:	9207      	str	r2, [sp, #28]
 80069dc:	e014      	b.n	8006a08 <_svfiprintf_r+0x114>
 80069de:	eba0 0308 	sub.w	r3, r0, r8
 80069e2:	fa09 f303 	lsl.w	r3, r9, r3
 80069e6:	4313      	orrs	r3, r2
 80069e8:	46a2      	mov	sl, r4
 80069ea:	9304      	str	r3, [sp, #16]
 80069ec:	e7d2      	b.n	8006994 <_svfiprintf_r+0xa0>
 80069ee:	9b03      	ldr	r3, [sp, #12]
 80069f0:	1d19      	adds	r1, r3, #4
 80069f2:	681b      	ldr	r3, [r3, #0]
 80069f4:	9103      	str	r1, [sp, #12]
 80069f6:	2b00      	cmp	r3, #0
 80069f8:	bfbb      	ittet	lt
 80069fa:	425b      	neglt	r3, r3
 80069fc:	f042 0202 	orrlt.w	r2, r2, #2
 8006a00:	9307      	strge	r3, [sp, #28]
 8006a02:	9307      	strlt	r3, [sp, #28]
 8006a04:	bfb8      	it	lt
 8006a06:	9204      	strlt	r2, [sp, #16]
 8006a08:	7823      	ldrb	r3, [r4, #0]
 8006a0a:	2b2e      	cmp	r3, #46	@ 0x2e
 8006a0c:	d10a      	bne.n	8006a24 <_svfiprintf_r+0x130>
 8006a0e:	7863      	ldrb	r3, [r4, #1]
 8006a10:	2b2a      	cmp	r3, #42	@ 0x2a
 8006a12:	d132      	bne.n	8006a7a <_svfiprintf_r+0x186>
 8006a14:	9b03      	ldr	r3, [sp, #12]
 8006a16:	3402      	adds	r4, #2
 8006a18:	1d1a      	adds	r2, r3, #4
 8006a1a:	681b      	ldr	r3, [r3, #0]
 8006a1c:	9203      	str	r2, [sp, #12]
 8006a1e:	ea43 73e3 	orr.w	r3, r3, r3, asr #31
 8006a22:	9305      	str	r3, [sp, #20]
 8006a24:	f8df a0b4 	ldr.w	sl, [pc, #180]	@ 8006adc <_svfiprintf_r+0x1e8>
 8006a28:	2203      	movs	r2, #3
 8006a2a:	4650      	mov	r0, sl
 8006a2c:	7821      	ldrb	r1, [r4, #0]
 8006a2e:	f000 fa19 	bl	8006e64 <memchr>
 8006a32:	b138      	cbz	r0, 8006a44 <_svfiprintf_r+0x150>
 8006a34:	2240      	movs	r2, #64	@ 0x40
 8006a36:	9b04      	ldr	r3, [sp, #16]
 8006a38:	eba0 000a 	sub.w	r0, r0, sl
 8006a3c:	4082      	lsls	r2, r0
 8006a3e:	4313      	orrs	r3, r2
 8006a40:	3401      	adds	r4, #1
 8006a42:	9304      	str	r3, [sp, #16]
 8006a44:	f814 1b01 	ldrb.w	r1, [r4], #1
 8006a48:	2206      	movs	r2, #6
 8006a4a:	4825      	ldr	r0, [pc, #148]	@ (8006ae0 <_svfiprintf_r+0x1ec>)
 8006a4c:	f88d 1028 	strb.w	r1, [sp, #40]	@ 0x28
 8006a50:	f000 fa08 	bl	8006e64 <memchr>
 8006a54:	2800      	cmp	r0, #0
 8006a56:	d036      	beq.n	8006ac6 <_svfiprintf_r+0x1d2>
 8006a58:	4b22      	ldr	r3, [pc, #136]	@ (8006ae4 <_svfiprintf_r+0x1f0>)
 8006a5a:	bb1b      	cbnz	r3, 8006aa4 <_svfiprintf_r+0x1b0>
 8006a5c:	9b03      	ldr	r3, [sp, #12]
 8006a5e:	3307      	adds	r3, #7
 8006a60:	f023 0307 	bic.w	r3, r3, #7
 8006a64:	3308      	adds	r3, #8
 8006a66:	9303      	str	r3, [sp, #12]
 8006a68:	9b09      	ldr	r3, [sp, #36]	@ 0x24
 8006a6a:	4433      	add	r3, r6
 8006a6c:	9309      	str	r3, [sp, #36]	@ 0x24
 8006a6e:	e76a      	b.n	8006946 <_svfiprintf_r+0x52>
 8006a70:	460c      	mov	r4, r1
 8006a72:	2001      	movs	r0, #1
 8006a74:	fb0c 3202 	mla	r2, ip, r2, r3
 8006a78:	e7a8      	b.n	80069cc <_svfiprintf_r+0xd8>
 8006a7a:	2300      	movs	r3, #0
 8006a7c:	f04f 0c0a 	mov.w	ip, #10
 8006a80:	4619      	mov	r1, r3
 8006a82:	3401      	adds	r4, #1
 8006a84:	9305      	str	r3, [sp, #20]
 8006a86:	4620      	mov	r0, r4
 8006a88:	f810 2b01 	ldrb.w	r2, [r0], #1
 8006a8c:	3a30      	subs	r2, #48	@ 0x30
 8006a8e:	2a09      	cmp	r2, #9
 8006a90:	d903      	bls.n	8006a9a <_svfiprintf_r+0x1a6>
 8006a92:	2b00      	cmp	r3, #0
 8006a94:	d0c6      	beq.n	8006a24 <_svfiprintf_r+0x130>
 8006a96:	9105      	str	r1, [sp, #20]
 8006a98:	e7c4      	b.n	8006a24 <_svfiprintf_r+0x130>
 8006a9a:	4604      	mov	r4, r0
 8006a9c:	2301      	movs	r3, #1
 8006a9e:	fb0c 2101 	mla	r1, ip, r1, r2
 8006aa2:	e7f0      	b.n	8006a86 <_svfiprintf_r+0x192>
 8006aa4:	ab03      	add	r3, sp, #12
 8006aa6:	9300      	str	r3, [sp, #0]
 8006aa8:	462a      	mov	r2, r5
 8006aaa:	4638      	mov	r0, r7
 8006aac:	4b0e      	ldr	r3, [pc, #56]	@ (8006ae8 <_svfiprintf_r+0x1f4>)
 8006aae:	a904      	add	r1, sp, #16
 8006ab0:	f3af 8000 	nop.w
 8006ab4:	1c42      	adds	r2, r0, #1
 8006ab6:	4606      	mov	r6, r0
 8006ab8:	d1d6      	bne.n	8006a68 <_svfiprintf_r+0x174>
 8006aba:	89ab      	ldrh	r3, [r5, #12]
 8006abc:	065b      	lsls	r3, r3, #25
 8006abe:	f53f af2d 	bmi.w	800691c <_svfiprintf_r+0x28>
 8006ac2:	9809      	ldr	r0, [sp, #36]	@ 0x24
 8006ac4:	e72c      	b.n	8006920 <_svfiprintf_r+0x2c>
 8006ac6:	ab03      	add	r3, sp, #12
 8006ac8:	9300      	str	r3, [sp, #0]
 8006aca:	462a      	mov	r2, r5
 8006acc:	4638      	mov	r0, r7
 8006ace:	4b06      	ldr	r3, [pc, #24]	@ (8006ae8 <_svfiprintf_r+0x1f4>)
 8006ad0:	a904      	add	r1, sp, #16
 8006ad2:	f000 f87d 	bl	8006bd0 <_printf_i>
 8006ad6:	e7ed      	b.n	8006ab4 <_svfiprintf_r+0x1c0>
 8006ad8:	08007016 	.word	0x08007016
 8006adc:	0800701c 	.word	0x0800701c
 8006ae0:	08007020 	.word	0x08007020
 8006ae4:	00000000 	.word	0x00000000
 8006ae8:	0800683d 	.word	0x0800683d

08006aec <_printf_common>:
 8006aec:	e92d 47f0 	stmdb	sp!, {r4, r5, r6, r7, r8, r9, sl, lr}
 8006af0:	4616      	mov	r6, r2
 8006af2:	4698      	mov	r8, r3
 8006af4:	688a      	ldr	r2, [r1, #8]
 8006af6:	690b      	ldr	r3, [r1, #16]
 8006af8:	4607      	mov	r7, r0
 8006afa:	4293      	cmp	r3, r2
 8006afc:	bfb8      	it	lt
 8006afe:	4613      	movlt	r3, r2
 8006b00:	6033      	str	r3, [r6, #0]
 8006b02:	f891 2043 	ldrb.w	r2, [r1, #67]	@ 0x43
 8006b06:	460c      	mov	r4, r1
 8006b08:	f8dd 9020 	ldr.w	r9, [sp, #32]
 8006b0c:	b10a      	cbz	r2, 8006b12 <_printf_common+0x26>
 8006b0e:	3301      	adds	r3, #1
 8006b10:	6033      	str	r3, [r6, #0]
 8006b12:	6823      	ldr	r3, [r4, #0]
 8006b14:	0699      	lsls	r1, r3, #26
 8006b16:	bf42      	ittt	mi
 8006b18:	6833      	ldrmi	r3, [r6, #0]
 8006b1a:	3302      	addmi	r3, #2
 8006b1c:	6033      	strmi	r3, [r6, #0]
 8006b1e:	6825      	ldr	r5, [r4, #0]
 8006b20:	f015 0506 	ands.w	r5, r5, #6
 8006b24:	d106      	bne.n	8006b34 <_printf_common+0x48>
 8006b26:	f104 0a19 	add.w	sl, r4, #25
 8006b2a:	68e3      	ldr	r3, [r4, #12]
 8006b2c:	6832      	ldr	r2, [r6, #0]
 8006b2e:	1a9b      	subs	r3, r3, r2
 8006b30:	42ab      	cmp	r3, r5
 8006b32:	dc2b      	bgt.n	8006b8c <_printf_common+0xa0>
 8006b34:	f894 3043 	ldrb.w	r3, [r4, #67]	@ 0x43
 8006b38:	6822      	ldr	r2, [r4, #0]
 8006b3a:	3b00      	subs	r3, #0
 8006b3c:	bf18      	it	ne
 8006b3e:	2301      	movne	r3, #1
 8006b40:	0692      	lsls	r2, r2, #26
 8006b42:	d430      	bmi.n	8006ba6 <_printf_common+0xba>
 8006b44:	4641      	mov	r1, r8
 8006b46:	4638      	mov	r0, r7
 8006b48:	f104 0243 	add.w	r2, r4, #67	@ 0x43
 8006b4c:	47c8      	blx	r9
 8006b4e:	3001      	adds	r0, #1
 8006b50:	d023      	beq.n	8006b9a <_printf_common+0xae>
 8006b52:	6823      	ldr	r3, [r4, #0]
 8006b54:	6922      	ldr	r2, [r4, #16]
 8006b56:	f003 0306 	and.w	r3, r3, #6
 8006b5a:	2b04      	cmp	r3, #4
 8006b5c:	bf14      	ite	ne
 8006b5e:	2500      	movne	r5, #0
 8006b60:	6833      	ldreq	r3, [r6, #0]
 8006b62:	f04f 0600 	mov.w	r6, #0
 8006b66:	bf08      	it	eq
 8006b68:	68e5      	ldreq	r5, [r4, #12]
 8006b6a:	f104 041a 	add.w	r4, r4, #26
 8006b6e:	bf08      	it	eq
 8006b70:	1aed      	subeq	r5, r5, r3
 8006b72:	f854 3c12 	ldr.w	r3, [r4, #-18]
 8006b76:	bf08      	it	eq
 8006b78:	ea25 75e5 	biceq.w	r5, r5, r5, asr #31
 8006b7c:	4293      	cmp	r3, r2
 8006b7e:	bfc4      	itt	gt
 8006b80:	1a9b      	subgt	r3, r3, r2
 8006b82:	18ed      	addgt	r5, r5, r3
 8006b84:	42b5      	cmp	r5, r6
 8006b86:	d11a      	bne.n	8006bbe <_printf_common+0xd2>
 8006b88:	2000      	movs	r0, #0
 8006b8a:	e008      	b.n	8006b9e <_printf_common+0xb2>
 8006b8c:	2301      	movs	r3, #1
 8006b8e:	4652      	mov	r2, sl
 8006b90:	4641      	mov	r1, r8
 8006b92:	4638      	mov	r0, r7
 8006b94:	47c8      	blx	r9
 8006b96:	3001      	adds	r0, #1
 8006b98:	d103      	bne.n	8006ba2 <_printf_common+0xb6>
 8006b9a:	f04f 30ff 	mov.w	r0, #4294967295
 8006b9e:	e8bd 87f0 	ldmia.w	sp!, {r4, r5, r6, r7, r8, r9, sl, pc}
 8006ba2:	3501      	adds	r5, #1
 8006ba4:	e7c1      	b.n	8006b2a <_printf_common+0x3e>
 8006ba6:	2030      	movs	r0, #48	@ 0x30
 8006ba8:	18e1      	adds	r1, r4, r3
 8006baa:	f881 0043 	strb.w	r0, [r1, #67]	@ 0x43
 8006bae:	1c5a      	adds	r2, r3, #1
 8006bb0:	f894 1045 	ldrb.w	r1, [r4, #69]	@ 0x45
 8006bb4:	4422      	add	r2, r4
 8006bb6:	3302      	adds	r3, #2
 8006bb8:	f882 1043 	strb.w	r1, [r2, #67]	@ 0x43
 8006bbc:	e7c2      	b.n	8006b44 <_printf_common+0x58>
 8006bbe:	2301      	movs	r3, #1
 8006bc0:	4622      	mov	r2, r4
 8006bc2:	4641      	mov	r1, r8
 8006bc4:	4638      	mov	r0, r7
 8006bc6:	47c8      	blx	r9
 8006bc8:	3001      	adds	r0, #1
 8006bca:	d0e6      	beq.n	8006b9a <_printf_common+0xae>
 8006bcc:	3601      	adds	r6, #1
 8006bce:	e7d9      	b.n	8006b84 <_printf_common+0x98>

08006bd0 <_printf_i>:
 8006bd0:	e92d 47ff 	stmdb	sp!, {r0, r1, r2, r3, r4, r5, r6, r7, r8, r9, sl, lr}
 8006bd4:	7e0f      	ldrb	r7, [r1, #24]
 8006bd6:	4691      	mov	r9, r2
 8006bd8:	2f78      	cmp	r7, #120	@ 0x78
 8006bda:	4680      	mov	r8, r0
 8006bdc:	460c      	mov	r4, r1
 8006bde:	469a      	mov	sl, r3
 8006be0:	9e0c      	ldr	r6, [sp, #48]	@ 0x30
 8006be2:	f101 0243 	add.w	r2, r1, #67	@ 0x43
 8006be6:	d807      	bhi.n	8006bf8 <_printf_i+0x28>
 8006be8:	2f62      	cmp	r7, #98	@ 0x62
 8006bea:	d80a      	bhi.n	8006c02 <_printf_i+0x32>
 8006bec:	2f00      	cmp	r7, #0
 8006bee:	f000 80d3 	beq.w	8006d98 <_printf_i+0x1c8>
 8006bf2:	2f58      	cmp	r7, #88	@ 0x58
 8006bf4:	f000 80ba 	beq.w	8006d6c <_printf_i+0x19c>
 8006bf8:	f104 0642 	add.w	r6, r4, #66	@ 0x42
 8006bfc:	f884 7042 	strb.w	r7, [r4, #66]	@ 0x42
 8006c00:	e03a      	b.n	8006c78 <_printf_i+0xa8>
 8006c02:	f1a7 0363 	sub.w	r3, r7, #99	@ 0x63
 8006c06:	2b15      	cmp	r3, #21
 8006c08:	d8f6      	bhi.n	8006bf8 <_printf_i+0x28>
 8006c0a:	a101      	add	r1, pc, #4	@ (adr r1, 8006c10 <_printf_i+0x40>)
 8006c0c:	f851 f023 	ldr.w	pc, [r1, r3, lsl #2]
 8006c10:	08006c69 	.word	0x08006c69
 8006c14:	08006c7d 	.word	0x08006c7d
 8006c18:	08006bf9 	.word	0x08006bf9
 8006c1c:	08006bf9 	.word	0x08006bf9
 8006c20:	08006bf9 	.word	0x08006bf9
 8006c24:	08006bf9 	.word	0x08006bf9
 8006c28:	08006c7d 	.word	0x08006c7d
 8006c2c:	08006bf9 	.word	0x08006bf9
 8006c30:	08006bf9 	.word	0x08006bf9
 8006c34:	08006bf9 	.word	0x08006bf9
 8006c38:	08006bf9 	.word	0x08006bf9
 8006c3c:	08006d7f 	.word	0x08006d7f
 8006c40:	08006ca7 	.word	0x08006ca7
 8006c44:	08006d39 	.word	0x08006d39
 8006c48:	08006bf9 	.word	0x08006bf9
 8006c4c:	08006bf9 	.word	0x08006bf9
 8006c50:	08006da1 	.word	0x08006da1
 8006c54:	08006bf9 	.word	0x08006bf9
 8006c58:	08006ca7 	.word	0x08006ca7
 8006c5c:	08006bf9 	.word	0x08006bf9
 8006c60:	08006bf9 	.word	0x08006bf9
 8006c64:	08006d41 	.word	0x08006d41
 8006c68:	6833      	ldr	r3, [r6, #0]
 8006c6a:	1d1a      	adds	r2, r3, #4
 8006c6c:	681b      	ldr	r3, [r3, #0]
 8006c6e:	6032      	str	r2, [r6, #0]
 8006c70:	f104 0642 	add.w	r6, r4, #66	@ 0x42
 8006c74:	f884 3042 	strb.w	r3, [r4, #66]	@ 0x42
 8006c78:	2301      	movs	r3, #1
 8006c7a:	e09e      	b.n	8006dba <_printf_i+0x1ea>
 8006c7c:	6833      	ldr	r3, [r6, #0]
 8006c7e:	6820      	ldr	r0, [r4, #0]
 8006c80:	1d19      	adds	r1, r3, #4
 8006c82:	6031      	str	r1, [r6, #0]
 8006c84:	0606      	lsls	r6, r0, #24
 8006c86:	d501      	bpl.n	8006c8c <_printf_i+0xbc>
 8006c88:	681d      	ldr	r5, [r3, #0]
 8006c8a:	e003      	b.n	8006c94 <_printf_i+0xc4>
 8006c8c:	0645      	lsls	r5, r0, #25
 8006c8e:	d5fb      	bpl.n	8006c88 <_printf_i+0xb8>
 8006c90:	f9b3 5000 	ldrsh.w	r5, [r3]
 8006c94:	2d00      	cmp	r5, #0
 8006c96:	da03      	bge.n	8006ca0 <_printf_i+0xd0>
 8006c98:	232d      	movs	r3, #45	@ 0x2d
 8006c9a:	426d      	negs	r5, r5
 8006c9c:	f884 3043 	strb.w	r3, [r4, #67]	@ 0x43
 8006ca0:	230a      	movs	r3, #10
 8006ca2:	4859      	ldr	r0, [pc, #356]	@ (8006e08 <_printf_i+0x238>)
 8006ca4:	e011      	b.n	8006cca <_printf_i+0xfa>
 8006ca6:	6821      	ldr	r1, [r4, #0]
 8006ca8:	6833      	ldr	r3, [r6, #0]
 8006caa:	0608      	lsls	r0, r1, #24
 8006cac:	f853 5b04 	ldr.w	r5, [r3], #4
 8006cb0:	d402      	bmi.n	8006cb8 <_printf_i+0xe8>
 8006cb2:	0649      	lsls	r1, r1, #25
 8006cb4:	bf48      	it	mi
 8006cb6:	b2ad      	uxthmi	r5, r5
 8006cb8:	2f6f      	cmp	r7, #111	@ 0x6f
 8006cba:	6033      	str	r3, [r6, #0]
 8006cbc:	bf14      	ite	ne
 8006cbe:	230a      	movne	r3, #10
 8006cc0:	2308      	moveq	r3, #8
 8006cc2:	4851      	ldr	r0, [pc, #324]	@ (8006e08 <_printf_i+0x238>)
 8006cc4:	2100      	movs	r1, #0
 8006cc6:	f884 1043 	strb.w	r1, [r4, #67]	@ 0x43
 8006cca:	6866      	ldr	r6, [r4, #4]
 8006ccc:	2e00      	cmp	r6, #0
 8006cce:	bfa8      	it	ge
 8006cd0:	6821      	ldrge	r1, [r4, #0]
 8006cd2:	60a6      	str	r6, [r4, #8]
 8006cd4:	bfa4      	itt	ge
 8006cd6:	f021 0104 	bicge.w	r1, r1, #4
 8006cda:	6021      	strge	r1, [r4, #0]
 8006cdc:	b90d      	cbnz	r5, 8006ce2 <_printf_i+0x112>
 8006cde:	2e00      	cmp	r6, #0
 8006ce0:	d04b      	beq.n	8006d7a <_printf_i+0x1aa>
 8006ce2:	4616      	mov	r6, r2
 8006ce4:	fbb5 f1f3 	udiv	r1, r5, r3
 8006ce8:	fb03 5711 	mls	r7, r3, r1, r5
 8006cec:	5dc7      	ldrb	r7, [r0, r7]
 8006cee:	f806 7d01 	strb.w	r7, [r6, #-1]!
 8006cf2:	462f      	mov	r7, r5
 8006cf4:	42bb      	cmp	r3, r7
 8006cf6:	460d      	mov	r5, r1
 8006cf8:	d9f4      	bls.n	8006ce4 <_printf_i+0x114>
 8006cfa:	2b08      	cmp	r3, #8
 8006cfc:	d10b      	bne.n	8006d16 <_printf_i+0x146>
 8006cfe:	6823      	ldr	r3, [r4, #0]
 8006d00:	07df      	lsls	r7, r3, #31
 8006d02:	d508      	bpl.n	8006d16 <_printf_i+0x146>
 8006d04:	6923      	ldr	r3, [r4, #16]
 8006d06:	6861      	ldr	r1, [r4, #4]
 8006d08:	4299      	cmp	r1, r3
 8006d0a:	bfde      	ittt	le
 8006d0c:	2330      	movle	r3, #48	@ 0x30
 8006d0e:	f806 3c01 	strble.w	r3, [r6, #-1]
 8006d12:	f106 36ff 	addle.w	r6, r6, #4294967295
 8006d16:	1b92      	subs	r2, r2, r6
 8006d18:	6122      	str	r2, [r4, #16]
 8006d1a:	464b      	mov	r3, r9
 8006d1c:	4621      	mov	r1, r4
 8006d1e:	4640      	mov	r0, r8
 8006d20:	f8cd a000 	str.w	sl, [sp]
 8006d24:	aa03      	add	r2, sp, #12
 8006d26:	f7ff fee1 	bl	8006aec <_printf_common>
 8006d2a:	3001      	adds	r0, #1
 8006d2c:	d14a      	bne.n	8006dc4 <_printf_i+0x1f4>
 8006d2e:	f04f 30ff 	mov.w	r0, #4294967295
 8006d32:	b004      	add	sp, #16
 8006d34:	e8bd 87f0 	ldmia.w	sp!, {r4, r5, r6, r7, r8, r9, sl, pc}
 8006d38:	6823      	ldr	r3, [r4, #0]
 8006d3a:	f043 0320 	orr.w	r3, r3, #32
 8006d3e:	6023      	str	r3, [r4, #0]
 8006d40:	2778      	movs	r7, #120	@ 0x78
 8006d42:	4832      	ldr	r0, [pc, #200]	@ (8006e0c <_printf_i+0x23c>)
 8006d44:	f884 7045 	strb.w	r7, [r4, #69]	@ 0x45
 8006d48:	6823      	ldr	r3, [r4, #0]
 8006d4a:	6831      	ldr	r1, [r6, #0]
 8006d4c:	061f      	lsls	r7, r3, #24
 8006d4e:	f851 5b04 	ldr.w	r5, [r1], #4
 8006d52:	d402      	bmi.n	8006d5a <_printf_i+0x18a>
 8006d54:	065f      	lsls	r7, r3, #25
 8006d56:	bf48      	it	mi
 8006d58:	b2ad      	uxthmi	r5, r5
 8006d5a:	6031      	str	r1, [r6, #0]
 8006d5c:	07d9      	lsls	r1, r3, #31
 8006d5e:	bf44      	itt	mi
 8006d60:	f043 0320 	orrmi.w	r3, r3, #32
 8006d64:	6023      	strmi	r3, [r4, #0]
 8006d66:	b11d      	cbz	r5, 8006d70 <_printf_i+0x1a0>
 8006d68:	2310      	movs	r3, #16
 8006d6a:	e7ab      	b.n	8006cc4 <_printf_i+0xf4>
 8006d6c:	4826      	ldr	r0, [pc, #152]	@ (8006e08 <_printf_i+0x238>)
 8006d6e:	e7e9      	b.n	8006d44 <_printf_i+0x174>
 8006d70:	6823      	ldr	r3, [r4, #0]
 8006d72:	f023 0320 	bic.w	r3, r3, #32
 8006d76:	6023      	str	r3, [r4, #0]
 8006d78:	e7f6      	b.n	8006d68 <_printf_i+0x198>
 8006d7a:	4616      	mov	r6, r2
 8006d7c:	e7bd      	b.n	8006cfa <_printf_i+0x12a>
 8006d7e:	6833      	ldr	r3, [r6, #0]
 8006d80:	6825      	ldr	r5, [r4, #0]
 8006d82:	1d18      	adds	r0, r3, #4
 8006d84:	6961      	ldr	r1, [r4, #20]
 8006d86:	6030      	str	r0, [r6, #0]
 8006d88:	062e      	lsls	r6, r5, #24
 8006d8a:	681b      	ldr	r3, [r3, #0]
 8006d8c:	d501      	bpl.n	8006d92 <_printf_i+0x1c2>
 8006d8e:	6019      	str	r1, [r3, #0]
 8006d90:	e002      	b.n	8006d98 <_printf_i+0x1c8>
 8006d92:	0668      	lsls	r0, r5, #25
 8006d94:	d5fb      	bpl.n	8006d8e <_printf_i+0x1be>
 8006d96:	8019      	strh	r1, [r3, #0]
 8006d98:	2300      	movs	r3, #0
 8006d9a:	4616      	mov	r6, r2
 8006d9c:	6123      	str	r3, [r4, #16]
 8006d9e:	e7bc      	b.n	8006d1a <_printf_i+0x14a>
 8006da0:	6833      	ldr	r3, [r6, #0]
 8006da2:	2100      	movs	r1, #0
 8006da4:	1d1a      	adds	r2, r3, #4
 8006da6:	6032      	str	r2, [r6, #0]
 8006da8:	681e      	ldr	r6, [r3, #0]
 8006daa:	6862      	ldr	r2, [r4, #4]
 8006dac:	4630      	mov	r0, r6
 8006dae:	f000 f859 	bl	8006e64 <memchr>
 8006db2:	b108      	cbz	r0, 8006db8 <_printf_i+0x1e8>
 8006db4:	1b80      	subs	r0, r0, r6
 8006db6:	6060      	str	r0, [r4, #4]
 8006db8:	6863      	ldr	r3, [r4, #4]
 8006dba:	6123      	str	r3, [r4, #16]
 8006dbc:	2300      	movs	r3, #0
 8006dbe:	f884 3043 	strb.w	r3, [r4, #67]	@ 0x43
 8006dc2:	e7aa      	b.n	8006d1a <_printf_i+0x14a>
 8006dc4:	4632      	mov	r2, r6
 8006dc6:	4649      	mov	r1, r9
 8006dc8:	4640      	mov	r0, r8
 8006dca:	6923      	ldr	r3, [r4, #16]
 8006dcc:	47d0      	blx	sl
 8006dce:	3001      	adds	r0, #1
 8006dd0:	d0ad      	beq.n	8006d2e <_printf_i+0x15e>
 8006dd2:	6823      	ldr	r3, [r4, #0]
 8006dd4:	079b      	lsls	r3, r3, #30
 8006dd6:	d413      	bmi.n	8006e00 <_printf_i+0x230>
 8006dd8:	68e0      	ldr	r0, [r4, #12]
 8006dda:	9b03      	ldr	r3, [sp, #12]
 8006ddc:	4298      	cmp	r0, r3
 8006dde:	bfb8      	it	lt
 8006de0:	4618      	movlt	r0, r3
 8006de2:	e7a6      	b.n	8006d32 <_printf_i+0x162>
 8006de4:	2301      	movs	r3, #1
 8006de6:	4632      	mov	r2, r6
 8006de8:	4649      	mov	r1, r9
 8006dea:	4640      	mov	r0, r8
 8006dec:	47d0      	blx	sl
 8006dee:	3001      	adds	r0, #1
 8006df0:	d09d      	beq.n	8006d2e <_printf_i+0x15e>
 8006df2:	3501      	adds	r5, #1
 8006df4:	68e3      	ldr	r3, [r4, #12]
 8006df6:	9903      	ldr	r1, [sp, #12]
 8006df8:	1a5b      	subs	r3, r3, r1
 8006dfa:	42ab      	cmp	r3, r5
 8006dfc:	dcf2      	bgt.n	8006de4 <_printf_i+0x214>
 8006dfe:	e7eb      	b.n	8006dd8 <_printf_i+0x208>
 8006e00:	2500      	movs	r5, #0
 8006e02:	f104 0619 	add.w	r6, r4, #25
 8006e06:	e7f5      	b.n	8006df4 <_printf_i+0x224>
 8006e08:	08007027 	.word	0x08007027
 8006e0c:	08007038 	.word	0x08007038

08006e10 <memmove>:
 8006e10:	4288      	cmp	r0, r1
 8006e12:	b510      	push	{r4, lr}
 8006e14:	eb01 0402 	add.w	r4, r1, r2
 8006e18:	d902      	bls.n	8006e20 <memmove+0x10>
 8006e1a:	4284      	cmp	r4, r0
 8006e1c:	4623      	mov	r3, r4
 8006e1e:	d807      	bhi.n	8006e30 <memmove+0x20>
 8006e20:	1e43      	subs	r3, r0, #1
 8006e22:	42a1      	cmp	r1, r4
 8006e24:	d008      	beq.n	8006e38 <memmove+0x28>
 8006e26:	f811 2b01 	ldrb.w	r2, [r1], #1
 8006e2a:	f803 2f01 	strb.w	r2, [r3, #1]!
 8006e2e:	e7f8      	b.n	8006e22 <memmove+0x12>
 8006e30:	4601      	mov	r1, r0
 8006e32:	4402      	add	r2, r0
 8006e34:	428a      	cmp	r2, r1
 8006e36:	d100      	bne.n	8006e3a <memmove+0x2a>
 8006e38:	bd10      	pop	{r4, pc}
 8006e3a:	f813 4d01 	ldrb.w	r4, [r3, #-1]!
 8006e3e:	f802 4d01 	strb.w	r4, [r2, #-1]!
 8006e42:	e7f7      	b.n	8006e34 <memmove+0x24>

08006e44 <_sbrk_r>:
 8006e44:	b538      	push	{r3, r4, r5, lr}
 8006e46:	2300      	movs	r3, #0
 8006e48:	4d05      	ldr	r5, [pc, #20]	@ (8006e60 <_sbrk_r+0x1c>)
 8006e4a:	4604      	mov	r4, r0
 8006e4c:	4608      	mov	r0, r1
 8006e4e:	602b      	str	r3, [r5, #0]
 8006e50:	f7fa ffa8 	bl	8001da4 <_sbrk>
 8006e54:	1c43      	adds	r3, r0, #1
 8006e56:	d102      	bne.n	8006e5e <_sbrk_r+0x1a>
 8006e58:	682b      	ldr	r3, [r5, #0]
 8006e5a:	b103      	cbz	r3, 8006e5e <_sbrk_r+0x1a>
 8006e5c:	6023      	str	r3, [r4, #0]
 8006e5e:	bd38      	pop	{r3, r4, r5, pc}
 8006e60:	20000418 	.word	0x20000418

08006e64 <memchr>:
 8006e64:	4603      	mov	r3, r0
 8006e66:	b510      	push	{r4, lr}
 8006e68:	b2c9      	uxtb	r1, r1
 8006e6a:	4402      	add	r2, r0
 8006e6c:	4293      	cmp	r3, r2
 8006e6e:	4618      	mov	r0, r3
 8006e70:	d101      	bne.n	8006e76 <memchr+0x12>
 8006e72:	2000      	movs	r0, #0
 8006e74:	e003      	b.n	8006e7e <memchr+0x1a>
 8006e76:	7804      	ldrb	r4, [r0, #0]
 8006e78:	3301      	adds	r3, #1
 8006e7a:	428c      	cmp	r4, r1
 8006e7c:	d1f6      	bne.n	8006e6c <memchr+0x8>
 8006e7e:	bd10      	pop	{r4, pc}

08006e80 <memcpy>:
 8006e80:	440a      	add	r2, r1
 8006e82:	4291      	cmp	r1, r2
 8006e84:	f100 33ff 	add.w	r3, r0, #4294967295
 8006e88:	d100      	bne.n	8006e8c <memcpy+0xc>
 8006e8a:	4770      	bx	lr
 8006e8c:	b510      	push	{r4, lr}
 8006e8e:	f811 4b01 	ldrb.w	r4, [r1], #1
 8006e92:	4291      	cmp	r1, r2
 8006e94:	f803 4f01 	strb.w	r4, [r3, #1]!
 8006e98:	d1f9      	bne.n	8006e8e <memcpy+0xe>
 8006e9a:	bd10      	pop	{r4, pc}

08006e9c <_realloc_r>:
 8006e9c:	e92d 41f0 	stmdb	sp!, {r4, r5, r6, r7, r8, lr}
 8006ea0:	4680      	mov	r8, r0
 8006ea2:	4615      	mov	r5, r2
 8006ea4:	460c      	mov	r4, r1
 8006ea6:	b921      	cbnz	r1, 8006eb2 <_realloc_r+0x16>
 8006ea8:	4611      	mov	r1, r2
 8006eaa:	e8bd 41f0 	ldmia.w	sp!, {r4, r5, r6, r7, r8, lr}
 8006eae:	f7ff bc39 	b.w	8006724 <_malloc_r>
 8006eb2:	b92a      	cbnz	r2, 8006ec0 <_realloc_r+0x24>
 8006eb4:	f7ff fbcc 	bl	8006650 <_free_r>
 8006eb8:	2400      	movs	r4, #0
 8006eba:	4620      	mov	r0, r4
 8006ebc:	e8bd 81f0 	ldmia.w	sp!, {r4, r5, r6, r7, r8, pc}
 8006ec0:	f000 f81a 	bl	8006ef8 <_malloc_usable_size_r>
 8006ec4:	4285      	cmp	r5, r0
 8006ec6:	4606      	mov	r6, r0
 8006ec8:	d802      	bhi.n	8006ed0 <_realloc_r+0x34>
 8006eca:	ebb5 0f50 	cmp.w	r5, r0, lsr #1
 8006ece:	d8f4      	bhi.n	8006eba <_realloc_r+0x1e>
 8006ed0:	4629      	mov	r1, r5
 8006ed2:	4640      	mov	r0, r8
 8006ed4:	f7ff fc26 	bl	8006724 <_malloc_r>
 8006ed8:	4607      	mov	r7, r0
 8006eda:	2800      	cmp	r0, #0
 8006edc:	d0ec      	beq.n	8006eb8 <_realloc_r+0x1c>
 8006ede:	42b5      	cmp	r5, r6
 8006ee0:	462a      	mov	r2, r5
 8006ee2:	4621      	mov	r1, r4
 8006ee4:	bf28      	it	cs
 8006ee6:	4632      	movcs	r2, r6
 8006ee8:	f7ff ffca 	bl	8006e80 <memcpy>
 8006eec:	4621      	mov	r1, r4
 8006eee:	4640      	mov	r0, r8
 8006ef0:	f7ff fbae 	bl	8006650 <_free_r>
 8006ef4:	463c      	mov	r4, r7
 8006ef6:	e7e0      	b.n	8006eba <_realloc_r+0x1e>

08006ef8 <_malloc_usable_size_r>:
 8006ef8:	f851 3c04 	ldr.w	r3, [r1, #-4]
 8006efc:	1f18      	subs	r0, r3, #4
 8006efe:	2b00      	cmp	r3, #0
 8006f00:	bfbc      	itt	lt
 8006f02:	580b      	ldrlt	r3, [r1, r0]
 8006f04:	18c0      	addlt	r0, r0, r3
 8006f06:	4770      	bx	lr

08006f08 <_init>:
 8006f08:	b5f8      	push	{r3, r4, r5, r6, r7, lr}
 8006f0a:	bf00      	nop
 8006f0c:	bcf8      	pop	{r3, r4, r5, r6, r7}
 8006f0e:	bc08      	pop	{r3}
 8006f10:	469e      	mov	lr, r3
 8006f12:	4770      	bx	lr

08006f14 <_fini>:
 8006f14:	b5f8      	push	{r3, r4, r5, r6, r7, lr}
 8006f16:	bf00      	nop
 8006f18:	bcf8      	pop	{r3, r4, r5, r6, r7}
 8006f1a:	bc08      	pop	{r3}
 8006f1c:	469e      	mov	lr, r3
 8006f1e:	4770      	bx	lr
